Component: ARM Compiler 5.06 update 4 (build 422) Tool: armlink [4d35d2]

==============================================================================

Section Cross References

    startup_stm32f10x_md.o(RESET) refers to startup_stm32f10x_md.o(STACK) for __initial_sp
    startup_stm32f10x_md.o(RESET) refers to startup_stm32f10x_md.o(.text) for Reset_Handler
    startup_stm32f10x_md.o(RESET) refers to stm32f10x_it.o(i.NMI_Handler) for NMI_Handler
    startup_stm32f10x_md.o(RESET) refers to stm32f10x_it.o(i.HardFault_Handler) for HardFault_Handler
    startup_stm32f10x_md.o(RESET) refers to stm32f10x_it.o(i.MemManage_Handler) for MemManage_Handler
    startup_stm32f10x_md.o(RESET) refers to stm32f10x_it.o(i.BusFault_Handler) for BusFault_Handler
    startup_stm32f10x_md.o(RESET) refers to stm32f10x_it.o(i.UsageFault_Handler) for UsageFault_Handler
    startup_stm32f10x_md.o(RESET) refers to stm32f10x_it.o(i.SVC_Handler) for SVC_Handler
    startup_stm32f10x_md.o(RESET) refers to stm32f10x_it.o(i.DebugMon_Handler) for DebugMon_Handler
    startup_stm32f10x_md.o(RESET) refers to los_dispatch.o(KERNEL) for PendSV_Handler
    startup_stm32f10x_md.o(RESET) refers to los_tick.o(i.SysTick_Handler) for SysTick_Handler
    startup_stm32f10x_md.o(RESET) refers to timer.o(i.TIM2_IRQHandler) for TIM2_IRQHandler
    startup_stm32f10x_md.o(RESET) refers to timer.o(i.TIM3_IRQHandler) for TIM3_IRQHandler
    startup_stm32f10x_md.o(RESET) refers to usart.o(i.USART1_IRQHandler) for USART1_IRQHandler
    startup_stm32f10x_md.o(RESET) refers to usart2.o(i.USART2_IRQHandler) for USART2_IRQHandler
    startup_stm32f10x_md.o(RESET) refers to usart3.o(i.USART3_IRQHandler) for USART3_IRQHandler
    startup_stm32f10x_md.o(.text) refers to system_stm32f10x.o(i.SystemInit) for SystemInit
    startup_stm32f10x_md.o(.text) refers to entry.o(.ARM.Collect$$$$00000000) for __main
    system_stm32f10x.o(i.SetSysClock) refers to system_stm32f10x.o(i.SetSysClockTo72) for SetSysClockTo72
    system_stm32f10x.o(i.SystemCoreClockUpdate) refers to system_stm32f10x.o(.data) for SystemCoreClock
    system_stm32f10x.o(i.SystemInit) refers to system_stm32f10x.o(i.SetSysClock) for SetSysClock
    stm32f10x_adc.o(i.ADC_DeInit) refers to stm32f10x_rcc.o(i.RCC_APB2PeriphResetCmd) for RCC_APB2PeriphResetCmd
    stm32f10x_bkp.o(i.BKP_DeInit) refers to stm32f10x_rcc.o(i.RCC_BackupResetCmd) for RCC_BackupResetCmd
    stm32f10x_can.o(i.CAN_DeInit) refers to stm32f10x_rcc.o(i.RCC_APB1PeriphResetCmd) for RCC_APB1PeriphResetCmd
    stm32f10x_can.o(i.CAN_GetITStatus) refers to stm32f10x_can.o(i.CheckITStatus) for CheckITStatus
    stm32f10x_cec.o(i.CEC_DeInit) refers to stm32f10x_rcc.o(i.RCC_APB1PeriphResetCmd) for RCC_APB1PeriphResetCmd
    stm32f10x_dac.o(i.DAC_DeInit) refers to stm32f10x_rcc.o(i.RCC_APB1PeriphResetCmd) for RCC_APB1PeriphResetCmd
    stm32f10x_flash.o(i.FLASH_EnableWriteProtection) refers to stm32f10x_flash.o(i.FLASH_WaitForLastOperation) for FLASH_WaitForLastOperation
    stm32f10x_flash.o(i.FLASH_EraseAllBank1Pages) refers to stm32f10x_flash.o(i.FLASH_WaitForLastBank1Operation) for FLASH_WaitForLastBank1Operation
    stm32f10x_flash.o(i.FLASH_EraseAllPages) refers to stm32f10x_flash.o(i.FLASH_WaitForLastOperation) for FLASH_WaitForLastOperation
    stm32f10x_flash.o(i.FLASH_EraseOptionBytes) refers to stm32f10x_flash.o(i.FLASH_GetReadOutProtectionStatus) for FLASH_GetReadOutProtectionStatus
    stm32f10x_flash.o(i.FLASH_EraseOptionBytes) refers to stm32f10x_flash.o(i.FLASH_WaitForLastOperation) for FLASH_WaitForLastOperation
    stm32f10x_flash.o(i.FLASH_ErasePage) refers to stm32f10x_flash.o(i.FLASH_WaitForLastOperation) for FLASH_WaitForLastOperation
    stm32f10x_flash.o(i.FLASH_ProgramHalfWord) refers to stm32f10x_flash.o(i.FLASH_WaitForLastOperation) for FLASH_WaitForLastOperation
    stm32f10x_flash.o(i.FLASH_ProgramOptionByteData) refers to stm32f10x_flash.o(i.FLASH_WaitForLastOperation) for FLASH_WaitForLastOperation
    stm32f10x_flash.o(i.FLASH_ProgramWord) refers to stm32f10x_flash.o(i.FLASH_WaitForLastOperation) for FLASH_WaitForLastOperation
    stm32f10x_flash.o(i.FLASH_ReadOutProtection) refers to stm32f10x_flash.o(i.FLASH_WaitForLastOperation) for FLASH_WaitForLastOperation
    stm32f10x_flash.o(i.FLASH_UserOptionByteConfig) refers to stm32f10x_flash.o(i.FLASH_WaitForLastOperation) for FLASH_WaitForLastOperation
    stm32f10x_flash.o(i.FLASH_WaitForLastBank1Operation) refers to stm32f10x_flash.o(i.FLASH_GetBank1Status) for FLASH_GetBank1Status
    stm32f10x_flash.o(i.FLASH_WaitForLastOperation) refers to stm32f10x_flash.o(i.FLASH_GetBank1Status) for FLASH_GetBank1Status
    stm32f10x_gpio.o(i.GPIO_AFIODeInit) refers to stm32f10x_rcc.o(i.RCC_APB2PeriphResetCmd) for RCC_APB2PeriphResetCmd
    stm32f10x_gpio.o(i.GPIO_DeInit) refers to stm32f10x_rcc.o(i.RCC_APB2PeriphResetCmd) for RCC_APB2PeriphResetCmd
    stm32f10x_i2c.o(i.I2C_DeInit) refers to stm32f10x_rcc.o(i.RCC_APB1PeriphResetCmd) for RCC_APB1PeriphResetCmd
    stm32f10x_i2c.o(i.I2C_Init) refers to stm32f10x_rcc.o(i.RCC_GetClocksFreq) for RCC_GetClocksFreq
    stm32f10x_pwr.o(i.PWR_DeInit) refers to stm32f10x_rcc.o(i.RCC_APB1PeriphResetCmd) for RCC_APB1PeriphResetCmd
    stm32f10x_rcc.o(i.RCC_GetClocksFreq) refers to stm32f10x_rcc.o(.data) for APBAHBPrescTable
    stm32f10x_rcc.o(i.RCC_WaitForHSEStartUp) refers to stm32f10x_rcc.o(i.RCC_GetFlagStatus) for RCC_GetFlagStatus
    stm32f10x_rtc.o(i.RTC_SetAlarm) refers to stm32f10x_rtc.o(i.RTC_EnterConfigMode) for RTC_EnterConfigMode
    stm32f10x_rtc.o(i.RTC_SetAlarm) refers to stm32f10x_rtc.o(i.RTC_ExitConfigMode) for RTC_ExitConfigMode
    stm32f10x_rtc.o(i.RTC_SetCounter) refers to stm32f10x_rtc.o(i.RTC_EnterConfigMode) for RTC_EnterConfigMode
    stm32f10x_rtc.o(i.RTC_SetCounter) refers to stm32f10x_rtc.o(i.RTC_ExitConfigMode) for RTC_ExitConfigMode
    stm32f10x_rtc.o(i.RTC_SetPrescaler) refers to stm32f10x_rtc.o(i.RTC_EnterConfigMode) for RTC_EnterConfigMode
    stm32f10x_rtc.o(i.RTC_SetPrescaler) refers to stm32f10x_rtc.o(i.RTC_ExitConfigMode) for RTC_ExitConfigMode
    stm32f10x_spi.o(i.I2S_Init) refers to stm32f10x_rcc.o(i.RCC_GetClocksFreq) for RCC_GetClocksFreq
    stm32f10x_spi.o(i.SPI_I2S_DeInit) refers to stm32f10x_rcc.o(i.RCC_APB2PeriphResetCmd) for RCC_APB2PeriphResetCmd
    stm32f10x_spi.o(i.SPI_I2S_DeInit) refers to stm32f10x_rcc.o(i.RCC_APB1PeriphResetCmd) for RCC_APB1PeriphResetCmd
    stm32f10x_tim.o(i.TIM_DeInit) refers to stm32f10x_rcc.o(i.RCC_APB2PeriphResetCmd) for RCC_APB2PeriphResetCmd
    stm32f10x_tim.o(i.TIM_DeInit) refers to stm32f10x_rcc.o(i.RCC_APB1PeriphResetCmd) for RCC_APB1PeriphResetCmd
    stm32f10x_tim.o(i.TIM_ETRClockMode1Config) refers to stm32f10x_tim.o(i.TIM_ETRConfig) for TIM_ETRConfig
    stm32f10x_tim.o(i.TIM_ETRClockMode2Config) refers to stm32f10x_tim.o(i.TIM_ETRConfig) for TIM_ETRConfig
    stm32f10x_tim.o(i.TIM_ICInit) refers to stm32f10x_tim.o(i.TI1_Config) for TI1_Config
    stm32f10x_tim.o(i.TIM_ICInit) refers to stm32f10x_tim.o(i.TIM_SetIC1Prescaler) for TIM_SetIC1Prescaler
    stm32f10x_tim.o(i.TIM_ICInit) refers to stm32f10x_tim.o(i.TI2_Config) for TI2_Config
    stm32f10x_tim.o(i.TIM_ICInit) refers to stm32f10x_tim.o(i.TIM_SetIC2Prescaler) for TIM_SetIC2Prescaler
    stm32f10x_tim.o(i.TIM_ICInit) refers to stm32f10x_tim.o(i.TI3_Config) for TI3_Config
    stm32f10x_tim.o(i.TIM_ICInit) refers to stm32f10x_tim.o(i.TIM_SetIC3Prescaler) for TIM_SetIC3Prescaler
    stm32f10x_tim.o(i.TIM_ICInit) refers to stm32f10x_tim.o(i.TI4_Config) for TI4_Config
    stm32f10x_tim.o(i.TIM_ICInit) refers to stm32f10x_tim.o(i.TIM_SetIC4Prescaler) for TIM_SetIC4Prescaler
    stm32f10x_tim.o(i.TIM_ITRxExternalClockConfig) refers to stm32f10x_tim.o(i.TIM_SelectInputTrigger) for TIM_SelectInputTrigger
    stm32f10x_tim.o(i.TIM_PWMIConfig) refers to stm32f10x_tim.o(i.TI1_Config) for TI1_Config
    stm32f10x_tim.o(i.TIM_PWMIConfig) refers to stm32f10x_tim.o(i.TIM_SetIC1Prescaler) for TIM_SetIC1Prescaler
    stm32f10x_tim.o(i.TIM_PWMIConfig) refers to stm32f10x_tim.o(i.TI2_Config) for TI2_Config
    stm32f10x_tim.o(i.TIM_PWMIConfig) refers to stm32f10x_tim.o(i.TIM_SetIC2Prescaler) for TIM_SetIC2Prescaler
    stm32f10x_tim.o(i.TIM_TIxExternalClockConfig) refers to stm32f10x_tim.o(i.TI2_Config) for TI2_Config
    stm32f10x_tim.o(i.TIM_TIxExternalClockConfig) refers to stm32f10x_tim.o(i.TI1_Config) for TI1_Config
    stm32f10x_tim.o(i.TIM_TIxExternalClockConfig) refers to stm32f10x_tim.o(i.TIM_SelectInputTrigger) for TIM_SelectInputTrigger
    stm32f10x_usart.o(i.USART_DeInit) refers to stm32f10x_rcc.o(i.RCC_APB2PeriphResetCmd) for RCC_APB2PeriphResetCmd
    stm32f10x_usart.o(i.USART_DeInit) refers to stm32f10x_rcc.o(i.RCC_APB1PeriphResetCmd) for RCC_APB1PeriphResetCmd
    stm32f10x_usart.o(i.USART_Init) refers to stm32f10x_rcc.o(i.RCC_GetClocksFreq) for RCC_GetClocksFreq
    stm32f10x_wwdg.o(i.WWDG_DeInit) refers to stm32f10x_rcc.o(i.RCC_APB1PeriphResetCmd) for RCC_APB1PeriphResetCmd
    main.o(i.hardware_init) refers to mcu_init.o(i.RCC_Configuration) for RCC_Configuration
    main.o(i.hardware_init) refers to mcu_init.o(i.NVIC_Configuration) for NVIC_Configuration
    main.o(i.hardware_init) refers to ult.o(i.Systick_Init) for Systick_Init
    main.o(i.hardware_init) refers to usart2.o(i.usart2_init) for usart2_init
    main.o(i.hardware_init) refers to usart.o(i.usart1_init) for usart1_init
    main.o(i.hardware_init) refers to usart3.o(i.usart3_init) for usart3_init
    main.o(i.hardware_init) refers to timer.o(i.timer_init) for timer_init
    main.o(i.osAppInit) refers to main.o(i.hardware_init) for hardware_init
    main.o(i.osAppInit) refers to main.o(i.Delay) for Delay
    main.o(i.osAppInit) refers to mqtt_task.o(i.creat_task_mqtt) for creat_task_mqtt
    main.o(i.osAppInit) refers to task.o(i.creat_task_lbs) for creat_task_lbs
    main.o(i.osAppInit) refers to task.o(i.creat_task_test) for creat_task_test
    los_priqueue.o(i.LOS_PriqueueEnqueue) refers to los_priqueue.o(.data) for g_pstLosPriorityQueueList
    los_priqueue.o(i.LOS_PriqueueSize) refers to los_priqueue.o(.data) for g_pstLosPriorityQueueList
    los_priqueue.o(i.LOS_PriqueueTop) refers to los_priqueue.o(.data) for g_pstLosPriorityQueueList
    los_priqueue.o(i.LOS_PriqueueTotalSize) refers to los_priqueue.o(i.LOS_PriqueueSize) for LOS_PriqueueSize
    los_priqueue.o(i.osPriqueueInit) refers to los_memory.o(i.LOS_MemAlloc) for LOS_MemAlloc
    los_priqueue.o(i.osPriqueueInit) refers to los_config.o(.data) for m_aucSysMem0
    los_priqueue.o(i.osPriqueueInit) refers to los_priqueue.o(.data) for g_pstLosPriorityQueueList
    los_swtmr.o(i.LOS_SwtmrCreate) refers to los_dispatch.o(KERNEL) for LOS_IntLock
    los_swtmr.o(i.LOS_SwtmrCreate) refers to los_swtmr.o(.data) for m_pstSwtmrFreeList
    los_swtmr.o(i.LOS_SwtmrDelete) refers to los_dispatch.o(KERNEL) for LOS_IntLock
    los_swtmr.o(i.LOS_SwtmrDelete) refers to los_swtmr.o(i.osSwtmrStop) for osSwtmrStop
    los_swtmr.o(i.LOS_SwtmrDelete) refers to los_swtmr.o(i.osSwtmrDelete) for osSwtmrDelete
    los_swtmr.o(i.LOS_SwtmrDelete) refers to los_swtmr.o(.data) for m_pstSwtmrCBArray
    los_swtmr.o(i.LOS_SwtmrStart) refers to los_dispatch.o(KERNEL) for LOS_IntLock
    los_swtmr.o(i.LOS_SwtmrStart) refers to los_swtmr.o(i.osSwtmrStop) for osSwtmrStop
    los_swtmr.o(i.LOS_SwtmrStart) refers to los_swtmr.o(i.osSwTmrStart) for osSwTmrStart
    los_swtmr.o(i.LOS_SwtmrStart) refers to los_swtmr.o(.data) for m_pstSwtmrCBArray
    los_swtmr.o(i.LOS_SwtmrStop) refers to los_dispatch.o(KERNEL) for LOS_IntLock
    los_swtmr.o(i.LOS_SwtmrStop) refers to los_swtmr.o(i.osSwtmrStop) for osSwtmrStop
    los_swtmr.o(i.LOS_SwtmrStop) refers to los_swtmr.o(.data) for m_pstSwtmrCBArray
    los_swtmr.o(i.osSwTmrAdjust) refers to los_swtmr.o(i.osSwTmrTimeoutHandle) for osSwTmrTimeoutHandle
    los_swtmr.o(i.osSwTmrAdjust) refers to los_swtmr.o(.data) for m_pstSwtmrSortList
    los_swtmr.o(i.osSwTmrGetNextTimeout) refers to los_swtmr.o(.data) for m_pstSwtmrSortList
    los_swtmr.o(i.osSwTmrInit) refers to los_memory.o(i.LOS_MemAlloc) for LOS_MemAlloc
    los_swtmr.o(i.osSwTmrInit) refers to memseta.o(.text) for __aeabi_memclr4
    los_swtmr.o(i.osSwTmrInit) refers to los_membox.o(i.LOS_MemboxInit) for LOS_MemboxInit
    los_swtmr.o(i.osSwTmrInit) refers to los_queue.o(i.LOS_QueueCreate) for LOS_QueueCreate
    los_swtmr.o(i.osSwTmrInit) refers to los_swtmr.o(i.osSwTmrTaskCreate) for osSwTmrTaskCreate
    los_swtmr.o(i.osSwTmrInit) refers to los_swtmr.o(.data) for m_pstSwtmrSortList
    los_swtmr.o(i.osSwTmrInit) refers to los_config.o(.data) for m_aucSysMem0
    los_swtmr.o(i.osSwTmrInit) refers to los_swtmr.o(.bss) for m_aucSwTmrHandlerPool
    los_swtmr.o(i.osSwTmrStart) refers to los_swtmr.o(.data) for m_pstSwtmrSortList
    los_swtmr.o(i.osSwTmrTask) refers to los_queue.o(i.LOS_QueueRead) for LOS_QueueRead
    los_swtmr.o(i.osSwTmrTask) refers to los_membox.o(i.LOS_MemboxFree) for LOS_MemboxFree
    los_swtmr.o(i.osSwTmrTask) refers to los_swtmr.o(.data) for m_uwSwTmrHandlerQueue
    los_swtmr.o(i.osSwTmrTask) refers to los_swtmr.o(.bss) for m_aucSwTmrHandlerPool
    los_swtmr.o(i.osSwTmrTaskCreate) refers to memseta.o(.text) for __aeabi_memclr4
    los_swtmr.o(i.osSwTmrTaskCreate) refers to los_task.o(i.LOS_TaskCreate) for LOS_TaskCreate
    los_swtmr.o(i.osSwTmrTaskCreate) refers to los_swtmr.o(i.osSwTmrTask) for osSwTmrTask
    los_swtmr.o(i.osSwTmrTaskCreate) refers to los_task.o(.data) for g_uwSwtmrTaskID
    los_swtmr.o(i.osSwTmrTimeoutHandle) refers to los_membox.o(i.LOS_MemboxAlloc) for LOS_MemboxAlloc
    los_swtmr.o(i.osSwTmrTimeoutHandle) refers to los_queue.o(i.LOS_QueueWrite) for LOS_QueueWrite
    los_swtmr.o(i.osSwTmrTimeoutHandle) refers to los_membox.o(i.LOS_MemboxFree) for LOS_MemboxFree
    los_swtmr.o(i.osSwTmrTimeoutHandle) refers to los_swtmr.o(i.osSwtmrDelete) for osSwtmrDelete
    los_swtmr.o(i.osSwTmrTimeoutHandle) refers to los_swtmr.o(i.osSwTmrStart) for osSwTmrStart
    los_swtmr.o(i.osSwTmrTimeoutHandle) refers to los_swtmr.o(.data) for m_pstSwtmrSortList
    los_swtmr.o(i.osSwTmrTimeoutHandle) refers to los_swtmr.o(.bss) for m_aucSwTmrHandlerPool
    los_swtmr.o(i.osSwtmrDelete) refers to los_swtmr.o(.data) for m_pstSwtmrFreeList
    los_swtmr.o(i.osSwtmrScan) refers to los_swtmr.o(i.osSwTmrTimeoutHandle) for osSwTmrTimeoutHandle
    los_swtmr.o(i.osSwtmrScan) refers to los_swtmr.o(.data) for m_pstSwtmrSortList
    los_swtmr.o(i.osSwtmrStop) refers to los_swtmr.o(.data) for m_pstSwtmrSortList
    los_sys.o(i.LOS_MS2Tick) refers to uldiv.o(.text) for __aeabi_uldivmod
    los_sys.o(i.LOS_Reboot) refers to los_dispatch.o(KERNEL) for LOS_IntLock
    los_sys.o(i.LOS_Tick2MS) refers to uldiv.o(.text) for __aeabi_uldivmod
    los_sys.o(i.LOS_TickCountGet) refers to los_tick.o(.data) for g_ullTickCount
    los_sys.o(i.get_jiffies_64) refers to los_sys.o(i.LOS_TickCountGet) for LOS_TickCountGet
    los_sys.o(i.jiffies_to_msecs) refers to los_sys.o(i.LOS_Tick2MS) for LOS_Tick2MS
    los_sys.o(i.osCpuTick2MS) refers to dfltul.o(.text) for __aeabi_ul2d
    los_sys.o(i.osCpuTick2MS) refers to ddiv.o(.text) for __aeabi_ddiv
    los_sys.o(i.osCpuTick2MS) refers to dfixul.o(.text) for __aeabi_d2ulz
    los_sys.o(i.osCpuTick2US) refers to dfltul.o(.text) for __aeabi_ul2d
    los_sys.o(i.osCpuTick2US) refers to ddiv.o(.text) for __aeabi_ddiv
    los_sys.o(i.osCpuTick2US) refers to dfixul.o(.text) for __aeabi_d2ulz
    los_task.o(i.LOS_CurTaskIDGet) refers to los_task.o(.data) for g_stLosTask
    los_task.o(i.LOS_CurTaskPriSet) refers to los_task.o(i.LOS_TaskPriSet) for LOS_TaskPriSet
    los_task.o(i.LOS_CurTaskPriSet) refers to los_task.o(.data) for g_stLosTask
    los_task.o(i.LOS_ListTailInsert) refers to los_task.o(i.LOS_ListAdd) for LOS_ListAdd
    los_task.o(i.LOS_TaskCreate) refers to los_task.o(i.LOS_TaskCreateOnly) for LOS_TaskCreateOnly
    los_task.o(i.LOS_TaskCreate) refers to los_dispatch.o(KERNEL) for LOS_IntLock
    los_task.o(i.LOS_TaskCreate) refers to los_priqueue.o(i.LOS_PriqueueEnqueue) for LOS_PriqueueEnqueue
    los_task.o(i.LOS_TaskCreate) refers to los_priqueue.o(i.LOS_PriqueueTop) for LOS_PriqueueTop
    los_task.o(i.LOS_TaskCreate) refers to los_hw.o(i.osSchedule) for osSchedule
    los_task.o(i.LOS_TaskCreate) refers to los_task.o(.data) for g_pstTaskCBArray
    los_task.o(i.LOS_TaskCreateOnly) refers to los_misc.o(i.LOS_Align) for LOS_Align
    los_task.o(i.LOS_TaskCreateOnly) refers to los_dispatch.o(KERNEL) for LOS_IntLock
    los_task.o(i.LOS_TaskCreateOnly) refers to los_task.o(i.LOS_ListDelete) for LOS_ListDelete
    los_task.o(i.LOS_TaskCreateOnly) refers to los_task.o(i.LOS_ListAdd) for LOS_ListAdd
    los_task.o(i.LOS_TaskCreateOnly) refers to los_memory.o(i.LOS_MemFree) for LOS_MemFree
    los_task.o(i.LOS_TaskCreateOnly) refers to los_task.o(i.LOS_ListEmpty) for LOS_ListEmpty
    los_task.o(i.LOS_TaskCreateOnly) refers to los_memory.o(i.LOS_MemAllocAlign) for LOS_MemAllocAlign
    los_task.o(i.LOS_TaskCreateOnly) refers to los_hw.o(i.osTskStackInit) for osTskStackInit
    los_task.o(i.LOS_TaskCreateOnly) refers to los_task.o(.data) for g_stTskRecyleList
    los_task.o(i.LOS_TaskCreateOnly) refers to los_config.o(.data) for m_aucSysMem0
    los_task.o(i.LOS_TaskDelay) refers to los_task.o(i.LOS_TaskYield) for LOS_TaskYield
    los_task.o(i.LOS_TaskDelay) refers to los_dispatch.o(KERNEL) for LOS_IntLock
    los_task.o(i.LOS_TaskDelay) refers to los_priqueue.o(i.LOS_PriqueueDequeue) for LOS_PriqueueDequeue
    los_task.o(i.LOS_TaskDelay) refers to los_task.o(i.osTaskAdd2TimerList) for osTaskAdd2TimerList
    los_task.o(i.LOS_TaskDelay) refers to los_hw.o(i.LOS_Schedule) for LOS_Schedule
    los_task.o(i.LOS_TaskDelay) refers to los_hwi.o(.data) for g_vuwIntCount
    los_task.o(i.LOS_TaskDelay) refers to los_task.o(.data) for g_usLosTaskLock
    los_task.o(i.LOS_TaskDelete) refers to los_dispatch.o(KERNEL) for LOS_IntLock
    los_task.o(i.LOS_TaskDelete) refers to los_priqueue.o(i.LOS_PriqueueDequeue) for LOS_PriqueueDequeue
    los_task.o(i.LOS_TaskDelete) refers to los_task.o(i.LOS_ListDelete) for LOS_ListDelete
    los_task.o(i.LOS_TaskDelete) refers to los_task.o(i.osTimerListDelete) for osTimerListDelete
    los_task.o(i.LOS_TaskDelete) refers to los_priqueue.o(i.LOS_PriqueueTop) for LOS_PriqueueTop
    los_task.o(i.LOS_TaskDelete) refers to los_task.o(i.LOS_ListTailInsert) for LOS_ListTailInsert
    los_task.o(i.LOS_TaskDelete) refers to los_hw.o(i.osSchedule) for osSchedule
    los_task.o(i.LOS_TaskDelete) refers to los_task.o(i.LOS_ListAdd) for LOS_ListAdd
    los_task.o(i.LOS_TaskDelete) refers to los_memory.o(i.LOS_MemFree) for LOS_MemFree
    los_task.o(i.LOS_TaskDelete) refers to los_task.o(.data) for g_uwIdleTaskID
    los_task.o(i.LOS_TaskDelete) refers to los_config.o(.data) for m_aucSysMem0
    los_task.o(i.LOS_TaskLock) refers to los_dispatch.o(KERNEL) for LOS_IntLock
    los_task.o(i.LOS_TaskLock) refers to los_task.o(.data) for g_usLosTaskLock
    los_task.o(i.LOS_TaskPriGet) refers to los_dispatch.o(KERNEL) for LOS_IntLock
    los_task.o(i.LOS_TaskPriGet) refers to los_task.o(.data) for g_uwTskMaxNum
    los_task.o(i.LOS_TaskPriSet) refers to los_dispatch.o(KERNEL) for LOS_IntLock
    los_task.o(i.LOS_TaskPriSet) refers to los_priqueue.o(i.LOS_PriqueueDequeue) for LOS_PriqueueDequeue
    los_task.o(i.LOS_TaskPriSet) refers to los_priqueue.o(i.LOS_PriqueueEnqueue) for LOS_PriqueueEnqueue
    los_task.o(i.LOS_TaskPriSet) refers to los_hw.o(i.LOS_Schedule) for LOS_Schedule
    los_task.o(i.LOS_TaskPriSet) refers to los_task.o(.data) for g_uwIdleTaskID
    los_task.o(i.LOS_TaskResume) refers to los_dispatch.o(KERNEL) for LOS_IntLock
    los_task.o(i.LOS_TaskResume) refers to los_priqueue.o(i.LOS_PriqueueEnqueue) for LOS_PriqueueEnqueue
    los_task.o(i.LOS_TaskResume) refers to los_hw.o(i.LOS_Schedule) for LOS_Schedule
    los_task.o(i.LOS_TaskResume) refers to los_priqueue.o(i.LOS_PriqueueTop) for LOS_PriqueueTop
    los_task.o(i.LOS_TaskResume) refers to los_task.o(.data) for g_pstTaskCBArray
    los_task.o(i.LOS_TaskSuspend) refers to los_dispatch.o(KERNEL) for LOS_IntLock
    los_task.o(i.LOS_TaskSuspend) refers to los_priqueue.o(i.LOS_PriqueueDequeue) for LOS_PriqueueDequeue
    los_task.o(i.LOS_TaskSuspend) refers to los_hw.o(i.LOS_Schedule) for LOS_Schedule
    los_task.o(i.LOS_TaskSuspend) refers to los_task.o(.data) for g_uwIdleTaskID
    los_task.o(i.LOS_TaskUnlock) refers to los_dispatch.o(KERNEL) for LOS_IntLock
    los_task.o(i.LOS_TaskUnlock) refers to los_hw.o(i.LOS_Schedule) for LOS_Schedule
    los_task.o(i.LOS_TaskUnlock) refers to los_task.o(.data) for g_usLosTaskLock
    los_task.o(i.LOS_TaskYield) refers to los_dispatch.o(KERNEL) for LOS_IntLock
    los_task.o(i.LOS_TaskYield) refers to los_priqueue.o(i.LOS_PriqueueSize) for LOS_PriqueueSize
    los_task.o(i.LOS_TaskYield) refers to los_task.o(i.LOS_ListDelete) for LOS_ListDelete
    los_task.o(i.LOS_TaskYield) refers to los_priqueue.o(i.LOS_PriqueueEnqueue) for LOS_PriqueueEnqueue
    los_task.o(i.LOS_TaskYield) refers to los_hw.o(i.LOS_Schedule) for LOS_Schedule
    los_task.o(i.LOS_TaskYield) refers to los_task.o(.data) for g_stLosTask
    los_task.o(i.osIdleTaskCreate) refers to memseta.o(.text) for __aeabi_memclr4
    los_task.o(i.osIdleTaskCreate) refers to los_task.o(i.LOS_TaskCreate) for LOS_TaskCreate
    los_task.o(i.osIdleTaskCreate) refers to los_task.o(i.osIdleTask) for osIdleTask
    los_task.o(i.osIdleTaskCreate) refers to los_task.o(.data) for g_uwIdleTaskID
    los_task.o(i.osTaskAdd2TimerList) refers to los_task.o(i.LOS_ListTailInsert) for LOS_ListTailInsert
    los_task.o(i.osTaskAdd2TimerList) refers to los_task.o(.data) for g_stTskSortLink
    los_task.o(i.osTaskEntry) refers to los_dispatch.o(KERNEL) for LOS_IntLock
    los_task.o(i.osTaskEntry) refers to los_task.o(i.osTaskSelfDelete) for osTaskSelfDelete
    los_task.o(i.osTaskEntry) refers to los_task.o(i.LOS_TaskLock) for LOS_TaskLock
    los_task.o(i.osTaskEntry) refers to los_sem.o(i.LOS_SemPost) for LOS_SemPost
    los_task.o(i.osTaskEntry) refers to los_priqueue.o(i.LOS_PriqueueDequeue) for LOS_PriqueueDequeue
    los_task.o(i.osTaskEntry) refers to los_task.o(i.LOS_TaskUnlock) for LOS_TaskUnlock
    los_task.o(i.osTaskEntry) refers to los_hw.o(i.LOS_Schedule) for LOS_Schedule
    los_task.o(i.osTaskEntry) refers to los_task.o(.data) for g_pstTaskCBArray
    los_task.o(i.osTaskInit) refers to los_memory.o(i.LOS_MemAlloc) for LOS_MemAlloc
    los_task.o(i.osTaskInit) refers to memseta.o(.text) for __aeabi_memclr4
    los_task.o(i.osTaskInit) refers to los_task.o(i.LOS_ListInit) for LOS_ListInit
    los_task.o(i.osTaskInit) refers to los_task.o(i.LOS_ListTailInsert) for LOS_ListTailInsert
    los_task.o(i.osTaskInit) refers to los_priqueue.o(i.osPriqueueInit) for osPriqueueInit
    los_task.o(i.osTaskInit) refers to los_task.o(.data) for g_uwTskMaxNum
    los_task.o(i.osTaskInit) refers to los_config.o(.data) for m_aucSysMem0
    los_task.o(i.osTaskPriModify) refers to los_priqueue.o(i.LOS_PriqueueDequeue) for LOS_PriqueueDequeue
    los_task.o(i.osTaskPriModify) refers to los_priqueue.o(i.LOS_PriqueueEnqueue) for LOS_PriqueueEnqueue
    los_task.o(i.osTaskScan) refers to los_task.o(i.LOS_ListDelete) for LOS_ListDelete
    los_task.o(i.osTaskScan) refers to los_priqueue.o(i.LOS_PriqueueEnqueue) for LOS_PriqueueEnqueue
    los_task.o(i.osTaskScan) refers to los_hw.o(i.LOS_Schedule) for LOS_Schedule
    los_task.o(i.osTaskScan) refers to los_task.o(.data) for g_stTskSortLink
    los_task.o(i.osTaskSelfDelete) refers to los_priqueue.o(i.LOS_PriqueueDequeue) for LOS_PriqueueDequeue
    los_task.o(i.osTaskSelfDelete) refers to los_task.o(i.LOS_ListDelete) for LOS_ListDelete
    los_task.o(i.osTaskSelfDelete) refers to los_task.o(i.osTimerListDelete) for osTimerListDelete
    los_task.o(i.osTaskSelfDelete) refers to los_priqueue.o(i.LOS_PriqueueTop) for LOS_PriqueueTop
    los_task.o(i.osTaskSelfDelete) refers to los_task.o(i.LOS_ListTailInsert) for LOS_ListTailInsert
    los_task.o(i.osTaskSelfDelete) refers to los_dispatch.o(KERNEL) for LOS_IntRestore
    los_task.o(i.osTaskSelfDelete) refers to los_hw.o(i.osSchedule) for osSchedule
    los_task.o(i.osTaskSelfDelete) refers to los_task.o(.data) for g_pstTaskCBArray
    los_task.o(i.osTimerListDelete) refers to los_task.o(i.LOS_ListDelete) for LOS_ListDelete
    los_task.o(i.osTimerListDelete) refers to los_task.o(.data) for g_stTskSortLink
    los_tick.o(i.SysTick_Handler) refers to los_timeslice.o(i.osTimesliceCheck) for osTimesliceCheck
    los_tick.o(i.SysTick_Handler) refers to los_task.o(i.osTaskScan) for osTaskScan
    los_tick.o(i.SysTick_Handler) refers to los_swtmr.o(i.osSwtmrScan) for osSwtmrScan
    los_tick.o(i.SysTick_Handler) refers to los_tick.o(.data) for g_ullTickCount
    los_timeslice.o(i.osTimesliceCheck) refers to los_task.o(i.LOS_TaskYield) for LOS_TaskYield
    los_timeslice.o(i.osTimesliceCheck) refers to los_timeslice.o(.data) for g_stTaskTimeSlice
    los_timeslice.o(i.osTimesliceCheck) refers to los_task.o(.data) for g_stLosTask
    los_timeslice.o(i.osTimesliceCheck) refers to los_tick.o(.data) for g_ullTickCount
    los_timeslice.o(i.osTimesliceInit) refers to los_timeslice.o(.data) for g_stTaskTimeSlice
    los_event.o(i.LOS_EventClear) refers to los_dispatch.o(KERNEL) for LOS_IntLock
    los_event.o(i.LOS_EventPoll) refers to los_dispatch.o(KERNEL) for LOS_IntLock
    los_event.o(i.LOS_EventRead) refers to los_dispatch.o(KERNEL) for LOS_IntLock
    los_event.o(i.LOS_EventRead) refers to los_event.o(i.LOS_EventPoll) for LOS_EventPoll
    los_event.o(i.LOS_EventRead) refers to los_priqueue.o(i.LOS_PriqueueDequeue) for LOS_PriqueueDequeue
    los_event.o(i.LOS_EventRead) refers to los_task.o(i.osTaskAdd2TimerList) for osTaskAdd2TimerList
    los_event.o(i.LOS_EventRead) refers to los_hw.o(i.LOS_Schedule) for LOS_Schedule
    los_event.o(i.LOS_EventRead) refers to los_hwi.o(.data) for g_vuwIntCount
    los_event.o(i.LOS_EventRead) refers to los_task.o(.data) for g_usLosTaskLock
    los_event.o(i.LOS_EventWrite) refers to los_dispatch.o(KERNEL) for LOS_IntLock
    los_event.o(i.LOS_EventWrite) refers to los_task.o(i.osTimerListDelete) for osTimerListDelete
    los_event.o(i.LOS_EventWrite) refers to los_priqueue.o(i.LOS_PriqueueEnqueue) for LOS_PriqueueEnqueue
    los_event.o(i.LOS_EventWrite) refers to los_hw.o(i.LOS_Schedule) for LOS_Schedule
    los_mux.o(i.LOS_ListTailInsert) refers to los_mux.o(i.LOS_ListAdd) for LOS_ListAdd
    los_mux.o(i.LOS_MuxCreate) refers to los_dispatch.o(KERNEL) for LOS_IntLock
    los_mux.o(i.LOS_MuxCreate) refers to los_mux.o(i.LOS_ListEmpty) for LOS_ListEmpty
    los_mux.o(i.LOS_MuxCreate) refers to los_mux.o(i.LOS_ListDelete) for LOS_ListDelete
    los_mux.o(i.LOS_MuxCreate) refers to los_mux.o(i.LOS_ListInit) for LOS_ListInit
    los_mux.o(i.LOS_MuxCreate) refers to los_mux.o(.data) for g_stUnusedMuxList
    los_mux.o(i.LOS_MuxDelete) refers to los_dispatch.o(KERNEL) for LOS_IntLock
    los_mux.o(i.LOS_MuxDelete) refers to los_mux.o(i.LOS_ListEmpty) for LOS_ListEmpty
    los_mux.o(i.LOS_MuxDelete) refers to los_mux.o(i.LOS_ListAdd) for LOS_ListAdd
    los_mux.o(i.LOS_MuxDelete) refers to los_mux.o(.data) for g_pstAllMux
    los_mux.o(i.LOS_MuxPend) refers to los_dispatch.o(KERNEL) for LOS_IntLock
    los_mux.o(i.LOS_MuxPend) refers to los_priqueue.o(i.LOS_PriqueueDequeue) for LOS_PriqueueDequeue
    los_mux.o(i.LOS_MuxPend) refers to los_task.o(i.osTaskPriModify) for osTaskPriModify
    los_mux.o(i.LOS_MuxPend) refers to los_mux.o(i.LOS_ListTailInsert) for LOS_ListTailInsert
    los_mux.o(i.LOS_MuxPend) refers to los_task.o(i.osTaskAdd2TimerList) for osTaskAdd2TimerList
    los_mux.o(i.LOS_MuxPend) refers to los_hw.o(i.LOS_Schedule) for LOS_Schedule
    los_mux.o(i.LOS_MuxPend) refers to los_mux.o(.data) for g_pstAllMux
    los_mux.o(i.LOS_MuxPend) refers to los_hwi.o(.data) for g_vuwIntCount
    los_mux.o(i.LOS_MuxPend) refers to los_task.o(.data) for g_stLosTask
    los_mux.o(i.LOS_MuxPost) refers to los_dispatch.o(KERNEL) for LOS_IntLock
    los_mux.o(i.LOS_MuxPost) refers to los_task.o(i.osTaskPriModify) for osTaskPriModify
    los_mux.o(i.LOS_MuxPost) refers to los_mux.o(i.LOS_ListEmpty) for LOS_ListEmpty
    los_mux.o(i.LOS_MuxPost) refers to los_mux.o(i.LOS_ListDelete) for LOS_ListDelete
    los_mux.o(i.LOS_MuxPost) refers to los_task.o(i.osTimerListDelete) for osTimerListDelete
    los_mux.o(i.LOS_MuxPost) refers to los_priqueue.o(i.LOS_PriqueueEnqueue) for LOS_PriqueueEnqueue
    los_mux.o(i.LOS_MuxPost) refers to los_hw.o(i.LOS_Schedule) for LOS_Schedule
    los_mux.o(i.LOS_MuxPost) refers to los_mux.o(.data) for g_pstAllMux
    los_mux.o(i.LOS_MuxPost) refers to los_hwi.o(.data) for g_vuwIntCount
    los_mux.o(i.LOS_MuxPost) refers to los_task.o(.data) for g_stLosTask
    los_mux.o(i.osMuxInit) refers to los_mux.o(i.LOS_ListInit) for LOS_ListInit
    los_mux.o(i.osMuxInit) refers to los_memory.o(i.LOS_MemAlloc) for LOS_MemAlloc
    los_mux.o(i.osMuxInit) refers to los_mux.o(i.LOS_ListTailInsert) for LOS_ListTailInsert
    los_mux.o(i.osMuxInit) refers to los_mux.o(.data) for g_stUnusedMuxList
    los_mux.o(i.osMuxInit) refers to los_config.o(.data) for m_aucSysMem0
    los_queue.o(i.LOS_QueueCreate) refers to los_dispatch.o(KERNEL) for LOS_IntLock
    los_queue.o(i.LOS_QueueCreate) refers to los_queue.o(i.osQueueCreate) for osQueueCreate
    los_queue.o(i.LOS_QueueCreate) refers to los_queue.o(i.LOS_ListInit) for LOS_ListInit
    los_queue.o(i.LOS_QueueDelete) refers to los_dispatch.o(KERNEL) for LOS_IntLock
    los_queue.o(i.LOS_QueueDelete) refers to los_queue.o(i.LOS_ListEmpty) for LOS_ListEmpty
    los_queue.o(i.LOS_QueueDelete) refers to los_memory.o(i.LOS_MemFree) for LOS_MemFree
    los_queue.o(i.LOS_QueueDelete) refers to los_queue.o(.data) for g_pstAllQueue
    los_queue.o(i.LOS_QueueDelete) refers to los_config.o(.data) for m_aucSysMem0
    los_queue.o(i.LOS_QueueRead) refers to los_dispatch.o(KERNEL) for LOS_IntLock
    los_queue.o(i.LOS_QueueRead) refers to los_queue.o(i.osQueuePend) for osQueuePend
    los_queue.o(i.LOS_QueueRead) refers to los_hw.o(i.LOS_Schedule) for LOS_Schedule
    los_queue.o(i.LOS_QueueRead) refers to los_queue.o(i.LOS_ListEmpty) for LOS_ListEmpty
    los_queue.o(i.LOS_QueueRead) refers to los_queue.o(i.osQueueWakeUp) for osQueueWakeUp
    los_queue.o(i.LOS_QueueRead) refers to los_hwi.o(.data) for g_vuwIntCount
    los_queue.o(i.LOS_QueueRead) refers to los_queue.o(.data) for g_pstAllQueue
    los_queue.o(i.LOS_QueueRead) refers to los_task.o(.data) for g_usLosTaskLock
    los_queue.o(i.LOS_QueueWrite) refers to los_dispatch.o(KERNEL) for LOS_IntLock
    los_queue.o(i.LOS_QueueWrite) refers to los_queue.o(i.osQueuePend) for osQueuePend
    los_queue.o(i.LOS_QueueWrite) refers to los_hw.o(i.LOS_Schedule) for LOS_Schedule
    los_queue.o(i.LOS_QueueWrite) refers to los_queue.o(i.LOS_ListEmpty) for LOS_ListEmpty
    los_queue.o(i.LOS_QueueWrite) refers to los_queue.o(i.osQueueWakeUp) for osQueueWakeUp
    los_queue.o(i.LOS_QueueWrite) refers to los_hwi.o(.data) for g_vuwIntCount
    los_queue.o(i.LOS_QueueWrite) refers to los_queue.o(.data) for g_pstAllQueue
    los_queue.o(i.LOS_QueueWrite) refers to los_task.o(.data) for g_usLosTaskLock
    los_queue.o(i.osQueueCreate) refers to memseta.o(.text) for __aeabi_memclr4
    los_queue.o(i.osQueueCreate) refers to los_memory.o(i.LOS_MemAlloc) for LOS_MemAlloc
    los_queue.o(i.osQueueCreate) refers to los_queue.o(.data) for g_pstAllQueue
    los_queue.o(i.osQueueCreate) refers to los_config.o(.data) for m_aucSysMem0
    los_queue.o(i.osQueueInit) refers to los_memory.o(i.LOS_MemAlloc) for LOS_MemAlloc
    los_queue.o(i.osQueueInit) refers to memseta.o(.text) for __aeabi_memclr4
    los_queue.o(i.osQueueInit) refers to los_config.o(.data) for m_aucSysMem0
    los_queue.o(i.osQueueInit) refers to los_queue.o(.data) for g_pstAllQueue
    los_queue.o(i.osQueueMailAlloc) refers to los_dispatch.o(KERNEL) for LOS_IntLock
    los_queue.o(i.osQueueMailAlloc) refers to los_membox.o(i.LOS_MemboxAlloc) for LOS_MemboxAlloc
    los_queue.o(i.osQueueMailAlloc) refers to los_queue.o(i.osQueuePend) for osQueuePend
    los_queue.o(i.osQueueMailAlloc) refers to los_hw.o(i.LOS_Schedule) for LOS_Schedule
    los_queue.o(i.osQueueMailAlloc) refers to los_hwi.o(.data) for g_vuwIntCount
    los_queue.o(i.osQueueMailAlloc) refers to los_queue.o(.data) for g_pstAllQueue
    los_queue.o(i.osQueueMailAlloc) refers to los_task.o(.data) for g_stLosTask
    los_queue.o(i.osQueueMailFree) refers to los_dispatch.o(KERNEL) for LOS_IntLock
    los_queue.o(i.osQueueMailFree) refers to los_membox.o(i.LOS_MemboxFree) for LOS_MemboxFree
    los_queue.o(i.osQueueMailFree) refers to los_queue.o(i.LOS_ListEmpty) for LOS_ListEmpty
    los_queue.o(i.osQueueMailFree) refers to los_queue.o(i.osQueueWakeUp) for osQueueWakeUp
    los_queue.o(i.osQueueMailFree) refers to los_membox.o(i.LOS_MemboxAlloc) for LOS_MemboxAlloc
    los_queue.o(i.osQueueMailFree) refers to los_hw.o(i.LOS_Schedule) for LOS_Schedule
    los_queue.o(i.osQueueMailFree) refers to los_queue.o(.data) for g_pstAllQueue
    los_queue.o(i.osQueuePend) refers to los_priqueue.o(i.LOS_PriqueueDequeue) for LOS_PriqueueDequeue
    los_queue.o(i.osQueuePend) refers to los_queue.o(i.LOS_ListEmpty) for LOS_ListEmpty
    los_queue.o(i.osQueuePend) refers to los_queue.o(i.LOS_ListAdd) for LOS_ListAdd
    los_queue.o(i.osQueuePend) refers to los_task.o(i.osTaskAdd2TimerList) for osTaskAdd2TimerList
    los_queue.o(i.osQueueWakeUp) refers to los_task.o(i.osTimerListDelete) for osTimerListDelete
    los_queue.o(i.osQueueWakeUp) refers to los_priqueue.o(i.LOS_PriqueueEnqueue) for LOS_PriqueueEnqueue
    los_sem.o(i.LOS_ListTailInsert) refers to los_sem.o(i.LOS_ListAdd) for LOS_ListAdd
    los_sem.o(i.LOS_SemCreate) refers to los_dispatch.o(KERNEL) for LOS_IntLock
    los_sem.o(i.LOS_SemCreate) refers to los_sem.o(i.LOS_ListEmpty) for LOS_ListEmpty
    los_sem.o(i.LOS_SemCreate) refers to los_sem.o(i.LOS_ListDelete) for LOS_ListDelete
    los_sem.o(i.LOS_SemCreate) refers to los_sem.o(i.LOS_ListInit) for LOS_ListInit
    los_sem.o(i.LOS_SemCreate) refers to los_sem.o(.data) for g_stUnusedSemList
    los_sem.o(i.LOS_SemDelete) refers to los_dispatch.o(KERNEL) for LOS_IntLock
    los_sem.o(i.LOS_SemDelete) refers to los_sem.o(i.LOS_ListEmpty) for LOS_ListEmpty
    los_sem.o(i.LOS_SemDelete) refers to los_sem.o(i.LOS_ListAdd) for LOS_ListAdd
    los_sem.o(i.LOS_SemDelete) refers to los_sem.o(.data) for g_pstAllSem
    los_sem.o(i.LOS_SemPend) refers to los_dispatch.o(KERNEL) for LOS_IntLock
    los_sem.o(i.LOS_SemPend) refers to los_priqueue.o(i.LOS_PriqueueDequeue) for LOS_PriqueueDequeue
    los_sem.o(i.LOS_SemPend) refers to los_sem.o(i.LOS_ListTailInsert) for LOS_ListTailInsert
    los_sem.o(i.LOS_SemPend) refers to los_task.o(i.osTaskAdd2TimerList) for osTaskAdd2TimerList
    los_sem.o(i.LOS_SemPend) refers to los_hw.o(i.LOS_Schedule) for LOS_Schedule
    los_sem.o(i.LOS_SemPend) refers to los_sem.o(.data) for g_pstAllSem
    los_sem.o(i.LOS_SemPend) refers to los_hwi.o(.data) for g_vuwIntCount
    los_sem.o(i.LOS_SemPend) refers to los_task.o(.data) for g_usLosTaskLock
    los_sem.o(i.LOS_SemPost) refers to los_dispatch.o(KERNEL) for LOS_IntLock
    los_sem.o(i.LOS_SemPost) refers to los_sem.o(i.LOS_ListEmpty) for LOS_ListEmpty
    los_sem.o(i.LOS_SemPost) refers to los_sem.o(i.LOS_ListDelete) for LOS_ListDelete
    los_sem.o(i.LOS_SemPost) refers to los_task.o(i.osTimerListDelete) for osTimerListDelete
    los_sem.o(i.LOS_SemPost) refers to los_priqueue.o(i.LOS_PriqueueEnqueue) for LOS_PriqueueEnqueue
    los_sem.o(i.LOS_SemPost) refers to los_hw.o(i.LOS_Schedule) for LOS_Schedule
    los_sem.o(i.LOS_SemPost) refers to los_sem.o(.data) for g_pstAllSem
    los_sem.o(i.osSemInit) refers to los_sem.o(i.LOS_ListInit) for LOS_ListInit
    los_sem.o(i.osSemInit) refers to los_memory.o(i.LOS_MemAlloc) for LOS_MemAlloc
    los_sem.o(i.osSemInit) refers to los_sem.o(i.LOS_ListTailInsert) for LOS_ListTailInsert
    los_sem.o(i.osSemInit) refers to los_sem.o(.data) for g_stUnusedSemList
    los_sem.o(i.osSemInit) refers to los_config.o(.data) for m_aucSysMem0
    los_membox.o(i.LOS_MemboxAlloc) refers to los_dispatch.o(KERNEL) for LOS_IntLock
    los_membox.o(i.LOS_MemboxClr) refers to memseta.o(.text) for __aeabi_memclr
    los_membox.o(i.LOS_MemboxFree) refers to los_dispatch.o(KERNEL) for LOS_IntLock
    los_membox.o(i.LOS_MemboxInit) refers to los_dispatch.o(KERNEL) for LOS_IntLock
    los_memory.o(i.LOS_MemAlloc) refers to los_dispatch.o(KERNEL) for LOS_IntLock
    los_memory.o(i.LOS_MemAlloc) refers to los_memory.o(i.osMemAllocWithCheck) for osMemAllocWithCheck
    los_memory.o(i.LOS_MemAllocAlign) refers to los_dispatch.o(KERNEL) for LOS_IntLock
    los_memory.o(i.LOS_MemAllocAlign) refers to los_memory.o(i.osMemAllocWithCheck) for osMemAllocWithCheck
    los_memory.o(i.LOS_MemFree) refers to los_dispatch.o(KERNEL) for LOS_IntLock
    los_memory.o(i.LOS_MemFree) refers to los_memory.o(i.osMemCheckUsedNode) for osMemCheckUsedNode
    los_memory.o(i.LOS_MemFree) refers to los_memory.o(i.osMemFreeNode) for osMemFreeNode
    los_memory.o(i.LOS_MemInit) refers to los_dispatch.o(KERNEL) for LOS_IntLock
    los_memory.o(i.LOS_MemInit) refers to los_multipledlinkhead.o(i.LOS_DLnkInitMultiHead) for LOS_DLnkInitMultiHead
    los_memory.o(i.LOS_MemInit) refers to los_multipledlinkhead.o(i.LOS_DLnkMultiHead) for LOS_DLnkMultiHead
    los_memory.o(i.LOS_MemInit) refers to los_memory.o(i.LOS_ListAdd) for LOS_ListAdd
    los_memory.o(i.LOS_MemInit) refers to los_memory.o(i.osMemSetMagicNumAndTaskid) for osMemSetMagicNumAndTaskid
    los_memory.o(i.LOS_MemRealloc) refers to los_dispatch.o(KERNEL) for LOS_IntLock
    los_memory.o(i.LOS_MemRealloc) refers to los_memory.o(i.LOS_MemAlloc) for LOS_MemAlloc
    los_memory.o(i.LOS_MemRealloc) refers to los_memory.o(i.LOS_MemFree) for LOS_MemFree
    los_memory.o(i.LOS_MemRealloc) refers to los_memory.o(i.osMemCheckUsedNode) for osMemCheckUsedNode
    los_memory.o(i.LOS_MemRealloc) refers to los_memory.o(i.osMemSpitNode) for osMemSpitNode
    los_memory.o(i.LOS_MemRealloc) refers to los_memstat.o(i.osTaskMemUsedDec) for osTaskMemUsedDec
    los_memory.o(i.LOS_MemRealloc) refers to los_memory.o(i.LOS_ListDelete) for LOS_ListDelete
    los_memory.o(i.LOS_MemRealloc) refers to los_memory.o(i.osMemMergeNode) for osMemMergeNode
    los_memory.o(i.LOS_MemRealloc) refers to los_memstat.o(i.osTaskMemUsedInc) for osTaskMemUsedInc
    los_memory.o(i.LOS_MemRealloc) refers to los_memory.o(i.osMemAllocWithCheck) for osMemAllocWithCheck
    los_memory.o(i.LOS_MemRealloc) refers to memcpya.o(.text) for __aeabi_memcpy
    los_memory.o(i.LOS_MemRealloc) refers to los_memory.o(i.osMemFreeNode) for osMemFreeNode
    los_memory.o(i.osMemAllocWithCheck) refers to los_memory.o(i.osMemFindSuitableFreeBlock) for osMemFindSuitableFreeBlock
    los_memory.o(i.osMemAllocWithCheck) refers to los_memory.o(i.osMemSpitNode) for osMemSpitNode
    los_memory.o(i.osMemAllocWithCheck) refers to los_memory.o(i.LOS_ListDelete) for LOS_ListDelete
    los_memory.o(i.osMemAllocWithCheck) refers to los_memory.o(i.osMemSetMagicNumAndTaskid) for osMemSetMagicNumAndTaskid
    los_memory.o(i.osMemAllocWithCheck) refers to los_memstat.o(i.osTaskMemUsedInc) for osTaskMemUsedInc
    los_memory.o(i.osMemCheckUsedNode) refers to los_memory.o(i.osMemIsNodeValid) for osMemIsNodeValid
    los_memory.o(i.osMemFindSuitableFreeBlock) refers to los_multipledlinkhead.o(i.LOS_DLnkMultiHead) for LOS_DLnkMultiHead
    los_memory.o(i.osMemFreeNode) refers to los_memstat.o(i.osTaskMemUsedDec) for osTaskMemUsedDec
    los_memory.o(i.osMemFreeNode) refers to los_memory.o(i.osMemMergeNode) for osMemMergeNode
    los_memory.o(i.osMemFreeNode) refers to los_memory.o(i.LOS_ListDelete) for LOS_ListDelete
    los_memory.o(i.osMemFreeNode) refers to los_multipledlinkhead.o(i.LOS_DLnkMultiHead) for LOS_DLnkMultiHead
    los_memory.o(i.osMemFreeNode) refers to los_memory.o(i.LOS_ListAdd) for LOS_ListAdd
    los_memory.o(i.osMemSetMagicNumAndTaskid) refers to los_task.o(.data) for g_stLosTask
    los_memory.o(i.osMemSpitNode) refers to los_memory.o(i.LOS_ListDelete) for LOS_ListDelete
    los_memory.o(i.osMemSpitNode) refers to los_memory.o(i.osMemMergeNode) for osMemMergeNode
    los_memory.o(i.osMemSpitNode) refers to los_multipledlinkhead.o(i.LOS_DLnkMultiHead) for LOS_DLnkMultiHead
    los_memory.o(i.osMemSpitNode) refers to los_memory.o(i.LOS_ListAdd) for LOS_ListAdd
    los_memory.o(i.osMemSystemInit) refers to los_memory.o(i.LOS_MemInit) for LOS_MemInit
    los_memory.o(i.osMemSystemInit) refers to los_memory.o(.bss) for g_ucMemStart
    los_memory.o(i.osMemSystemInit) refers to los_config.o(.data) for m_aucSysMem0
    los_memstat.o(i.osTaskMemUsage) refers to los_memstat.o(.bss) for g_TskMemUsedInfo
    los_memstat.o(i.osTaskMemUsedDec) refers to los_task.o(.data) for g_stLosTask
    los_memstat.o(i.osTaskMemUsedDec) refers to los_hwi.o(.data) for g_vuwIntCount
    los_memstat.o(i.osTaskMemUsedDec) refers to los_memstat.o(.bss) for g_TskMemUsedInfo
    los_memstat.o(i.osTaskMemUsedInc) refers to los_task.o(.data) for g_stLosTask
    los_memstat.o(i.osTaskMemUsedInc) refers to los_hwi.o(.data) for g_vuwIntCount
    los_memstat.o(i.osTaskMemUsedInc) refers to los_memstat.o(.bss) for g_TskMemUsedInfo
    los_multipledlinkhead.o(i.LOS_DLnkMultiHead) refers to los_multipledlinkhead.o(i.LOS_Log2) for LOS_Log2
    los_misc.o(i.LOS_Msleep) refers to los_sys.o(i.LOS_MS2Tick) for LOS_MS2Tick
    los_misc.o(i.LOS_Msleep) refers to los_task.o(i.LOS_TaskDelay) for LOS_TaskDelay
    los_misc.o(i.LOS_Msleep) refers to los_hwi.o(.data) for g_vuwIntCount
    los_config.o(i.LOS_Start) refers to los_hw_tick.o(i.osTickStart) for osTickStart
    los_config.o(i.LOS_Start) refers to los_dispatch.o(.text) for LOS_StartToRun
    los_config.o(i.main) refers to los_config.o(i.osMain) for osMain
    los_config.o(i.main) refers to main.o(i.osAppInit) for osAppInit
    los_config.o(i.main) refers to los_config.o(i.LOS_Start) for LOS_Start
    los_config.o(i.osMain) refers to los_config.o(i.osRegister) for osRegister
    los_config.o(i.osMain) refers to los_memory.o(i.osMemSystemInit) for osMemSystemInit
    los_config.o(i.osMain) refers to los_hwi.o(i.osHwiInit) for osHwiInit
    los_config.o(i.osMain) refers to los_task.o(i.osTaskInit) for osTaskInit
    los_config.o(i.osMain) refers to los_sem.o(i.osSemInit) for osSemInit
    los_config.o(i.osMain) refers to los_mux.o(i.osMuxInit) for osMuxInit
    los_config.o(i.osMain) refers to los_queue.o(i.osQueueInit) for osQueueInit
    los_config.o(i.osMain) refers to los_swtmr.o(i.osSwTmrInit) for osSwTmrInit
    los_config.o(i.osMain) refers to los_timeslice.o(i.osTimesliceInit) for osTimesliceInit
    los_config.o(i.osMain) refers to los_task.o(i.osIdleTaskCreate) for osIdleTaskCreate
    los_config.o(i.osRegister) refers to los_task.o(.data) for g_uwTskMaxNum
    los_config.o(i.osRegister) refers to los_memory.o(.bss) for g_ucMemStart
    los_config.o(i.osRegister) refers to los_config.o(.data) for g_sys_mem_addr_end
    los_hw.o(i.LOS_Schedule) refers to los_dispatch.o(KERNEL) for LOS_IntLock
    los_hw.o(i.LOS_Schedule) refers to los_priqueue.o(i.LOS_PriqueueTop) for LOS_PriqueueTop
    los_hw.o(i.LOS_Schedule) refers to los_task.o(.data) for g_stLosTask
    los_hw.o(i.osSchedule) refers to los_dispatch.o(KERNEL) for osTaskSchedule
    los_hw.o(i.osTskStackInit) refers to los_hw.o(i.osTaskExit) for osTaskExit
    los_hw.o(i.osTskStackInit) refers to los_task.o(i.osTaskEntry) for osTaskEntry
    los_hw_tick.o(i.LOS_GetCpuCycle) refers to los_dispatch.o(KERNEL) for LOS_IntLock
    los_hw_tick.o(i.LOS_GetCpuCycle) refers to los_tick.o(.data) for g_ullTickCount
    los_hw_tick.o(i.LOS_GetCpuCycle) refers to los_hw_tick.o(.data) for g_uwCyclesPerTick
    los_hw_tick.o(i.osTickStart) refers to los_hwi.o(i.osInterrupt) for osInterrupt
    los_hw_tick.o(i.osTickStart) refers to los_hwi.o(.vector.bss) for m_pstHwiForm
    los_hw_tick.o(i.osTickStart) refers to los_tick.o(i.SysTick_Handler) for SysTick_Handler
    los_hw_tick.o(i.osTickStart) refers to los_hwi.o(.bss) for m_pstHwiSlaveForm
    los_hw_tick.o(i.osTickStart) refers to los_hw_tick.o(.data) for g_uwCyclesPerTick
    los_hw_tick.o(i.osTickStart) refers to los_tick.o(.data) for g_ullTickCount
    los_hwi.o(i.LOS_HwiCreate) refers to los_dispatch.o(KERNEL) for LOS_IntLock
    los_hwi.o(i.LOS_HwiCreate) refers to los_hwi.o(.vector.bss) for m_pstHwiForm
    los_hwi.o(i.LOS_HwiCreate) refers to los_hwi.o(i.osHwiDefaultHandler) for osHwiDefaultHandler
    los_hwi.o(i.LOS_HwiCreate) refers to los_hwi.o(i.osInterrupt) for osInterrupt
    los_hwi.o(i.LOS_HwiCreate) refers to los_hwi.o(.bss) for m_pstHwiSlaveForm
    los_hwi.o(i.LOS_HwiDelete) refers to los_dispatch.o(KERNEL) for LOS_IntLock
    los_hwi.o(i.LOS_HwiDelete) refers to los_hwi.o(i.osHwiDefaultHandler) for osHwiDefaultHandler
    los_hwi.o(i.LOS_HwiDelete) refers to los_hwi.o(.vector.bss) for m_pstHwiForm
    los_hwi.o(i.osHwiDefaultHandler) refers to los_hwi.o(.emb_text) for osIntNumGet
    los_hwi.o(i.osHwiInit) refers to los_hwi.o(i.osHwiDefaultHandler) for osHwiDefaultHandler
    los_hwi.o(i.osHwiInit) refers to los_hwi.o(.vector.bss) for m_pstHwiForm
    los_hwi.o(i.osInterrupt) refers to los_dispatch.o(KERNEL) for LOS_IntLock
    los_hwi.o(i.osInterrupt) refers to los_hwi.o(.emb_text) for osIntNumGet
    los_hwi.o(i.osInterrupt) refers to los_hwi.o(.data) for g_vuwIntCount
    los_hwi.o(i.osInterrupt) refers to los_hwi.o(.bss) for m_pstHwiSlaveForm
    los_hwi.o(.vector.bss) refers to startup_stm32f10x_md.o(.text) for Reset_Handler
    los_hwi.o(.vector.bss) refers to los_hwi.o(i.osHwiDefaultHandler) for osHwiDefaultHandler
    los_hwi.o(.vector.bss) refers to los_dispatch.o(KERNEL) for PendSV_Handler
    los_dispatch.o(.text) refers to los_task.o(.data) for g_bTaskScheduled
    los_dispatch.o(KERNEL) refers to los_task.o(.data) for g_pfnTskSwitchHook
    mcu_init.o(i.NVIC_Configuration) refers to misc.o(i.NVIC_PriorityGroupConfig) for NVIC_PriorityGroupConfig
    mcu_init.o(i.NVIC_Configuration) refers to misc.o(i.NVIC_Init) for NVIC_Init
    mcu_init.o(i.NVIC_Configuration) refers to stm32f10x_gpio.o(i.GPIO_EXTILineConfig) for GPIO_EXTILineConfig
    mcu_init.o(i.NVIC_Configuration) refers to misc.o(i.NVIC_SetVectorTable) for NVIC_SetVectorTable
    mcu_init.o(i.RCC_Configuration) refers to stm32f10x_rcc.o(i.RCC_DeInit) for RCC_DeInit
    mcu_init.o(i.RCC_Configuration) refers to stm32f10x_rcc.o(i.RCC_HSEConfig) for RCC_HSEConfig
    mcu_init.o(i.RCC_Configuration) refers to stm32f10x_rcc.o(i.RCC_WaitForHSEStartUp) for RCC_WaitForHSEStartUp
    mcu_init.o(i.RCC_Configuration) refers to stm32f10x_flash.o(i.FLASH_PrefetchBufferCmd) for FLASH_PrefetchBufferCmd
    mcu_init.o(i.RCC_Configuration) refers to stm32f10x_flash.o(i.FLASH_SetLatency) for FLASH_SetLatency
    mcu_init.o(i.RCC_Configuration) refers to stm32f10x_rcc.o(i.RCC_HCLKConfig) for RCC_HCLKConfig
    mcu_init.o(i.RCC_Configuration) refers to stm32f10x_rcc.o(i.RCC_PCLK2Config) for RCC_PCLK2Config
    mcu_init.o(i.RCC_Configuration) refers to stm32f10x_rcc.o(i.RCC_PCLK1Config) for RCC_PCLK1Config
    mcu_init.o(i.RCC_Configuration) refers to stm32f10x_rcc.o(i.RCC_PLLConfig) for RCC_PLLConfig
    mcu_init.o(i.RCC_Configuration) refers to stm32f10x_rcc.o(i.RCC_PLLCmd) for RCC_PLLCmd
    mcu_init.o(i.RCC_Configuration) refers to stm32f10x_rcc.o(i.RCC_ADCCLKConfig) for RCC_ADCCLKConfig
    mcu_init.o(i.RCC_Configuration) refers to stm32f10x_rcc.o(i.RCC_GetFlagStatus) for RCC_GetFlagStatus
    mcu_init.o(i.RCC_Configuration) refers to stm32f10x_rcc.o(i.RCC_SYSCLKConfig) for RCC_SYSCLKConfig
    mcu_init.o(i.RCC_Configuration) refers to stm32f10x_rcc.o(i.RCC_GetSYSCLKSource) for RCC_GetSYSCLKSource
    mcu_init.o(i.RCC_Configuration) refers to stm32f10x_rcc.o(i.RCC_APB1PeriphClockCmd) for RCC_APB1PeriphClockCmd
    mcu_init.o(i.RCC_Configuration) refers to stm32f10x_rcc.o(i.RCC_APB2PeriphClockCmd) for RCC_APB2PeriphClockCmd
    ult.o(i.ATOI) refers to ult.o(i.C2D) for C2D
    ult.o(i.ATOI32) refers to ult.o(i.C2D) for C2D
    ult.o(i.ValidATOI) refers to ult.o(i.C2D) for C2D
    ult.o(i.ValidATOI) refers to ult.o(i.ATOI) for ATOI
    ult.o(i.delay_s) refers to ult.o(i.delay_ms) for delay_ms
    ult.o(i.inet_addr_) refers to strcpy.o(.text) for strcpy
    ult.o(i.inet_addr_) refers to strtok.o(.text) for strtok
    ult.o(i.inet_addr_) refers to ult.o(i.ATOI) for ATOI
    ult.o(i.itoa) refers to memseta.o(.text) for __aeabi_memset
    ult.o(i.mid) refers to strstr.o(.text) for strstr
    ult.o(i.mid) refers to strlen.o(.text) for strlen
    ult.o(i.mid) refers to strncpy.o(.text) for strncpy
    usart2.o(i.USART2_IRQHandler) refers to stm32f10x_usart.o(i.USART_GetITStatus) for USART_GetITStatus
    usart2.o(i.USART2_IRQHandler) refers to stm32f10x_usart.o(i.USART_ITConfig) for USART_ITConfig
    usart2.o(i.USART2_IRQHandler) refers to stm32f10x_usart.o(i.USART_SendData) for USART_SendData
    usart2.o(i.USART2_IRQHandler) refers to stm32f10x_usart.o(i.USART_GetFlagStatus) for USART_GetFlagStatus
    usart2.o(i.USART2_Putc) refers to stm32f10x_usart.o(i.USART_SendData) for USART_SendData
    usart2.o(i.USART2_Putc) refers to stm32f10x_usart.o(i.USART_GetFlagStatus) for USART_GetFlagStatus
    usart2.o(i.USART2_Puts) refers to stm32f10x_usart.o(i.USART_SendData) for USART_SendData
    usart2.o(i.USART2_Puts) refers to stm32f10x_usart.o(i.USART_GetFlagStatus) for USART_GetFlagStatus
    usart2.o(i.usart2_init) refers to stm32f10x_rcc.o(i.RCC_APB2PeriphClockCmd) for RCC_APB2PeriphClockCmd
    usart2.o(i.usart2_init) refers to stm32f10x_rcc.o(i.RCC_APB1PeriphClockCmd) for RCC_APB1PeriphClockCmd
    usart2.o(i.usart2_init) refers to stm32f10x_usart.o(i.USART_DeInit) for USART_DeInit
    usart2.o(i.usart2_init) refers to stm32f10x_gpio.o(i.GPIO_Init) for GPIO_Init
    usart2.o(i.usart2_init) refers to stm32f10x_usart.o(i.USART_ITConfig) for USART_ITConfig
    usart2.o(i.usart2_init) refers to stm32f10x_usart.o(i.USART_Init) for USART_Init
    usart2.o(i.usart2_init) refers to stm32f10x_usart.o(i.USART_Cmd) for USART_Cmd
    usart2.o(i.usart2_printf) refers to printfa.o(i.__0vsprintf) for vsprintf
    usart2.o(i.usart2_printf) refers to strlen.o(.text) for strlen
    usart2.o(i.usart2_printf) refers to stm32f10x_usart.o(i.USART_GetFlagStatus) for USART_GetFlagStatus
    usart2.o(i.usart2_printf) refers to stm32f10x_usart.o(i.USART_SendData) for USART_SendData
    usart2.o(i.usart2_printf) refers to usart2.o(.bss) for USART2_TX_BUF
    sht10.o(i.SHT10_Config) refers to stm32f10x_rcc.o(i.RCC_APB2PeriphClockCmd) for RCC_APB2PeriphClockCmd
    sht10.o(i.SHT10_Config) refers to stm32f10x_gpio.o(i.GPIO_Init) for GPIO_Init
    sht10.o(i.SHT10_Config) refers to sht10.o(i.sht10_conreset) for sht10_conreset
    sht10.o(i.SHT10_DATAIn) refers to stm32f10x_gpio.o(i.GPIO_Init) for GPIO_Init
    sht10.o(i.SHT10_DATAOut) refers to stm32f10x_gpio.o(i.GPIO_Init) for GPIO_Init
    sht10.o(i.SHT10_ReadByte) refers to sht10.o(i.SHT10_DATAIn) for SHT10_DATAIn
    sht10.o(i.SHT10_ReadByte) refers to sht10.o(i.SHT10_Dly) for SHT10_Dly
    sht10.o(i.SHT10_ReadByte) refers to stm32f10x_gpio.o(i.GPIO_SetBits) for GPIO_SetBits
    sht10.o(i.SHT10_ReadByte) refers to stm32f10x_gpio.o(i.GPIO_ReadInputDataBit) for GPIO_ReadInputDataBit
    sht10.o(i.SHT10_ReadByte) refers to stm32f10x_gpio.o(i.GPIO_ResetBits) for GPIO_ResetBits
    sht10.o(i.SHT10_ReadByte) refers to sht10.o(i.SHT10_DATAOut) for SHT10_DATAOut
    sht10.o(i.SHT10_ReadStatusReg) refers to sht10.o(i.SHT10_TransStart) for SHT10_TransStart
    sht10.o(i.SHT10_ReadStatusReg) refers to sht10.o(i.SHT10_WriteByte) for SHT10_WriteByte
    sht10.o(i.SHT10_ReadStatusReg) refers to sht10.o(i.SHT10_ReadByte) for SHT10_ReadByte
    sht10.o(i.SHT10_SoftReset) refers to sht10.o(i.sht10_conreset) for sht10_conreset
    sht10.o(i.SHT10_SoftReset) refers to sht10.o(i.SHT10_WriteByte) for SHT10_WriteByte
    sht10.o(i.SHT10_TransStart) refers to sht10.o(i.SHT10_DATAOut) for SHT10_DATAOut
    sht10.o(i.SHT10_TransStart) refers to stm32f10x_gpio.o(i.GPIO_SetBits) for GPIO_SetBits
    sht10.o(i.SHT10_TransStart) refers to stm32f10x_gpio.o(i.GPIO_ResetBits) for GPIO_ResetBits
    sht10.o(i.SHT10_TransStart) refers to sht10.o(i.SHT10_Dly) for SHT10_Dly
    sht10.o(i.SHT10_WriteByte) refers to sht10.o(i.SHT10_DATAOut) for SHT10_DATAOut
    sht10.o(i.SHT10_WriteByte) refers to stm32f10x_gpio.o(i.GPIO_SetBits) for GPIO_SetBits
    sht10.o(i.SHT10_WriteByte) refers to stm32f10x_gpio.o(i.GPIO_ResetBits) for GPIO_ResetBits
    sht10.o(i.SHT10_WriteByte) refers to sht10.o(i.SHT10_Dly) for SHT10_Dly
    sht10.o(i.SHT10_WriteByte) refers to sht10.o(i.SHT10_DATAIn) for SHT10_DATAIn
    sht10.o(i.SHT10_WriteByte) refers to stm32f10x_gpio.o(i.GPIO_ReadInputDataBit) for GPIO_ReadInputDataBit
    sht10.o(i.SHT10_WriteStatusReg) refers to sht10.o(i.SHT10_TransStart) for SHT10_TransStart
    sht10.o(i.SHT10_WriteStatusReg) refers to sht10.o(i.SHT10_WriteByte) for SHT10_WriteByte
    sht10.o(i.crc8_check) refers to sht10.o(.constdata) for crc8_code
    sht10.o(i.sht10_calcu_dewpoint) refers to f2d.o(.text) for __aeabi_f2d
    sht10.o(i.sht10_calcu_dewpoint) refers to log10.o(i.log10) for log10
    sht10.o(i.sht10_calcu_dewpoint) refers to dadd.o(.text) for __aeabi_dsub
    sht10.o(i.sht10_calcu_dewpoint) refers to dmul.o(.text) for __aeabi_dmul
    sht10.o(i.sht10_calcu_dewpoint) refers to ddiv.o(.text) for __aeabi_ddiv
    sht10.o(i.sht10_calcu_dewpoint) refers to d2f.o(.text) for __aeabi_d2f
    sht10.o(i.sht10_calculate) refers to ffltui.o(.text) for __aeabi_ui2f
    sht10.o(i.sht10_calculate) refers to fmul.o(.text) for __aeabi_fmul
    sht10.o(i.sht10_calculate) refers to fadd.o(.text) for __aeabi_fadd
    sht10.o(i.sht10_calculate) refers to cfrcmple.o(.text) for __aeabi_cfrcmple
    sht10.o(i.sht10_calculate) refers to f2d.o(.text) for __aeabi_f2d
    sht10.o(i.sht10_calculate) refers to cdcmple.o(.text) for __aeabi_cdcmple
    sht10.o(i.sht10_conreset) refers to sht10.o(i.SHT10_DATAOut) for SHT10_DATAOut
    sht10.o(i.sht10_conreset) refers to stm32f10x_gpio.o(i.GPIO_SetBits) for GPIO_SetBits
    sht10.o(i.sht10_conreset) refers to stm32f10x_gpio.o(i.GPIO_ResetBits) for GPIO_ResetBits
    sht10.o(i.sht10_conreset) refers to sht10.o(i.SHT10_Dly) for SHT10_Dly
    sht10.o(i.sht10_conreset) refers to sht10.o(i.SHT10_TransStart) for SHT10_TransStart
    sht10.o(i.sht10_init) refers to sht10.o(i.SHT10_Config) for SHT10_Config
    sht10.o(i.sht10_init) refers to sht10.o(i.SHT10_SoftReset) for SHT10_SoftReset
    sht10.o(i.sht10_init) refers to _xassert.o(i._xassert) for _xassert
    sht10.o(i.sht10_init) refers to ult.o(i.delay_ms) for delay_ms
    sht10.o(i.sht10_measure) refers to sht10.o(i.SHT10_TransStart) for SHT10_TransStart
    sht10.o(i.sht10_measure) refers to sht10.o(i.SHT10_WriteByte) for SHT10_WriteByte
    sht10.o(i.sht10_measure) refers to sht10.o(i.SHT10_DATAIn) for SHT10_DATAIn
    sht10.o(i.sht10_measure) refers to stm32f10x_gpio.o(i.GPIO_ReadInputDataBit) for GPIO_ReadInputDataBit
    sht10.o(i.sht10_measure) refers to _xassert.o(i._xassert) for _xassert
    sht10.o(i.sht10_measure) refers to sht10.o(i.SHT10_ReadByte) for SHT10_ReadByte
    sht10.o(i.sht10_measure) refers to sht10.o(i.crc8_check) for crc8_check
    sht10.o(i.sht10_measure) refers to sht10.o(i.reverse_bit) for reverse_bit
    bh1750_s.o(i.Cmd_Write_BH1750) refers to i2c_s.o(i.I2C_Start) for I2C_Start
    bh1750_s.o(i.Cmd_Write_BH1750) refers to i2c_s.o(i.I2C_Send_Byte) for I2C_Send_Byte
    bh1750_s.o(i.Cmd_Write_BH1750) refers to i2c_s.o(i.I2C_Wait_Ack) for I2C_Wait_Ack
    bh1750_s.o(i.Cmd_Write_BH1750) refers to i2c_s.o(i.I2C_Stop) for I2C_Stop
    bh1750_s.o(i.Cmd_Write_BH1750) refers to ult.o(i.delay_ms) for delay_ms
    bh1750_s.o(i.Convert_BH1750) refers to ffltui.o(.text) for __aeabi_ui2f
    bh1750_s.o(i.Convert_BH1750) refers to f2d.o(.text) for __aeabi_f2d
    bh1750_s.o(i.Convert_BH1750) refers to ddiv.o(.text) for __aeabi_ddiv
    bh1750_s.o(i.Convert_BH1750) refers to d2f.o(.text) for __aeabi_d2f
    bh1750_s.o(i.Convert_BH1750) refers to bh1750_s.o(.data) for BUF
    bh1750_s.o(i.Init_BH1750) refers to i2c_s.o(i.i2c_Port_Init) for i2c_Port_Init
    bh1750_s.o(i.Read_BH1750) refers to i2c_s.o(i.I2C_Start) for I2C_Start
    bh1750_s.o(i.Read_BH1750) refers to i2c_s.o(i.I2C_Send_Byte) for I2C_Send_Byte
    bh1750_s.o(i.Read_BH1750) refers to i2c_s.o(i.I2C_Wait_Ack) for I2C_Wait_Ack
    bh1750_s.o(i.Read_BH1750) refers to i2c_s.o(i.I2C_Read_Byte) for I2C_Read_Byte
    bh1750_s.o(i.Read_BH1750) refers to i2c_s.o(i.I2C_Stop) for I2C_Stop
    bh1750_s.o(i.Read_BH1750) refers to ult.o(i.delay_ms) for delay_ms
    bh1750_s.o(i.Read_BH1750) refers to bh1750_s.o(.data) for BUF
    bh1750_s.o(i.Start_BH1750) refers to bh1750_s.o(i.Cmd_Write_BH1750) for Cmd_Write_BH1750
    bh1750_s.o(i.get_lux_val) refers to bh1750_s.o(i.Init_BH1750) for Init_BH1750
    bh1750_s.o(i.get_lux_val) refers to bh1750_s.o(i.Start_BH1750) for Start_BH1750
    bh1750_s.o(i.get_lux_val) refers to los_task.o(i.LOS_TaskDelay) for LOS_TaskDelay
    bh1750_s.o(i.get_lux_val) refers to bh1750_s.o(i.Read_BH1750) for Read_BH1750
    bh1750_s.o(i.get_lux_val) refers to bh1750_s.o(i.Convert_BH1750) for Convert_BH1750
    bh1750_s.o(i.get_lux_val) refers to ffixui.o(.text) for __aeabi_f2uiz
    bh1750_s.o(i.get_lux_val) refers to bh1750_s.o(.data) for result_lx
    i2c_s.o(i.I2C_Ack) refers to i2c_s.o(i.SDA_OUT) for SDA_OUT
    i2c_s.o(i.I2C_Ack) refers to ult.o(i.delay_us) for delay_us
    i2c_s.o(i.I2C_NAck) refers to i2c_s.o(i.SDA_OUT) for SDA_OUT
    i2c_s.o(i.I2C_NAck) refers to ult.o(i.delay_us) for delay_us
    i2c_s.o(i.I2C_Read_Byte) refers to i2c_s.o(i.SDA_IN) for SDA_IN
    i2c_s.o(i.I2C_Read_Byte) refers to ult.o(i.delay_us) for delay_us
    i2c_s.o(i.I2C_Read_Byte) refers to i2c_s.o(i.I2C_NAck) for I2C_NAck
    i2c_s.o(i.I2C_Read_Byte) refers to i2c_s.o(i.I2C_Ack) for I2C_Ack
    i2c_s.o(i.I2C_Send_Byte) refers to i2c_s.o(i.SDA_OUT) for SDA_OUT
    i2c_s.o(i.I2C_Send_Byte) refers to ult.o(i.delay_us) for delay_us
    i2c_s.o(i.I2C_Start) refers to i2c_s.o(i.SDA_OUT) for SDA_OUT
    i2c_s.o(i.I2C_Start) refers to ult.o(i.delay_us) for delay_us
    i2c_s.o(i.I2C_Stop) refers to i2c_s.o(i.SDA_OUT) for SDA_OUT
    i2c_s.o(i.I2C_Stop) refers to ult.o(i.delay_us) for delay_us
    i2c_s.o(i.I2C_Wait_Ack) refers to ult.o(i.delay_us) for delay_us
    i2c_s.o(i.I2C_Wait_Ack) refers to i2c_s.o(i.SDA_IN) for SDA_IN
    i2c_s.o(i.I2C_Wait_Ack) refers to i2c_s.o(i.I2C_Stop) for I2C_Stop
    i2c_s.o(i.SDA_IN) refers to stm32f10x_gpio.o(i.GPIO_Init) for GPIO_Init
    i2c_s.o(i.SDA_OUT) refers to stm32f10x_gpio.o(i.GPIO_Init) for GPIO_Init
    i2c_s.o(i.i2c_Port_Init) refers to stm32f10x_rcc.o(i.RCC_APB2PeriphClockCmd) for RCC_APB2PeriphClockCmd
    i2c_s.o(i.i2c_Port_Init) refers to stm32f10x_gpio.o(i.GPIO_Init) for GPIO_Init
    usart.o(i.USART1_IRQHandler) refers to stm32f10x_usart.o(i.USART_GetITStatus) for USART_GetITStatus
    usart.o(i.USART1_IRQHandler) refers to stm32f10x_usart.o(i.USART_ITConfig) for USART_ITConfig
    usart.o(i.USART1_IRQHandler) refers to stm32f10x_usart.o(i.USART_ReceiveData) for USART_ReceiveData
    usart.o(i.USART1_IRQHandler) refers to stm32f10x_usart.o(i.USART_SendData) for USART_SendData
    usart.o(i.USART1_IRQHandler) refers to stm32f10x_usart.o(i.USART_GetFlagStatus) for USART_GetFlagStatus
    usart.o(i.USART1_Init) refers to stm32f10x_rcc.o(i.RCC_APB2PeriphClockCmd) for RCC_APB2PeriphClockCmd
    usart.o(i.USART1_Init) refers to stm32f10x_gpio.o(i.GPIO_Init) for GPIO_Init
    usart.o(i.USART1_Init) refers to stm32f10x_usart.o(i.USART_ITConfig) for USART_ITConfig
    usart.o(i.USART1_Init) refers to stm32f10x_usart.o(i.USART_Init) for USART_Init
    usart.o(i.USART1_Init) refers to stm32f10x_usart.o(i.USART_Cmd) for USART_Cmd
    usart.o(i.USART1_Putc) refers to stm32f10x_usart.o(i.USART_SendData) for USART_SendData
    usart.o(i.USART1_Putc) refers to stm32f10x_usart.o(i.USART_GetFlagStatus) for USART_GetFlagStatus
    usart.o(i.USART1_Puts) refers to stm32f10x_usart.o(i.USART_SendData) for USART_SendData
    usart.o(i.USART1_Puts) refers to stm32f10x_usart.o(i.USART_GetFlagStatus) for USART_GetFlagStatus
    usart.o(i.fputc) refers to stm32f10x_usart.o(i.USART_SendData) for USART_SendData
    usart.o(i.fputc) refers to stm32f10x_usart.o(i.USART_GetFlagStatus) for USART_GetFlagStatus
    usart.o(i.usart1_init) refers to usart.o(i.USART1_Init) for USART1_Init
    usart.o(i.usart1_send_nbyte) refers to usart.o(i.USART1_Putc) for USART1_Putc
    usart3.o(i.USART3_IRQHandler) refers to timer.o(i.timer2_enable) for timer2_enable
    usart3.o(i.USART3_IRQHandler) refers to stm32f10x_usart.o(i.USART_GetITStatus) for USART_GetITStatus
    usart3.o(i.USART3_IRQHandler) refers to stm32f10x_usart.o(i.USART_ITConfig) for USART_ITConfig
    usart3.o(i.USART3_IRQHandler) refers to stm32f10x_usart.o(i.USART_ReceiveData) for USART_ReceiveData
    usart3.o(i.USART3_IRQHandler) refers to usart3.o(.bss) for USART3_RX_BUF
    usart3.o(i.USART3_IRQHandler) refers to usart3.o(.data) for rx_buf_len
    usart3.o(i.USART3_Putc) refers to stm32f10x_usart.o(i.USART_SendData) for USART_SendData
    usart3.o(i.USART3_Putc) refers to stm32f10x_usart.o(i.USART_GetFlagStatus) for USART_GetFlagStatus
    usart3.o(i.usart3_init) refers to stm32f10x_rcc.o(i.RCC_APB2PeriphClockCmd) for RCC_APB2PeriphClockCmd
    usart3.o(i.usart3_init) refers to stm32f10x_rcc.o(i.RCC_APB1PeriphClockCmd) for RCC_APB1PeriphClockCmd
    usart3.o(i.usart3_init) refers to stm32f10x_usart.o(i.USART_DeInit) for USART_DeInit
    usart3.o(i.usart3_init) refers to stm32f10x_gpio.o(i.GPIO_Init) for GPIO_Init
    usart3.o(i.usart3_init) refers to stm32f10x_usart.o(i.USART_Init) for USART_Init
    usart3.o(i.usart3_init) refers to stm32f10x_usart.o(i.USART_Cmd) for USART_Cmd
    usart3.o(i.usart3_init) refers to memseta.o(.text) for __aeabi_memset
    usart3.o(i.usart3_init) refers to usart3.o(.bss) for USART3_RX_BUF
    usart3.o(i.usart3_printf) refers to printfa.o(i.__0vsprintf) for vsprintf
    usart3.o(i.usart3_printf) refers to strlen.o(.text) for strlen
    usart3.o(i.usart3_printf) refers to stm32f10x_usart.o(i.USART_GetFlagStatus) for USART_GetFlagStatus
    usart3.o(i.usart3_printf) refers to stm32f10x_usart.o(i.USART_SendData) for USART_SendData
    usart3.o(i.usart3_printf) refers to usart3.o(.bss) for USART3_TX_BUF
    usart3.o(i.usart3_rx_disable) refers to stm32f10x_usart.o(i.USART_ITConfig) for USART_ITConfig
    usart3.o(i.usart3_rx_enable) refers to stm32f10x_usart.o(i.USART_ITConfig) for USART_ITConfig
    usart3.o(i.usart3_send_nbyte) refers to usart3.o(i.USART3_Putc) for USART3_Putc
    timer.o(i.TIM2_IRQHandler) refers to stm32f10x_tim.o(i.TIM_GetITStatus) for TIM_GetITStatus
    timer.o(i.TIM2_IRQHandler) refers to stm32f10x_tim.o(i.TIM_ClearITPendingBit) for TIM_ClearITPendingBit
    timer.o(i.TIM2_IRQHandler) refers to timer.o(i.time2_disable) for time2_disable
    timer.o(i.TIM2_IRQHandler) refers to task.o(.data) for rcv_jsonpack_flag
    timer.o(i.TIM2_IRQHandler) refers to usart3.o(.data) for rx_buf_len
    timer.o(i.TIM3_IRQHandler) refers to stm32f10x_tim.o(i.TIM_GetITStatus) for TIM_GetITStatus
    timer.o(i.TIM3_IRQHandler) refers to stm32f10x_tim.o(i.TIM_ClearITPendingBit) for TIM_ClearITPendingBit
    timer.o(i.Timer3_Config) refers to stm32f10x_rcc.o(i.RCC_APB1PeriphClockCmd) for RCC_APB1PeriphClockCmd
    timer.o(i.Timer3_Config) refers to stm32f10x_tim.o(i.TIM_DeInit) for TIM_DeInit
    timer.o(i.Timer3_Config) refers to stm32f10x_tim.o(i.TIM_TimeBaseInit) for TIM_TimeBaseInit
    timer.o(i.Timer3_Config) refers to stm32f10x_tim.o(i.TIM_ClearFlag) for TIM_ClearFlag
    timer.o(i.Timer3_Config) refers to stm32f10x_tim.o(i.TIM_ITConfig) for TIM_ITConfig
    timer.o(i.Timer3_Config) refers to stm32f10x_tim.o(i.TIM_Cmd) for TIM_Cmd
    timer.o(i.Timer_Config) refers to stm32f10x_rcc.o(i.RCC_APB1PeriphClockCmd) for RCC_APB1PeriphClockCmd
    timer.o(i.Timer_Config) refers to stm32f10x_tim.o(i.TIM_DeInit) for TIM_DeInit
    timer.o(i.Timer_Config) refers to stm32f10x_tim.o(i.TIM_TimeBaseInit) for TIM_TimeBaseInit
    timer.o(i.Timer_Config) refers to stm32f10x_tim.o(i.TIM_ClearFlag) for TIM_ClearFlag
    timer.o(i.Timer_Config) refers to stm32f10x_tim.o(i.TIM_ITConfig) for TIM_ITConfig
    timer.o(i.time2_disable) refers to stm32f10x_tim.o(i.TIM_Cmd) for TIM_Cmd
    timer.o(i.timer2_enable) refers to stm32f10x_tim.o(i.TIM_Cmd) for TIM_Cmd
    timer.o(i.timer3_init) refers to timer.o(i.Timer3_Config) for Timer3_Config
    timer.o(i.timer_init) refers to timer.o(i.Timer_Config) for Timer_Config
    task.o(i.creat_task_lbs) refers to los_task.o(i.LOS_TaskCreate) for LOS_TaskCreate
    task.o(i.creat_task_lbs) refers to task.o(i.get_lbs_station_task) for get_lbs_station_task
    task.o(i.creat_task_lbs) refers to main.o(.data) for g_TestTskHandle
    task.o(i.creat_task_test) refers to los_task.o(i.LOS_TaskCreate) for LOS_TaskCreate
    task.o(i.creat_task_test) refers to task.o(i.task_test) for task_test
    task.o(i.creat_task_test) refers to main.o(.data) for g_TestTskHandle
    task.o(i.get_lbs_station_task) refers to printfa.o(i.__0printf) for __2printf
    task.o(i.get_lbs_station_task) refers to usart3.o(i.usart3_rx_disable) for usart3_rx_disable
    task.o(i.get_lbs_station_task) refers to strtok.o(.text) for strtok
    task.o(i.get_lbs_station_task) refers to atoi.o(.text) for atoi
    task.o(i.get_lbs_station_task) refers to usart3.o(i.usart3_rx_enable) for usart3_rx_enable
    task.o(i.get_lbs_station_task) refers to usart3.o(i.usart3_printf) for usart3_printf
    task.o(i.get_lbs_station_task) refers to memseta.o(.text) for __aeabi_memset
    task.o(i.get_lbs_station_task) refers to los_task.o(i.LOS_TaskDelay) for LOS_TaskDelay
    task.o(i.get_lbs_station_task) refers to task.o(.data) for rcv_jsonpack_flag
    task.o(i.get_lbs_station_task) refers to usart3.o(.bss) for USART3_RX_BUF
    task.o(i.task_test) refers to printfa.o(i.__0printf) for __2printf
    task.o(i.task_test) refers to los_task.o(i.LOS_TaskDelay) for LOS_TaskDelay
    mqtt_task.o(i.creat_task_mqtt) refers to los_task.o(i.LOS_TaskCreate) for LOS_TaskCreate
    mqtt_task.o(i.creat_task_mqtt) refers to mqtt_task.o(i.task_mqtt) for task_mqtt
    mqtt_task.o(i.creat_task_mqtt) refers to main.o(.data) for g_TestTskHandle
    mqtt_task.o(i.task_mqtt) refers to printfa.o(i.__0sprintf) for __2sprintf
    mqtt_task.o(i.task_mqtt) refers to strlen.o(.text) for strlen
    mqtt_task.o(i.task_mqtt) refers to usart3.o(i.usart3_printf) for usart3_printf
    mqtt_task.o(i.task_mqtt) refers to los_task.o(i.LOS_TaskDelay) for LOS_TaskDelay
    mqtt_task.o(i.task_mqtt) refers to task.o(.data) for cid_num
    mqtt_task.o(i.task_mqtt) refers to mqtt_task.o(.bss) for json_buf
    log10.o(i.__softfp_log10) refers (Special) to iusefp.o(.text) for __I$use$fp
    log10.o(i.__softfp_log10) refers to log10.o(i.log10) for log10
    log10.o(i.log10) refers (Special) to iusefp.o(.text) for __I$use$fp
    log10.o(i.log10) refers to dunder.o(i.__mathlib_dbl_infnan) for __mathlib_dbl_infnan
    log10.o(i.log10) refers to errno.o(i.__set_errno) for __set_errno
    log10.o(i.log10) refers to dunder.o(i.__mathlib_dbl_invalid) for __mathlib_dbl_invalid
    log10.o(i.log10) refers to dunder.o(i.__mathlib_dbl_divzero) for __mathlib_dbl_divzero
    log10.o(i.log10) refers to dscalb.o(.text) for __ARM_scalbn
    log10.o(i.log10) refers to dflti.o(.text) for __aeabi_i2d
    log10.o(i.log10) refers to log.o(i.log) for log
    log10.o(i.log10) refers to dmul.o(.text) for __aeabi_dmul
    log10.o(i.log10) refers to dadd.o(.text) for __aeabi_dadd
    log10_x.o(i.____softfp_log10$lsc) refers (Special) to iusefp.o(.text) for __I$use$fp
    log10_x.o(i.____softfp_log10$lsc) refers to log10_x.o(i.__log10$lsc) for __log10$lsc
    log10_x.o(i.__log10$lsc) refers (Special) to iusefp.o(.text) for __I$use$fp
    log10_x.o(i.__log10$lsc) refers to dunder.o(i.__mathlib_dbl_infnan) for __mathlib_dbl_infnan
    log10_x.o(i.__log10$lsc) refers to errno.o(i.__set_errno) for __set_errno
    log10_x.o(i.__log10$lsc) refers to dscalb.o(.text) for __ARM_scalbn
    log10_x.o(i.__log10$lsc) refers to dflti.o(.text) for __aeabi_i2d
    log10_x.o(i.__log10$lsc) refers to log.o(i.log) for log
    log10_x.o(i.__log10$lsc) refers to dmul.o(.text) for __aeabi_dmul
    log10_x.o(i.__log10$lsc) refers to dadd.o(.text) for __aeabi_dadd
    entry.o(.ARM.Collect$$$$00000000) refers (Special) to entry10a.o(.ARM.Collect$$$$0000000D) for __rt_final_cpp
    entry.o(.ARM.Collect$$$$00000000) refers (Special) to entry11a.o(.ARM.Collect$$$$0000000F) for __rt_final_exit
    entry.o(.ARM.Collect$$$$00000000) refers (Special) to entry7b.o(.ARM.Collect$$$$00000008) for _main_clock
    entry.o(.ARM.Collect$$$$00000000) refers (Special) to entry8b.o(.ARM.Collect$$$$0000000A) for _main_cpp_init
    entry.o(.ARM.Collect$$$$00000000) refers (Special) to entry9a.o(.ARM.Collect$$$$0000000B) for _main_init
    entry.o(.ARM.Collect$$$$00000000) refers (Special) to entry5.o(.ARM.Collect$$$$00000004) for _main_scatterload
    entry.o(.ARM.Collect$$$$00000000) refers (Special) to entry3.o(.ARM.Collect$$$$00000002) for _main_stk
    uldiv.o(.text) refers to llushr.o(.text) for __aeabi_llsr
    uldiv.o(.text) refers to llshl.o(.text) for __aeabi_llsl
    strtok.o(.text) refers to strtok.o(.data) for .data
    strtok_r.o(.text) refers to strtok_r.o(.data) for .data
    printfb.o(i.__0fprintf$bare) refers to printfb.o(i._printf_core) for _printf_core
    printfb.o(i.__0fprintf$bare) refers to usart.o(i.fputc) for fputc
    printfb.o(i.__0printf$bare) refers to printfb.o(i._printf_core) for _printf_core
    printfb.o(i.__0printf$bare) refers to usart.o(i.fputc) for fputc
    printfb.o(i.__0printf$bare) refers to stdout.o(.data) for __stdout
    printfb.o(i.__0snprintf$bare) refers to printfb.o(i._printf_core) for _printf_core
    printfb.o(i.__0snprintf$bare) refers to printfb.o(i._snputc) for _snputc
    printfb.o(i.__0sprintf$bare) refers to printfb.o(i._printf_core) for _printf_core
    printfb.o(i.__0sprintf$bare) refers to printfb.o(i._sputc) for _sputc
    printfb.o(i.__0vfprintf$bare) refers to printfb.o(i._printf_core) for _printf_core
    printfb.o(i.__0vfprintf$bare) refers to usart.o(i.fputc) for fputc
    printfb.o(i.__0vprintf$bare) refers to printfb.o(i._printf_core) for _printf_core
    printfb.o(i.__0vprintf$bare) refers to usart.o(i.fputc) for fputc
    printfb.o(i.__0vprintf$bare) refers to stdout.o(.data) for __stdout
    printfb.o(i.__0vsnprintf$bare) refers to printfb.o(i._printf_core) for _printf_core
    printfb.o(i.__0vsnprintf$bare) refers to printfb.o(i._snputc) for _snputc
    printfb.o(i.__0vsprintf$bare) refers to printfb.o(i._printf_core) for _printf_core
    printfb.o(i.__0vsprintf$bare) refers to printfb.o(i._sputc) for _sputc
    printf0.o(i.__0fprintf$0) refers to printf0.o(i._printf_core) for _printf_core
    printf0.o(i.__0fprintf$0) refers to usart.o(i.fputc) for fputc
    printf0.o(i.__0printf$0) refers to printf0.o(i._printf_core) for _printf_core
    printf0.o(i.__0printf$0) refers to usart.o(i.fputc) for fputc
    printf0.o(i.__0printf$0) refers to stdout.o(.data) for __stdout
    printf0.o(i.__0snprintf$0) refers to printf0.o(i._printf_core) for _printf_core
    printf0.o(i.__0snprintf$0) refers to printf0.o(i._snputc) for _snputc
    printf0.o(i.__0sprintf$0) refers to printf0.o(i._printf_core) for _printf_core
    printf0.o(i.__0sprintf$0) refers to printf0.o(i._sputc) for _sputc
    printf0.o(i.__0vfprintf$0) refers to printf0.o(i._printf_core) for _printf_core
    printf0.o(i.__0vfprintf$0) refers to usart.o(i.fputc) for fputc
    printf0.o(i.__0vprintf$0) refers to printf0.o(i._printf_core) for _printf_core
    printf0.o(i.__0vprintf$0) refers to usart.o(i.fputc) for fputc
    printf0.o(i.__0vprintf$0) refers to stdout.o(.data) for __stdout
    printf0.o(i.__0vsnprintf$0) refers to printf0.o(i._printf_core) for _printf_core
    printf0.o(i.__0vsnprintf$0) refers to printf0.o(i._snputc) for _snputc
    printf0.o(i.__0vsprintf$0) refers to printf0.o(i._printf_core) for _printf_core
    printf0.o(i.__0vsprintf$0) refers to printf0.o(i._sputc) for _sputc
    printf1.o(i.__0fprintf$1) refers to printf1.o(i._printf_core) for _printf_core
    printf1.o(i.__0fprintf$1) refers to usart.o(i.fputc) for fputc
    printf1.o(i.__0printf$1) refers to printf1.o(i._printf_core) for _printf_core
    printf1.o(i.__0printf$1) refers to usart.o(i.fputc) for fputc
    printf1.o(i.__0printf$1) refers to stdout.o(.data) for __stdout
    printf1.o(i.__0snprintf$1) refers to printf1.o(i._printf_core) for _printf_core
    printf1.o(i.__0snprintf$1) refers to printf1.o(i._snputc) for _snputc
    printf1.o(i.__0sprintf$1) refers to printf1.o(i._printf_core) for _printf_core
    printf1.o(i.__0sprintf$1) refers to printf1.o(i._sputc) for _sputc
    printf1.o(i.__0vfprintf$1) refers to printf1.o(i._printf_core) for _printf_core
    printf1.o(i.__0vfprintf$1) refers to usart.o(i.fputc) for fputc
    printf1.o(i.__0vprintf$1) refers to printf1.o(i._printf_core) for _printf_core
    printf1.o(i.__0vprintf$1) refers to usart.o(i.fputc) for fputc
    printf1.o(i.__0vprintf$1) refers to stdout.o(.data) for __stdout
    printf1.o(i.__0vsnprintf$1) refers to printf1.o(i._printf_core) for _printf_core
    printf1.o(i.__0vsnprintf$1) refers to printf1.o(i._snputc) for _snputc
    printf1.o(i.__0vsprintf$1) refers to printf1.o(i._printf_core) for _printf_core
    printf1.o(i.__0vsprintf$1) refers to printf1.o(i._sputc) for _sputc
    printf1.o(i._printf_core) refers to uidiv.o(.text) for __aeabi_uidivmod
    printf2.o(i.__0fprintf$2) refers to printf2.o(i._printf_core) for _printf_core
    printf2.o(i.__0fprintf$2) refers to usart.o(i.fputc) for fputc
    printf2.o(i.__0printf$2) refers to printf2.o(i._printf_core) for _printf_core
    printf2.o(i.__0printf$2) refers to usart.o(i.fputc) for fputc
    printf2.o(i.__0printf$2) refers to stdout.o(.data) for __stdout
    printf2.o(i.__0snprintf$2) refers to printf2.o(i._printf_core) for _printf_core
    printf2.o(i.__0snprintf$2) refers to printf2.o(i._snputc) for _snputc
    printf2.o(i.__0sprintf$2) refers to printf2.o(i._printf_core) for _printf_core
    printf2.o(i.__0sprintf$2) refers to printf2.o(i._sputc) for _sputc
    printf2.o(i.__0vfprintf$2) refers to printf2.o(i._printf_core) for _printf_core
    printf2.o(i.__0vfprintf$2) refers to usart.o(i.fputc) for fputc
    printf2.o(i.__0vprintf$2) refers to printf2.o(i._printf_core) for _printf_core
    printf2.o(i.__0vprintf$2) refers to usart.o(i.fputc) for fputc
    printf2.o(i.__0vprintf$2) refers to stdout.o(.data) for __stdout
    printf2.o(i.__0vsnprintf$2) refers to printf2.o(i._printf_core) for _printf_core
    printf2.o(i.__0vsnprintf$2) refers to printf2.o(i._snputc) for _snputc
    printf2.o(i.__0vsprintf$2) refers to printf2.o(i._printf_core) for _printf_core
    printf2.o(i.__0vsprintf$2) refers to printf2.o(i._sputc) for _sputc
    printf3.o(i.__0fprintf$3) refers to printf3.o(i._printf_core) for _printf_core
    printf3.o(i.__0fprintf$3) refers to usart.o(i.fputc) for fputc
    printf3.o(i.__0printf$3) refers to printf3.o(i._printf_core) for _printf_core
    printf3.o(i.__0printf$3) refers to usart.o(i.fputc) for fputc
    printf3.o(i.__0printf$3) refers to stdout.o(.data) for __stdout
    printf3.o(i.__0snprintf$3) refers to printf3.o(i._printf_core) for _printf_core
    printf3.o(i.__0snprintf$3) refers to printf3.o(i._snputc) for _snputc
    printf3.o(i.__0sprintf$3) refers to printf3.o(i._printf_core) for _printf_core
    printf3.o(i.__0sprintf$3) refers to printf3.o(i._sputc) for _sputc
    printf3.o(i.__0vfprintf$3) refers to printf3.o(i._printf_core) for _printf_core
    printf3.o(i.__0vfprintf$3) refers to usart.o(i.fputc) for fputc
    printf3.o(i.__0vprintf$3) refers to printf3.o(i._printf_core) for _printf_core
    printf3.o(i.__0vprintf$3) refers to usart.o(i.fputc) for fputc
    printf3.o(i.__0vprintf$3) refers to stdout.o(.data) for __stdout
    printf3.o(i.__0vsnprintf$3) refers to printf3.o(i._printf_core) for _printf_core
    printf3.o(i.__0vsnprintf$3) refers to printf3.o(i._snputc) for _snputc
    printf3.o(i.__0vsprintf$3) refers to printf3.o(i._printf_core) for _printf_core
    printf3.o(i.__0vsprintf$3) refers to printf3.o(i._sputc) for _sputc
    printf3.o(i._printf_core) refers to uidiv.o(.text) for __aeabi_uidivmod
    printf4.o(i.__0fprintf$4) refers to printf4.o(i._printf_core) for _printf_core
    printf4.o(i.__0fprintf$4) refers to usart.o(i.fputc) for fputc
    printf4.o(i.__0printf$4) refers to printf4.o(i._printf_core) for _printf_core
    printf4.o(i.__0printf$4) refers to usart.o(i.fputc) for fputc
    printf4.o(i.__0printf$4) refers to stdout.o(.data) for __stdout
    printf4.o(i.__0snprintf$4) refers to printf4.o(i._printf_core) for _printf_core
    printf4.o(i.__0snprintf$4) refers to printf4.o(i._snputc) for _snputc
    printf4.o(i.__0sprintf$4) refers to printf4.o(i._printf_core) for _printf_core
    printf4.o(i.__0sprintf$4) refers to printf4.o(i._sputc) for _sputc
    printf4.o(i.__0vfprintf$4) refers to printf4.o(i._printf_core) for _printf_core
    printf4.o(i.__0vfprintf$4) refers to usart.o(i.fputc) for fputc
    printf4.o(i.__0vprintf$4) refers to printf4.o(i._printf_core) for _printf_core
    printf4.o(i.__0vprintf$4) refers to usart.o(i.fputc) for fputc
    printf4.o(i.__0vprintf$4) refers to stdout.o(.data) for __stdout
    printf4.o(i.__0vsnprintf$4) refers to printf4.o(i._printf_core) for _printf_core
    printf4.o(i.__0vsnprintf$4) refers to printf4.o(i._snputc) for _snputc
    printf4.o(i.__0vsprintf$4) refers to printf4.o(i._printf_core) for _printf_core
    printf4.o(i.__0vsprintf$4) refers to printf4.o(i._sputc) for _sputc
    printf4.o(i._printf_core) refers to uldiv.o(.text) for __aeabi_uldivmod
    printf5.o(i.__0fprintf$5) refers to printf5.o(i._printf_core) for _printf_core
    printf5.o(i.__0fprintf$5) refers to usart.o(i.fputc) for fputc
    printf5.o(i.__0printf$5) refers to printf5.o(i._printf_core) for _printf_core
    printf5.o(i.__0printf$5) refers to usart.o(i.fputc) for fputc
    printf5.o(i.__0printf$5) refers to stdout.o(.data) for __stdout
    printf5.o(i.__0snprintf$5) refers to printf5.o(i._printf_core) for _printf_core
    printf5.o(i.__0snprintf$5) refers to printf5.o(i._snputc) for _snputc
    printf5.o(i.__0sprintf$5) refers to printf5.o(i._printf_core) for _printf_core
    printf5.o(i.__0sprintf$5) refers to printf5.o(i._sputc) for _sputc
    printf5.o(i.__0vfprintf$5) refers to printf5.o(i._printf_core) for _printf_core
    printf5.o(i.__0vfprintf$5) refers to usart.o(i.fputc) for fputc
    printf5.o(i.__0vprintf$5) refers to printf5.o(i._printf_core) for _printf_core
    printf5.o(i.__0vprintf$5) refers to usart.o(i.fputc) for fputc
    printf5.o(i.__0vprintf$5) refers to stdout.o(.data) for __stdout
    printf5.o(i.__0vsnprintf$5) refers to printf5.o(i._printf_core) for _printf_core
    printf5.o(i.__0vsnprintf$5) refers to printf5.o(i._snputc) for _snputc
    printf5.o(i.__0vsprintf$5) refers to printf5.o(i._printf_core) for _printf_core
    printf5.o(i.__0vsprintf$5) refers to printf5.o(i._sputc) for _sputc
    printf5.o(i._printf_core) refers to uldiv.o(.text) for __aeabi_uldivmod
    printf6.o(i.__0fprintf$6) refers to printf6.o(i._printf_core) for _printf_core
    printf6.o(i.__0fprintf$6) refers to usart.o(i.fputc) for fputc
    printf6.o(i.__0printf$6) refers to printf6.o(i._printf_core) for _printf_core
    printf6.o(i.__0printf$6) refers to usart.o(i.fputc) for fputc
    printf6.o(i.__0printf$6) refers to stdout.o(.data) for __stdout
    printf6.o(i.__0snprintf$6) refers to printf6.o(i._printf_core) for _printf_core
    printf6.o(i.__0snprintf$6) refers to printf6.o(i._snputc) for _snputc
    printf6.o(i.__0sprintf$6) refers to printf6.o(i._printf_core) for _printf_core
    printf6.o(i.__0sprintf$6) refers to printf6.o(i._sputc) for _sputc
    printf6.o(i.__0vfprintf$6) refers to printf6.o(i._printf_core) for _printf_core
    printf6.o(i.__0vfprintf$6) refers to usart.o(i.fputc) for fputc
    printf6.o(i.__0vprintf$6) refers to printf6.o(i._printf_core) for _printf_core
    printf6.o(i.__0vprintf$6) refers to usart.o(i.fputc) for fputc
    printf6.o(i.__0vprintf$6) refers to stdout.o(.data) for __stdout
    printf6.o(i.__0vsnprintf$6) refers to printf6.o(i._printf_core) for _printf_core
    printf6.o(i.__0vsnprintf$6) refers to printf6.o(i._snputc) for _snputc
    printf6.o(i.__0vsprintf$6) refers to printf6.o(i._printf_core) for _printf_core
    printf6.o(i.__0vsprintf$6) refers to printf6.o(i._sputc) for _sputc
    printf6.o(i._printf_core) refers to printf6.o(i._printf_pre_padding) for _printf_pre_padding
    printf6.o(i._printf_core) refers to uidiv.o(.text) for __aeabi_uidivmod
    printf6.o(i._printf_core) refers to printf6.o(i._printf_post_padding) for _printf_post_padding
    printf7.o(i.__0fprintf$7) refers to printf7.o(i._printf_core) for _printf_core
    printf7.o(i.__0fprintf$7) refers to usart.o(i.fputc) for fputc
    printf7.o(i.__0printf$7) refers to printf7.o(i._printf_core) for _printf_core
    printf7.o(i.__0printf$7) refers to usart.o(i.fputc) for fputc
    printf7.o(i.__0printf$7) refers to stdout.o(.data) for __stdout
    printf7.o(i.__0snprintf$7) refers to printf7.o(i._printf_core) for _printf_core
    printf7.o(i.__0snprintf$7) refers to printf7.o(i._snputc) for _snputc
    printf7.o(i.__0sprintf$7) refers to printf7.o(i._printf_core) for _printf_core
    printf7.o(i.__0sprintf$7) refers to printf7.o(i._sputc) for _sputc
    printf7.o(i.__0vfprintf$7) refers to printf7.o(i._printf_core) for _printf_core
    printf7.o(i.__0vfprintf$7) refers to usart.o(i.fputc) for fputc
    printf7.o(i.__0vprintf$7) refers to printf7.o(i._printf_core) for _printf_core
    printf7.o(i.__0vprintf$7) refers to usart.o(i.fputc) for fputc
    printf7.o(i.__0vprintf$7) refers to stdout.o(.data) for __stdout
    printf7.o(i.__0vsnprintf$7) refers to printf7.o(i._printf_core) for _printf_core
    printf7.o(i.__0vsnprintf$7) refers to printf7.o(i._snputc) for _snputc
    printf7.o(i.__0vsprintf$7) refers to printf7.o(i._printf_core) for _printf_core
    printf7.o(i.__0vsprintf$7) refers to printf7.o(i._sputc) for _sputc
    printf7.o(i._printf_core) refers to printf7.o(i._printf_pre_padding) for _printf_pre_padding
    printf7.o(i._printf_core) refers to uldiv.o(.text) for __aeabi_uldivmod
    printf7.o(i._printf_core) refers to printf7.o(i._printf_post_padding) for _printf_post_padding
    printf8.o(i.__0fprintf$8) refers to printf8.o(i._printf_core) for _printf_core
    printf8.o(i.__0fprintf$8) refers to usart.o(i.fputc) for fputc
    printf8.o(i.__0printf$8) refers to printf8.o(i._printf_core) for _printf_core
    printf8.o(i.__0printf$8) refers to usart.o(i.fputc) for fputc
    printf8.o(i.__0printf$8) refers to stdout.o(.data) for __stdout
    printf8.o(i.__0snprintf$8) refers to printf8.o(i._printf_core) for _printf_core
    printf8.o(i.__0snprintf$8) refers to printf8.o(i._snputc) for _snputc
    printf8.o(i.__0sprintf$8) refers to printf8.o(i._printf_core) for _printf_core
    printf8.o(i.__0sprintf$8) refers to printf8.o(i._sputc) for _sputc
    printf8.o(i.__0vfprintf$8) refers to printf8.o(i._printf_core) for _printf_core
    printf8.o(i.__0vfprintf$8) refers to usart.o(i.fputc) for fputc
    printf8.o(i.__0vprintf$8) refers to printf8.o(i._printf_core) for _printf_core
    printf8.o(i.__0vprintf$8) refers to usart.o(i.fputc) for fputc
    printf8.o(i.__0vprintf$8) refers to stdout.o(.data) for __stdout
    printf8.o(i.__0vsnprintf$8) refers to printf8.o(i._printf_core) for _printf_core
    printf8.o(i.__0vsnprintf$8) refers to printf8.o(i._snputc) for _snputc
    printf8.o(i.__0vsprintf$8) refers to printf8.o(i._printf_core) for _printf_core
    printf8.o(i.__0vsprintf$8) refers to printf8.o(i._sputc) for _sputc
    printf8.o(i._printf_core) refers to printf8.o(i._printf_pre_padding) for _printf_pre_padding
    printf8.o(i._printf_core) refers to uldiv.o(.text) for __aeabi_uldivmod
    printf8.o(i._printf_core) refers to printf8.o(i._printf_post_padding) for _printf_post_padding
    printfa.o(i.__0fprintf) refers (Special) to iusefp.o(.text) for __I$use$fp
    printfa.o(i.__0fprintf) refers to printfa.o(i._printf_core) for _printf_core
    printfa.o(i.__0fprintf) refers to usart.o(i.fputc) for fputc
    printfa.o(i.__0printf) refers (Special) to iusefp.o(.text) for __I$use$fp
    printfa.o(i.__0printf) refers to printfa.o(i._printf_core) for _printf_core
    printfa.o(i.__0printf) refers to usart.o(i.fputc) for fputc
    printfa.o(i.__0printf) refers to stdout.o(.data) for __stdout
    printfa.o(i.__0snprintf) refers (Special) to iusefp.o(.text) for __I$use$fp
    printfa.o(i.__0snprintf) refers to printfa.o(i._printf_core) for _printf_core
    printfa.o(i.__0snprintf) refers to printfa.o(i._snputc) for _snputc
    printfa.o(i.__0sprintf) refers (Special) to iusefp.o(.text) for __I$use$fp
    printfa.o(i.__0sprintf) refers to printfa.o(i._printf_core) for _printf_core
    printfa.o(i.__0sprintf) refers to printfa.o(i._sputc) for _sputc
    printfa.o(i.__0vfprintf) refers (Special) to iusefp.o(.text) for __I$use$fp
    printfa.o(i.__0vfprintf) refers to printfa.o(i._printf_core) for _printf_core
    printfa.o(i.__0vfprintf) refers to usart.o(i.fputc) for fputc
    printfa.o(i.__0vprintf) refers (Special) to iusefp.o(.text) for __I$use$fp
    printfa.o(i.__0vprintf) refers to printfa.o(i._printf_core) for _printf_core
    printfa.o(i.__0vprintf) refers to usart.o(i.fputc) for fputc
    printfa.o(i.__0vprintf) refers to stdout.o(.data) for __stdout
    printfa.o(i.__0vsnprintf) refers (Special) to iusefp.o(.text) for __I$use$fp
    printfa.o(i.__0vsnprintf) refers to printfa.o(i._printf_core) for _printf_core
    printfa.o(i.__0vsnprintf) refers to printfa.o(i._snputc) for _snputc
    printfa.o(i.__0vsprintf) refers (Special) to iusefp.o(.text) for __I$use$fp
    printfa.o(i.__0vsprintf) refers to printfa.o(i._printf_core) for _printf_core
    printfa.o(i.__0vsprintf) refers to printfa.o(i._sputc) for _sputc
    printfa.o(i._fp_digits) refers (Special) to iusefp.o(.text) for __I$use$fp
    printfa.o(i._fp_digits) refers to dmul.o(.text) for __aeabi_dmul
    printfa.o(i._fp_digits) refers to ddiv.o(.text) for __aeabi_ddiv
    printfa.o(i._fp_digits) refers to cdrcmple.o(.text) for __aeabi_cdrcmple
    printfa.o(i._fp_digits) refers to dadd.o(.text) for __aeabi_dadd
    printfa.o(i._fp_digits) refers to dfixul.o(.text) for __aeabi_d2ulz
    printfa.o(i._fp_digits) refers to uldiv.o(.text) for __aeabi_uldivmod
    printfa.o(i._printf_core) refers (Special) to iusefp.o(.text) for __I$use$fp
    printfa.o(i._printf_core) refers to printfa.o(i._printf_pre_padding) for _printf_pre_padding
    printfa.o(i._printf_core) refers to uldiv.o(.text) for __aeabi_uldivmod
    printfa.o(i._printf_core) refers to printfa.o(i._printf_post_padding) for _printf_post_padding
    printfa.o(i._printf_core) refers to printfa.o(i._fp_digits) for _fp_digits
    printfa.o(i._printf_core) refers to uidiv.o(.text) for __aeabi_uidivmod
    printfa.o(i._printf_post_padding) refers (Special) to iusefp.o(.text) for __I$use$fp
    printfa.o(i._printf_pre_padding) refers (Special) to iusefp.o(.text) for __I$use$fp
    printfa.o(i._snputc) refers (Special) to iusefp.o(.text) for __I$use$fp
    printfa.o(i._sputc) refers (Special) to iusefp.o(.text) for __I$use$fp
    atoi.o(.text) refers to errno.o(i.__aeabi_errno_addr) for __aeabi_errno_addr
    atoi.o(.text) refers to strtol.o(.text) for strtol
    fadd.o(.text) refers (Special) to iusefp.o(.text) for __I$use$fp
    fadd.o(.text) refers to fepilogue.o(.text) for _float_epilogue
    fmul.o(.text) refers (Special) to iusefp.o(.text) for __I$use$fp
    dadd.o(.text) refers (Special) to iusefp.o(.text) for __I$use$fp
    dadd.o(.text) refers to llshl.o(.text) for __aeabi_llsl
    dadd.o(.text) refers to llsshr.o(.text) for __aeabi_lasr
    dadd.o(.text) refers to depilogue.o(.text) for _double_epilogue
    dmul.o(.text) refers (Special) to iusefp.o(.text) for __I$use$fp
    dmul.o(.text) refers to depilogue.o(.text) for _double_epilogue
    ddiv.o(.text) refers (Special) to iusefp.o(.text) for __I$use$fp
    ddiv.o(.text) refers to depilogue.o(.text) for _double_round
    ffltui.o(.text) refers (Special) to iusefp.o(.text) for __I$use$fp
    ffltui.o(.text) refers to fepilogue.o(.text) for _float_epilogue
    dfltul.o(.text) refers (Special) to iusefp.o(.text) for __I$use$fp
    dfltul.o(.text) refers to depilogue.o(.text) for _double_epilogue
    ffixui.o(.text) refers (Special) to iusefp.o(.text) for __I$use$fp
    dfixul.o(.text) refers (Special) to iusefp.o(.text) for __I$use$fp
    dfixul.o(.text) refers to llushr.o(.text) for __aeabi_llsr
    dfixul.o(.text) refers to llshl.o(.text) for __aeabi_llsl
    f2d.o(.text) refers (Special) to iusefp.o(.text) for __I$use$fp
    cdcmple.o(.text) refers (Special) to iusefp.o(.text) for __I$use$fp
    d2f.o(.text) refers (Special) to iusefp.o(.text) for __I$use$fp
    d2f.o(.text) refers to fepilogue.o(.text) for _float_round
    cfrcmple.o(.text) refers (Special) to iusefp.o(.text) for __I$use$fp
    dunder.o(i.__mathlib_dbl_divzero) refers to ddiv.o(.text) for __aeabi_ddiv
    dunder.o(i.__mathlib_dbl_infnan) refers to dscalb.o(.text) for __ARM_scalbn
    dunder.o(i.__mathlib_dbl_infnan2) refers to dadd.o(.text) for __aeabi_dadd
    dunder.o(i.__mathlib_dbl_invalid) refers to ddiv.o(.text) for __aeabi_ddiv
    dunder.o(i.__mathlib_dbl_overflow) refers to dscalb.o(.text) for __ARM_scalbn
    dunder.o(i.__mathlib_dbl_posinfnan) refers to dmul.o(.text) for __aeabi_dmul
    dunder.o(i.__mathlib_dbl_underflow) refers to dscalb.o(.text) for __ARM_scalbn
    log.o(i.__softfp_log) refers (Special) to iusefp.o(.text) for __I$use$fp
    log.o(i.__softfp_log) refers to log.o(i.log) for log
    log.o(i.log) refers (Special) to iusefp.o(.text) for __I$use$fp
    log.o(i.log) refers to dunder.o(i.__mathlib_dbl_infnan) for __mathlib_dbl_infnan
    log.o(i.log) refers to errno.o(i.__set_errno) for __set_errno
    log.o(i.log) refers to dunder.o(i.__mathlib_dbl_invalid) for __mathlib_dbl_invalid
    log.o(i.log) refers to dunder.o(i.__mathlib_dbl_divzero) for __mathlib_dbl_divzero
    log.o(i.log) refers to dscalb.o(.text) for __ARM_scalbn
    log.o(i.log) refers to dadd.o(.text) for __aeabi_dsub
    log.o(i.log) refers to cdcmple.o(.text) for __aeabi_cdcmpeq
    log.o(i.log) refers to dflti.o(.text) for __aeabi_i2d
    log.o(i.log) refers to dmul.o(.text) for __aeabi_dmul
    log.o(i.log) refers to ddiv.o(.text) for __aeabi_ddiv
    log.o(i.log) refers to poly.o(i.__kernel_poly) for __kernel_poly
    log.o(i.log) refers to qnan.o(.constdata) for __mathlib_zero
    log.o(i.log) refers to log.o(.constdata) for .constdata
    log.o(.constdata) refers (Special) to iusefp.o(.text) for __I$use$fp
    log_x.o(i.____softfp_log$lsc) refers (Special) to iusefp.o(.text) for __I$use$fp
    log_x.o(i.____softfp_log$lsc) refers to log_x.o(i.__log$lsc) for __log$lsc
    log_x.o(i.__log$lsc) refers (Special) to iusefp.o(.text) for __I$use$fp
    log_x.o(i.__log$lsc) refers to dunder.o(i.__mathlib_dbl_infnan) for __mathlib_dbl_infnan
    log_x.o(i.__log$lsc) refers to errno.o(i.__set_errno) for __set_errno
    log_x.o(i.__log$lsc) refers to dscalb.o(.text) for __ARM_scalbn
    log_x.o(i.__log$lsc) refers to dadd.o(.text) for __aeabi_dsub
    log_x.o(i.__log$lsc) refers to cdcmple.o(.text) for __aeabi_cdcmpeq
    log_x.o(i.__log$lsc) refers to dflti.o(.text) for __aeabi_i2d
    log_x.o(i.__log$lsc) refers to dmul.o(.text) for __aeabi_dmul
    log_x.o(i.__log$lsc) refers to ddiv.o(.text) for __aeabi_ddiv
    log_x.o(i.__log$lsc) refers to poly.o(i.__kernel_poly) for __kernel_poly
    log_x.o(i.__log$lsc) refers to qnan.o(.constdata) for __mathlib_zero
    log_x.o(i.__log$lsc) refers to log_x.o(.constdata) for .constdata
    log_x.o(.constdata) refers (Special) to iusefp.o(.text) for __I$use$fp
    entry3.o(.ARM.Collect$$$$00000002) refers to entry3.o(.ARM.Collect$$$$00002713) for __lit__00000000
    entry3.o(__vectab_stack_and_reset_area) refers to entry.o(.ARM.Collect$$$$00000000) for __main
    entry5.o(.ARM.Collect$$$$00000004) refers to init.o(.text) for __scatterload
    entry9a.o(.ARM.Collect$$$$0000000B) refers to los_config.o(i.main) for main
    entry9b.o(.ARM.Collect$$$$0000000C) refers to los_config.o(i.main) for main
    errno.o(i.__aeabi_errno_addr) refers to errno.o(.data) for .data
    errno.o(i.__read_errno) refers to errno.o(.data) for .data
    errno.o(i.__set_errno) refers to errno.o(.data) for .data
    strtol.o(.text) refers to ctype_o.o(.text) for __rt_ctype_table
    strtol.o(.text) refers to _strtoul.o(.text) for _strtoul
    strtol.o(.text) refers to errno.o(i.__aeabi_errno_addr) for __aeabi_errno_addr
    depilogue.o(.text) refers to llshl.o(.text) for __aeabi_llsl
    depilogue.o(.text) refers to llushr.o(.text) for __aeabi_llsr
    dflti.o(.text) refers to depilogue.o(.text) for _double_epilogue
    poly.o(i.__kernel_poly) refers (Special) to iusefp.o(.text) for __I$use$fp
    poly.o(i.__kernel_poly) refers to dmul.o(.text) for __aeabi_dmul
    poly.o(i.__kernel_poly) refers to dadd.o(.text) for __aeabi_dadd
    qnan.o(.constdata) refers (Special) to iusefp.o(.text) for __I$use$fp
    init.o(.text) refers to entry5.o(.ARM.Collect$$$$00000004) for __main_after_scatterload
    ctype_o.o(.text) refers to ctype_o.o(.constdata) for .constdata
    ctype_o.o(.constdata) refers to ctype_o.o(.constdata) for __ctype_table
    isalnum_o.o(.text) refers to ctype_o.o(.text) for __rt_ctype_table
    isalpha_o.o(.text) refers to ctype_o.o(.text) for __rt_ctype_table
    isblank_o.o(.text) refers to ctype_o.o(.constdata) for __ctype_table
    iscntrl_o.o(.text) refers to ctype_o.o(.text) for __rt_ctype_table
    isdigit_o.o(.text) refers to ctype_o.o(.text) for __rt_ctype_table
    isgraph_o.o(.text) refers to ctype_o.o(.text) for __rt_ctype_table
    islower_o.o(.text) refers to ctype_o.o(.text) for __rt_ctype_table
    isprint_o.o(.text) refers to ctype_o.o(.text) for __rt_ctype_table
    ispunct_o.o(.text) refers to ctype_o.o(.text) for __rt_ctype_table
    isspace_o.o(.text) refers to ctype_o.o(.text) for __rt_ctype_table
    isupper_o.o(.text) refers to ctype_o.o(.text) for __rt_ctype_table
    isxdigit_o.o(.text) refers to ctype_o.o(.text) for __rt_ctype_table
    _strtoul.o(.text) refers to _chval.o(.text) for _chval
    _strtoul.o(.text) refers to errno.o(i.__aeabi_errno_addr) for __aeabi_errno_addr


==============================================================================

Removing Unused input sections from the image.

    Removing startup_stm32f10x_md.o(HEAP), (512 bytes).
    Removing core_cm3.o(.emb_text), (32 bytes).
    Removing system_stm32f10x.o(i.SystemCoreClockUpdate), (164 bytes).
    Removing system_stm32f10x.o(.data), (20 bytes).
    Removing misc.o(i.NVIC_SystemLPConfig), (32 bytes).
    Removing misc.o(i.SysTick_CLKSourceConfig), (40 bytes).
    Removing stm32f10x_adc.o(i.ADC_AnalogWatchdogCmd), (20 bytes).
    Removing stm32f10x_adc.o(i.ADC_AnalogWatchdogSingleChannelConfig), (16 bytes).
    Removing stm32f10x_adc.o(i.ADC_AnalogWatchdogThresholdsConfig), (6 bytes).
    Removing stm32f10x_adc.o(i.ADC_AutoInjectedConvCmd), (22 bytes).
    Removing stm32f10x_adc.o(i.ADC_ClearFlag), (6 bytes).
    Removing stm32f10x_adc.o(i.ADC_ClearITPendingBit), (10 bytes).
    Removing stm32f10x_adc.o(i.ADC_Cmd), (22 bytes).
    Removing stm32f10x_adc.o(i.ADC_DMACmd), (22 bytes).
    Removing stm32f10x_adc.o(i.ADC_DeInit), (92 bytes).
    Removing stm32f10x_adc.o(i.ADC_DiscModeChannelCountConfig), (24 bytes).
    Removing stm32f10x_adc.o(i.ADC_DiscModeCmd), (22 bytes).
    Removing stm32f10x_adc.o(i.ADC_ExternalTrigConvCmd), (22 bytes).
    Removing stm32f10x_adc.o(i.ADC_ExternalTrigInjectedConvCmd), (22 bytes).
    Removing stm32f10x_adc.o(i.ADC_ExternalTrigInjectedConvConfig), (16 bytes).
    Removing stm32f10x_adc.o(i.ADC_GetCalibrationStatus), (20 bytes).
    Removing stm32f10x_adc.o(i.ADC_GetConversionValue), (8 bytes).
    Removing stm32f10x_adc.o(i.ADC_GetDualModeConversionValue), (12 bytes).
    Removing stm32f10x_adc.o(i.ADC_GetFlagStatus), (18 bytes).
    Removing stm32f10x_adc.o(i.ADC_GetITStatus), (36 bytes).
    Removing stm32f10x_adc.o(i.ADC_GetInjectedConversionValue), (28 bytes).
    Removing stm32f10x_adc.o(i.ADC_GetResetCalibrationStatus), (20 bytes).
    Removing stm32f10x_adc.o(i.ADC_GetSoftwareStartConvStatus), (20 bytes).
    Removing stm32f10x_adc.o(i.ADC_GetSoftwareStartInjectedConvCmdStatus), (20 bytes).
    Removing stm32f10x_adc.o(i.ADC_ITConfig), (24 bytes).
    Removing stm32f10x_adc.o(i.ADC_Init), (80 bytes).
    Removing stm32f10x_adc.o(i.ADC_InjectedChannelConfig), (130 bytes).
    Removing stm32f10x_adc.o(i.ADC_InjectedDiscModeCmd), (22 bytes).
    Removing stm32f10x_adc.o(i.ADC_InjectedSequencerLengthConfig), (24 bytes).
    Removing stm32f10x_adc.o(i.ADC_RegularChannelConfig), (184 bytes).
    Removing stm32f10x_adc.o(i.ADC_ResetCalibration), (10 bytes).
    Removing stm32f10x_adc.o(i.ADC_SetInjectedOffset), (20 bytes).
    Removing stm32f10x_adc.o(i.ADC_SoftwareStartConvCmd), (22 bytes).
    Removing stm32f10x_adc.o(i.ADC_SoftwareStartInjectedConvCmd), (22 bytes).
    Removing stm32f10x_adc.o(i.ADC_StartCalibration), (10 bytes).
    Removing stm32f10x_adc.o(i.ADC_StructInit), (18 bytes).
    Removing stm32f10x_adc.o(i.ADC_TempSensorVrefintCmd), (36 bytes).
    Removing stm32f10x_bkp.o(i.BKP_ClearFlag), (20 bytes).
    Removing stm32f10x_bkp.o(i.BKP_ClearITPendingBit), (20 bytes).
    Removing stm32f10x_bkp.o(i.BKP_DeInit), (16 bytes).
    Removing stm32f10x_bkp.o(i.BKP_GetFlagStatus), (12 bytes).
    Removing stm32f10x_bkp.o(i.BKP_GetITStatus), (12 bytes).
    Removing stm32f10x_bkp.o(i.BKP_ITConfig), (12 bytes).
    Removing stm32f10x_bkp.o(i.BKP_RTCOutputConfig), (28 bytes).
    Removing stm32f10x_bkp.o(i.BKP_ReadBackupRegister), (28 bytes).
    Removing stm32f10x_bkp.o(i.BKP_SetRTCCalibrationValue), (28 bytes).
    Removing stm32f10x_bkp.o(i.BKP_TamperPinCmd), (12 bytes).
    Removing stm32f10x_bkp.o(i.BKP_TamperPinLevelConfig), (12 bytes).
    Removing stm32f10x_bkp.o(i.BKP_WriteBackupRegister), (28 bytes).
    Removing stm32f10x_can.o(i.CAN_CancelTransmit), (48 bytes).
    Removing stm32f10x_can.o(i.CAN_ClearFlag), (56 bytes).
    Removing stm32f10x_can.o(i.CAN_ClearITPendingBit), (168 bytes).
    Removing stm32f10x_can.o(i.CAN_DBGFreeze), (22 bytes).
    Removing stm32f10x_can.o(i.CAN_DeInit), (56 bytes).
    Removing stm32f10x_can.o(i.CAN_FIFORelease), (22 bytes).
    Removing stm32f10x_can.o(i.CAN_FilterInit), (264 bytes).
    Removing stm32f10x_can.o(i.CAN_GetFlagStatus), (120 bytes).
    Removing stm32f10x_can.o(i.CAN_GetITStatus), (288 bytes).
    Removing stm32f10x_can.o(i.CAN_GetLSBTransmitErrorCounter), (12 bytes).
    Removing stm32f10x_can.o(i.CAN_GetLastErrorCode), (12 bytes).
    Removing stm32f10x_can.o(i.CAN_GetReceiveErrorCounter), (10 bytes).
    Removing stm32f10x_can.o(i.CAN_ITConfig), (18 bytes).
    Removing stm32f10x_can.o(i.CAN_Init), (276 bytes).
    Removing stm32f10x_can.o(i.CAN_MessagePending), (30 bytes).
    Removing stm32f10x_can.o(i.CAN_OperatingModeRequest), (162 bytes).
    Removing stm32f10x_can.o(i.CAN_Receive), (240 bytes).
    Removing stm32f10x_can.o(i.CAN_SlaveStartBank), (52 bytes).
    Removing stm32f10x_can.o(i.CAN_Sleep), (30 bytes).
    Removing stm32f10x_can.o(i.CAN_StructInit), (32 bytes).
    Removing stm32f10x_can.o(i.CAN_TTComModeCmd), (118 bytes).
    Removing stm32f10x_can.o(i.CAN_Transmit), (294 bytes).
    Removing stm32f10x_can.o(i.CAN_TransmitStatus), (160 bytes).
    Removing stm32f10x_can.o(i.CAN_WakeUp), (48 bytes).
    Removing stm32f10x_can.o(i.CheckITStatus), (18 bytes).
    Removing stm32f10x_cec.o(i.CEC_ClearFlag), (36 bytes).
    Removing stm32f10x_cec.o(i.CEC_ClearITPendingBit), (36 bytes).
    Removing stm32f10x_cec.o(i.CEC_Cmd), (32 bytes).
    Removing stm32f10x_cec.o(i.CEC_DeInit), (22 bytes).
    Removing stm32f10x_cec.o(i.CEC_EndOfMessageCmd), (12 bytes).
    Removing stm32f10x_cec.o(i.CEC_GetFlagStatus), (48 bytes).
    Removing stm32f10x_cec.o(i.CEC_GetITStatus), (40 bytes).
    Removing stm32f10x_cec.o(i.CEC_ITConfig), (12 bytes).
    Removing stm32f10x_cec.o(i.CEC_Init), (32 bytes).
    Removing stm32f10x_cec.o(i.CEC_OwnAddressConfig), (12 bytes).
    Removing stm32f10x_cec.o(i.CEC_ReceiveDataByte), (12 bytes).
    Removing stm32f10x_cec.o(i.CEC_SendDataByte), (12 bytes).
    Removing stm32f10x_cec.o(i.CEC_SetPrescaler), (12 bytes).
    Removing stm32f10x_cec.o(i.CEC_StartOfMessage), (12 bytes).
    Removing stm32f10x_crc.o(i.CRC_CalcBlockCRC), (36 bytes).
    Removing stm32f10x_crc.o(i.CRC_CalcCRC), (16 bytes).
    Removing stm32f10x_crc.o(i.CRC_GetCRC), (12 bytes).
    Removing stm32f10x_crc.o(i.CRC_GetIDRegister), (12 bytes).
    Removing stm32f10x_crc.o(i.CRC_ResetDR), (12 bytes).
    Removing stm32f10x_crc.o(i.CRC_SetIDRegister), (12 bytes).
    Removing stm32f10x_dac.o(i.DAC_Cmd), (40 bytes).
    Removing stm32f10x_dac.o(i.DAC_DMACmd), (44 bytes).
    Removing stm32f10x_dac.o(i.DAC_DeInit), (22 bytes).
    Removing stm32f10x_dac.o(i.DAC_DualSoftwareTriggerCmd), (36 bytes).
    Removing stm32f10x_dac.o(i.DAC_GetDataOutputValue), (36 bytes).
    Removing stm32f10x_dac.o(i.DAC_Init), (52 bytes).
    Removing stm32f10x_dac.o(i.DAC_SetChannel1Data), (32 bytes).
    Removing stm32f10x_dac.o(i.DAC_SetChannel2Data), (32 bytes).
    Removing stm32f10x_dac.o(i.DAC_SetDualChannelData), (36 bytes).
    Removing stm32f10x_dac.o(i.DAC_SoftwareTriggerCmd), (44 bytes).
    Removing stm32f10x_dac.o(i.DAC_StructInit), (12 bytes).
    Removing stm32f10x_dac.o(i.DAC_WaveGenerationCmd), (40 bytes).
    Removing stm32f10x_dbgmcu.o(i.DBGMCU_Config), (32 bytes).
    Removing stm32f10x_dbgmcu.o(i.DBGMCU_GetDEVID), (16 bytes).
    Removing stm32f10x_dbgmcu.o(i.DBGMCU_GetREVID), (12 bytes).
    Removing stm32f10x_dma.o(i.DMA_ClearFlag), (28 bytes).
    Removing stm32f10x_dma.o(i.DMA_ClearITPendingBit), (28 bytes).
    Removing stm32f10x_dma.o(i.DMA_Cmd), (24 bytes).
    Removing stm32f10x_dma.o(i.DMA_DeInit), (332 bytes).
    Removing stm32f10x_dma.o(i.DMA_GetCurrDataCounter), (8 bytes).
    Removing stm32f10x_dma.o(i.DMA_GetFlagStatus), (44 bytes).
    Removing stm32f10x_dma.o(i.DMA_GetITStatus), (44 bytes).
    Removing stm32f10x_dma.o(i.DMA_ITConfig), (18 bytes).
    Removing stm32f10x_dma.o(i.DMA_Init), (60 bytes).
    Removing stm32f10x_dma.o(i.DMA_SetCurrDataCounter), (4 bytes).
    Removing stm32f10x_dma.o(i.DMA_StructInit), (26 bytes).
    Removing stm32f10x_exti.o(i.EXTI_ClearFlag), (12 bytes).
    Removing stm32f10x_exti.o(i.EXTI_ClearITPendingBit), (12 bytes).
    Removing stm32f10x_exti.o(i.EXTI_DeInit), (36 bytes).
    Removing stm32f10x_exti.o(i.EXTI_GenerateSWInterrupt), (16 bytes).
    Removing stm32f10x_exti.o(i.EXTI_GetFlagStatus), (24 bytes).
    Removing stm32f10x_exti.o(i.EXTI_GetITStatus), (40 bytes).
    Removing stm32f10x_exti.o(i.EXTI_Init), (148 bytes).
    Removing stm32f10x_exti.o(i.EXTI_StructInit), (16 bytes).
    Removing stm32f10x_flash.o(i.FLASH_ClearFlag), (12 bytes).
    Removing stm32f10x_flash.o(i.FLASH_EnableWriteProtection), (196 bytes).
    Removing stm32f10x_flash.o(i.FLASH_EraseAllBank1Pages), (72 bytes).
    Removing stm32f10x_flash.o(i.FLASH_EraseAllPages), (72 bytes).
    Removing stm32f10x_flash.o(i.FLASH_EraseOptionBytes), (168 bytes).
    Removing stm32f10x_flash.o(i.FLASH_ErasePage), (76 bytes).
    Removing stm32f10x_flash.o(i.FLASH_GetBank1Status), (52 bytes).
    Removing stm32f10x_flash.o(i.FLASH_GetFlagStatus), (48 bytes).
    Removing stm32f10x_flash.o(i.FLASH_GetPrefetchBufferStatus), (24 bytes).
    Removing stm32f10x_flash.o(i.FLASH_GetReadOutProtectionStatus), (24 bytes).
    Removing stm32f10x_flash.o(i.FLASH_GetStatus), (52 bytes).
    Removing stm32f10x_flash.o(i.FLASH_GetUserOptionByte), (12 bytes).
    Removing stm32f10x_flash.o(i.FLASH_GetWriteProtectionOptionByte), (12 bytes).
    Removing stm32f10x_flash.o(i.FLASH_HalfCycleAccessCmd), (28 bytes).
    Removing stm32f10x_flash.o(i.FLASH_ITConfig), (32 bytes).
    Removing stm32f10x_flash.o(i.FLASH_Lock), (20 bytes).
    Removing stm32f10x_flash.o(i.FLASH_LockBank1), (20 bytes).
    Removing stm32f10x_flash.o(i.FLASH_ProgramHalfWord), (64 bytes).
    Removing stm32f10x_flash.o(i.FLASH_ProgramOptionByteData), (84 bytes).
    Removing stm32f10x_flash.o(i.FLASH_ProgramWord), (108 bytes).
    Removing stm32f10x_flash.o(i.FLASH_ReadOutProtection), (172 bytes).
    Removing stm32f10x_flash.o(i.FLASH_Unlock), (24 bytes).
    Removing stm32f10x_flash.o(i.FLASH_UnlockBank1), (24 bytes).
    Removing stm32f10x_flash.o(i.FLASH_UserOptionByteConfig), (104 bytes).
    Removing stm32f10x_flash.o(i.FLASH_WaitForLastBank1Operation), (38 bytes).
    Removing stm32f10x_flash.o(i.FLASH_WaitForLastOperation), (38 bytes).
    Removing stm32f10x_fsmc.o(i.FSMC_ClearFlag), (64 bytes).
    Removing stm32f10x_fsmc.o(i.FSMC_ClearITPendingBit), (72 bytes).
    Removing stm32f10x_fsmc.o(i.FSMC_GetECC), (28 bytes).
    Removing stm32f10x_fsmc.o(i.FSMC_GetFlagStatus), (56 bytes).
    Removing stm32f10x_fsmc.o(i.FSMC_GetITStatus), (68 bytes).
    Removing stm32f10x_fsmc.o(i.FSMC_ITConfig), (128 bytes).
    Removing stm32f10x_fsmc.o(i.FSMC_NANDCmd), (92 bytes).
    Removing stm32f10x_fsmc.o(i.FSMC_NANDDeInit), (68 bytes).
    Removing stm32f10x_fsmc.o(i.FSMC_NANDECCCmd), (92 bytes).
    Removing stm32f10x_fsmc.o(i.FSMC_NANDInit), (136 bytes).
    Removing stm32f10x_fsmc.o(i.FSMC_NANDStructInit), (54 bytes).
    Removing stm32f10x_fsmc.o(i.FSMC_NORSRAMCmd), (52 bytes).
    Removing stm32f10x_fsmc.o(i.FSMC_NORSRAMDeInit), (54 bytes).
    Removing stm32f10x_fsmc.o(i.FSMC_NORSRAMInit), (230 bytes).
    Removing stm32f10x_fsmc.o(i.FSMC_NORSRAMStructInit), (114 bytes).
    Removing stm32f10x_fsmc.o(i.FSMC_PCCARDCmd), (48 bytes).
    Removing stm32f10x_fsmc.o(i.FSMC_PCCARDDeInit), (40 bytes).
    Removing stm32f10x_fsmc.o(i.FSMC_PCCARDInit), (132 bytes).
    Removing stm32f10x_fsmc.o(i.FSMC_PCCARDStructInit), (60 bytes).
    Removing stm32f10x_gpio.o(i.GPIO_AFIODeInit), (20 bytes).
    Removing stm32f10x_gpio.o(i.GPIO_DeInit), (200 bytes).
    Removing stm32f10x_gpio.o(i.GPIO_ETH_MediaInterfaceConfig), (12 bytes).
    Removing stm32f10x_gpio.o(i.GPIO_EventOutputCmd), (12 bytes).
    Removing stm32f10x_gpio.o(i.GPIO_EventOutputConfig), (32 bytes).
    Removing stm32f10x_gpio.o(i.GPIO_PinLockConfig), (18 bytes).
    Removing stm32f10x_gpio.o(i.GPIO_PinRemapConfig), (144 bytes).
    Removing stm32f10x_gpio.o(i.GPIO_ReadInputData), (8 bytes).
    Removing stm32f10x_gpio.o(i.GPIO_ReadInputDataBit), (18 bytes).
    Removing stm32f10x_gpio.o(i.GPIO_ReadOutputData), (8 bytes).
    Removing stm32f10x_gpio.o(i.GPIO_ReadOutputDataBit), (18 bytes).
    Removing stm32f10x_gpio.o(i.GPIO_ResetBits), (4 bytes).
    Removing stm32f10x_gpio.o(i.GPIO_SetBits), (4 bytes).
    Removing stm32f10x_gpio.o(i.GPIO_StructInit), (16 bytes).
    Removing stm32f10x_gpio.o(i.GPIO_Write), (4 bytes).
    Removing stm32f10x_gpio.o(i.GPIO_WriteBit), (10 bytes).
    Removing stm32f10x_i2c.o(i.I2C_ARPCmd), (24 bytes).
    Removing stm32f10x_i2c.o(i.I2C_AcknowledgeConfig), (24 bytes).
    Removing stm32f10x_i2c.o(i.I2C_CalculatePEC), (24 bytes).
    Removing stm32f10x_i2c.o(i.I2C_CheckEvent), (42 bytes).
    Removing stm32f10x_i2c.o(i.I2C_ClearFlag), (12 bytes).
    Removing stm32f10x_i2c.o(i.I2C_ClearITPendingBit), (12 bytes).
    Removing stm32f10x_i2c.o(i.I2C_Cmd), (24 bytes).
    Removing stm32f10x_i2c.o(i.I2C_DMACmd), (24 bytes).
    Removing stm32f10x_i2c.o(i.I2C_DMALastTransferCmd), (24 bytes).
    Removing stm32f10x_i2c.o(i.I2C_DeInit), (56 bytes).
    Removing stm32f10x_i2c.o(i.I2C_DualAddressCmd), (24 bytes).
    Removing stm32f10x_i2c.o(i.I2C_FastModeDutyCycleConfig), (28 bytes).
    Removing stm32f10x_i2c.o(i.I2C_GeneralCallCmd), (24 bytes).
    Removing stm32f10x_i2c.o(i.I2C_GenerateSTART), (24 bytes).
    Removing stm32f10x_i2c.o(i.I2C_GenerateSTOP), (24 bytes).
    Removing stm32f10x_i2c.o(i.I2C_GetFlagStatus), (58 bytes).
    Removing stm32f10x_i2c.o(i.I2C_GetITStatus), (38 bytes).
    Removing stm32f10x_i2c.o(i.I2C_GetLastEvent), (26 bytes).
    Removing stm32f10x_i2c.o(i.I2C_GetPEC), (8 bytes).
    Removing stm32f10x_i2c.o(i.I2C_ITConfig), (18 bytes).
    Removing stm32f10x_i2c.o(i.I2C_Init), (236 bytes).
    Removing stm32f10x_i2c.o(i.I2C_NACKPositionConfig), (28 bytes).
    Removing stm32f10x_i2c.o(i.I2C_OwnAddress2Config), (22 bytes).
    Removing stm32f10x_i2c.o(i.I2C_PECPositionConfig), (28 bytes).
    Removing stm32f10x_i2c.o(i.I2C_ReadRegister), (22 bytes).
    Removing stm32f10x_i2c.o(i.I2C_ReceiveData), (8 bytes).
    Removing stm32f10x_i2c.o(i.I2C_SMBusAlertConfig), (28 bytes).
    Removing stm32f10x_i2c.o(i.I2C_Send7bitAddress), (18 bytes).
    Removing stm32f10x_i2c.o(i.I2C_SendData), (4 bytes).
    Removing stm32f10x_i2c.o(i.I2C_SoftwareResetCmd), (22 bytes).
    Removing stm32f10x_i2c.o(i.I2C_StretchClockCmd), (24 bytes).
    Removing stm32f10x_i2c.o(i.I2C_StructInit), (30 bytes).
    Removing stm32f10x_i2c.o(i.I2C_TransmitPEC), (24 bytes).
    Removing stm32f10x_iwdg.o(i.IWDG_Enable), (16 bytes).
    Removing stm32f10x_iwdg.o(i.IWDG_GetFlagStatus), (24 bytes).
    Removing stm32f10x_iwdg.o(i.IWDG_ReloadCounter), (16 bytes).
    Removing stm32f10x_iwdg.o(i.IWDG_SetPrescaler), (12 bytes).
    Removing stm32f10x_iwdg.o(i.IWDG_SetReload), (12 bytes).
    Removing stm32f10x_iwdg.o(i.IWDG_WriteAccessCmd), (12 bytes).
    Removing stm32f10x_pwr.o(i.PWR_BackupAccessCmd), (12 bytes).
    Removing stm32f10x_pwr.o(i.PWR_ClearFlag), (20 bytes).
    Removing stm32f10x_pwr.o(i.PWR_DeInit), (22 bytes).
    Removing stm32f10x_pwr.o(i.PWR_EnterSTANDBYMode), (52 bytes).
    Removing stm32f10x_pwr.o(i.PWR_EnterSTOPMode), (64 bytes).
    Removing stm32f10x_pwr.o(i.PWR_GetFlagStatus), (24 bytes).
    Removing stm32f10x_pwr.o(i.PWR_PVDCmd), (12 bytes).
    Removing stm32f10x_pwr.o(i.PWR_PVDLevelConfig), (24 bytes).
    Removing stm32f10x_pwr.o(i.PWR_WakeUpPinCmd), (12 bytes).
    Removing stm32f10x_rcc.o(i.RCC_AHBPeriphClockCmd), (32 bytes).
    Removing stm32f10x_rcc.o(i.RCC_AdjustHSICalibrationValue), (24 bytes).
    Removing stm32f10x_rcc.o(i.RCC_BackupResetCmd), (12 bytes).
    Removing stm32f10x_rcc.o(i.RCC_ClearFlag), (20 bytes).
    Removing stm32f10x_rcc.o(i.RCC_ClearITPendingBit), (12 bytes).
    Removing stm32f10x_rcc.o(i.RCC_ClockSecuritySystemCmd), (12 bytes).
    Removing stm32f10x_rcc.o(i.RCC_GetITStatus), (24 bytes).
    Removing stm32f10x_rcc.o(i.RCC_HSICmd), (12 bytes).
    Removing stm32f10x_rcc.o(i.RCC_ITConfig), (32 bytes).
    Removing stm32f10x_rcc.o(i.RCC_LSEConfig), (52 bytes).
    Removing stm32f10x_rcc.o(i.RCC_LSICmd), (12 bytes).
    Removing stm32f10x_rcc.o(i.RCC_MCOConfig), (12 bytes).
    Removing stm32f10x_rcc.o(i.RCC_RTCCLKCmd), (12 bytes).
    Removing stm32f10x_rcc.o(i.RCC_RTCCLKConfig), (16 bytes).
    Removing stm32f10x_rcc.o(i.RCC_USBCLKConfig), (12 bytes).
    Removing stm32f10x_rtc.o(i.RTC_ClearFlag), (16 bytes).
    Removing stm32f10x_rtc.o(i.RTC_ClearITPendingBit), (16 bytes).
    Removing stm32f10x_rtc.o(i.RTC_EnterConfigMode), (20 bytes).
    Removing stm32f10x_rtc.o(i.RTC_ExitConfigMode), (20 bytes).
    Removing stm32f10x_rtc.o(i.RTC_GetCounter), (20 bytes).
    Removing stm32f10x_rtc.o(i.RTC_GetDivider), (24 bytes).
    Removing stm32f10x_rtc.o(i.RTC_GetFlagStatus), (24 bytes).
    Removing stm32f10x_rtc.o(i.RTC_GetITStatus), (36 bytes).
    Removing stm32f10x_rtc.o(i.RTC_ITConfig), (32 bytes).
    Removing stm32f10x_rtc.o(i.RTC_SetAlarm), (28 bytes).
    Removing stm32f10x_rtc.o(i.RTC_SetCounter), (28 bytes).
    Removing stm32f10x_rtc.o(i.RTC_SetPrescaler), (32 bytes).
    Removing stm32f10x_rtc.o(i.RTC_WaitForLastTask), (20 bytes).
    Removing stm32f10x_rtc.o(i.RTC_WaitForSynchro), (36 bytes).
    Removing stm32f10x_sdio.o(i.SDIO_CEATAITCmd), (16 bytes).
    Removing stm32f10x_sdio.o(i.SDIO_ClearFlag), (12 bytes).
    Removing stm32f10x_sdio.o(i.SDIO_ClearITPendingBit), (12 bytes).
    Removing stm32f10x_sdio.o(i.SDIO_ClockCmd), (12 bytes).
    Removing stm32f10x_sdio.o(i.SDIO_CmdStructInit), (14 bytes).
    Removing stm32f10x_sdio.o(i.SDIO_CommandCompletionCmd), (12 bytes).
    Removing stm32f10x_sdio.o(i.SDIO_DMACmd), (12 bytes).
    Removing stm32f10x_sdio.o(i.SDIO_DataConfig), (48 bytes).
    Removing stm32f10x_sdio.o(i.SDIO_DataStructInit), (20 bytes).
    Removing stm32f10x_sdio.o(i.SDIO_DeInit), (36 bytes).
    Removing stm32f10x_sdio.o(i.SDIO_GetCommandResponse), (12 bytes).
    Removing stm32f10x_sdio.o(i.SDIO_GetDataCounter), (12 bytes).
    Removing stm32f10x_sdio.o(i.SDIO_GetFIFOCount), (12 bytes).
    Removing stm32f10x_sdio.o(i.SDIO_GetFlagStatus), (24 bytes).
    Removing stm32f10x_sdio.o(i.SDIO_GetITStatus), (24 bytes).
    Removing stm32f10x_sdio.o(i.SDIO_GetPowerState), (16 bytes).
    Removing stm32f10x_sdio.o(i.SDIO_GetResponse), (24 bytes).
    Removing stm32f10x_sdio.o(i.SDIO_ITConfig), (32 bytes).
    Removing stm32f10x_sdio.o(i.SDIO_Init), (48 bytes).
    Removing stm32f10x_sdio.o(i.SDIO_ReadData), (12 bytes).
    Removing stm32f10x_sdio.o(i.SDIO_SendCEATACmd), (12 bytes).
    Removing stm32f10x_sdio.o(i.SDIO_SendCommand), (44 bytes).
    Removing stm32f10x_sdio.o(i.SDIO_SendSDIOSuspendCmd), (12 bytes).
    Removing stm32f10x_sdio.o(i.SDIO_SetPowerState), (28 bytes).
    Removing stm32f10x_sdio.o(i.SDIO_SetSDIOOperation), (12 bytes).
    Removing stm32f10x_sdio.o(i.SDIO_SetSDIOReadWaitMode), (12 bytes).
    Removing stm32f10x_sdio.o(i.SDIO_StartSDIOReadWait), (12 bytes).
    Removing stm32f10x_sdio.o(i.SDIO_StopSDIOReadWait), (12 bytes).
    Removing stm32f10x_sdio.o(i.SDIO_StructInit), (16 bytes).
    Removing stm32f10x_sdio.o(i.SDIO_WriteData), (12 bytes).
    Removing stm32f10x_spi.o(i.I2S_Cmd), (24 bytes).
    Removing stm32f10x_spi.o(i.I2S_Init), (232 bytes).
    Removing stm32f10x_spi.o(i.I2S_StructInit), (20 bytes).
    Removing stm32f10x_spi.o(i.SPI_BiDirectionalLineConfig), (28 bytes).
    Removing stm32f10x_spi.o(i.SPI_CalculateCRC), (24 bytes).
    Removing stm32f10x_spi.o(i.SPI_Cmd), (24 bytes).
    Removing stm32f10x_spi.o(i.SPI_DataSizeConfig), (18 bytes).
    Removing stm32f10x_spi.o(i.SPI_GetCRC), (16 bytes).
    Removing stm32f10x_spi.o(i.SPI_GetCRCPolynomial), (6 bytes).
    Removing stm32f10x_spi.o(i.SPI_I2S_ClearFlag), (6 bytes).
    Removing stm32f10x_spi.o(i.SPI_I2S_ClearITPendingBit), (20 bytes).
    Removing stm32f10x_spi.o(i.SPI_I2S_DMACmd), (18 bytes).
    Removing stm32f10x_spi.o(i.SPI_I2S_DeInit), (88 bytes).
    Removing stm32f10x_spi.o(i.SPI_I2S_GetFlagStatus), (18 bytes).
    Removing stm32f10x_spi.o(i.SPI_I2S_GetITStatus), (52 bytes).
    Removing stm32f10x_spi.o(i.SPI_I2S_ITConfig), (32 bytes).
    Removing stm32f10x_spi.o(i.SPI_I2S_ReceiveData), (6 bytes).
    Removing stm32f10x_spi.o(i.SPI_I2S_SendData), (4 bytes).
    Removing stm32f10x_spi.o(i.SPI_Init), (60 bytes).
    Removing stm32f10x_spi.o(i.SPI_NSSInternalSoftwareConfig), (30 bytes).
    Removing stm32f10x_spi.o(i.SPI_SSOutputCmd), (24 bytes).
    Removing stm32f10x_spi.o(i.SPI_StructInit), (24 bytes).
    Removing stm32f10x_spi.o(i.SPI_TransmitCRC), (10 bytes).
    Removing stm32f10x_tim.o(i.TI1_Config), (128 bytes).
    Removing stm32f10x_tim.o(i.TI2_Config), (152 bytes).
    Removing stm32f10x_tim.o(i.TI3_Config), (144 bytes).
    Removing stm32f10x_tim.o(i.TI4_Config), (152 bytes).
    Removing stm32f10x_tim.o(i.TIM_ARRPreloadConfig), (24 bytes).
    Removing stm32f10x_tim.o(i.TIM_BDTRConfig), (32 bytes).
    Removing stm32f10x_tim.o(i.TIM_BDTRStructInit), (18 bytes).
    Removing stm32f10x_tim.o(i.TIM_CCPreloadControl), (24 bytes).
    Removing stm32f10x_tim.o(i.TIM_CCxCmd), (30 bytes).
    Removing stm32f10x_tim.o(i.TIM_CCxNCmd), (30 bytes).
    Removing stm32f10x_tim.o(i.TIM_ClearOC1Ref), (18 bytes).
    Removing stm32f10x_tim.o(i.TIM_ClearOC2Ref), (24 bytes).
    Removing stm32f10x_tim.o(i.TIM_ClearOC3Ref), (18 bytes).
    Removing stm32f10x_tim.o(i.TIM_ClearOC4Ref), (24 bytes).
    Removing stm32f10x_tim.o(i.TIM_CounterModeConfig), (18 bytes).
    Removing stm32f10x_tim.o(i.TIM_CtrlPWMOutputs), (30 bytes).
    Removing stm32f10x_tim.o(i.TIM_DMACmd), (18 bytes).
    Removing stm32f10x_tim.o(i.TIM_DMAConfig), (10 bytes).
    Removing stm32f10x_tim.o(i.TIM_ETRClockMode1Config), (54 bytes).
    Removing stm32f10x_tim.o(i.TIM_ETRClockMode2Config), (32 bytes).
    Removing stm32f10x_tim.o(i.TIM_ETRConfig), (28 bytes).
    Removing stm32f10x_tim.o(i.TIM_EncoderInterfaceConfig), (66 bytes).
    Removing stm32f10x_tim.o(i.TIM_ForcedOC1Config), (18 bytes).
    Removing stm32f10x_tim.o(i.TIM_ForcedOC2Config), (26 bytes).
    Removing stm32f10x_tim.o(i.TIM_ForcedOC3Config), (18 bytes).
    Removing stm32f10x_tim.o(i.TIM_ForcedOC4Config), (26 bytes).
    Removing stm32f10x_tim.o(i.TIM_GenerateEvent), (4 bytes).
    Removing stm32f10x_tim.o(i.TIM_GetCapture1), (6 bytes).
    Removing stm32f10x_tim.o(i.TIM_GetCapture2), (6 bytes).
    Removing stm32f10x_tim.o(i.TIM_GetCapture3), (6 bytes).
    Removing stm32f10x_tim.o(i.TIM_GetCapture4), (8 bytes).
    Removing stm32f10x_tim.o(i.TIM_GetCounter), (6 bytes).
    Removing stm32f10x_tim.o(i.TIM_GetFlagStatus), (18 bytes).
    Removing stm32f10x_tim.o(i.TIM_GetPrescaler), (6 bytes).
    Removing stm32f10x_tim.o(i.TIM_ICInit), (172 bytes).
    Removing stm32f10x_tim.o(i.TIM_ICStructInit), (18 bytes).
    Removing stm32f10x_tim.o(i.TIM_ITRxExternalClockConfig), (24 bytes).
    Removing stm32f10x_tim.o(i.TIM_InternalClockConfig), (12 bytes).
    Removing stm32f10x_tim.o(i.TIM_OC1FastConfig), (18 bytes).
    Removing stm32f10x_tim.o(i.TIM_OC1Init), (152 bytes).
    Removing stm32f10x_tim.o(i.TIM_OC1NPolarityConfig), (18 bytes).
    Removing stm32f10x_tim.o(i.TIM_OC1PolarityConfig), (18 bytes).
    Removing stm32f10x_tim.o(i.TIM_OC1PreloadConfig), (18 bytes).
    Removing stm32f10x_tim.o(i.TIM_OC2FastConfig), (26 bytes).
    Removing stm32f10x_tim.o(i.TIM_OC2Init), (164 bytes).
    Removing stm32f10x_tim.o(i.TIM_OC2NPolarityConfig), (26 bytes).
    Removing stm32f10x_tim.o(i.TIM_OC2PolarityConfig), (26 bytes).
    Removing stm32f10x_tim.o(i.TIM_OC2PreloadConfig), (26 bytes).
    Removing stm32f10x_tim.o(i.TIM_OC3FastConfig), (18 bytes).
    Removing stm32f10x_tim.o(i.TIM_OC3Init), (160 bytes).
    Removing stm32f10x_tim.o(i.TIM_OC3NPolarityConfig), (26 bytes).
    Removing stm32f10x_tim.o(i.TIM_OC3PolarityConfig), (26 bytes).
    Removing stm32f10x_tim.o(i.TIM_OC3PreloadConfig), (18 bytes).
    Removing stm32f10x_tim.o(i.TIM_OC4FastConfig), (26 bytes).
    Removing stm32f10x_tim.o(i.TIM_OC4Init), (124 bytes).
    Removing stm32f10x_tim.o(i.TIM_OC4PolarityConfig), (26 bytes).
    Removing stm32f10x_tim.o(i.TIM_OC4PreloadConfig), (26 bytes).
    Removing stm32f10x_tim.o(i.TIM_OCStructInit), (20 bytes).
    Removing stm32f10x_tim.o(i.TIM_PWMIConfig), (124 bytes).
    Removing stm32f10x_tim.o(i.TIM_PrescalerConfig), (6 bytes).
    Removing stm32f10x_tim.o(i.TIM_SelectCCDMA), (24 bytes).
    Removing stm32f10x_tim.o(i.TIM_SelectCOM), (24 bytes).
    Removing stm32f10x_tim.o(i.TIM_SelectHallSensor), (24 bytes).
    Removing stm32f10x_tim.o(i.TIM_SelectInputTrigger), (18 bytes).
    Removing stm32f10x_tim.o(i.TIM_SelectMasterSlaveMode), (18 bytes).
    Removing stm32f10x_tim.o(i.TIM_SelectOCxM), (82 bytes).
    Removing stm32f10x_tim.o(i.TIM_SelectOnePulseMode), (18 bytes).
    Removing stm32f10x_tim.o(i.TIM_SelectOutputTrigger), (18 bytes).
    Removing stm32f10x_tim.o(i.TIM_SelectSlaveMode), (18 bytes).
    Removing stm32f10x_tim.o(i.TIM_SetAutoreload), (4 bytes).
    Removing stm32f10x_tim.o(i.TIM_SetClockDivision), (18 bytes).
    Removing stm32f10x_tim.o(i.TIM_SetCompare1), (4 bytes).
    Removing stm32f10x_tim.o(i.TIM_SetCompare2), (4 bytes).
    Removing stm32f10x_tim.o(i.TIM_SetCompare3), (4 bytes).
    Removing stm32f10x_tim.o(i.TIM_SetCompare4), (6 bytes).
    Removing stm32f10x_tim.o(i.TIM_SetCounter), (4 bytes).
    Removing stm32f10x_tim.o(i.TIM_SetIC1Prescaler), (18 bytes).
    Removing stm32f10x_tim.o(i.TIM_SetIC2Prescaler), (26 bytes).
    Removing stm32f10x_tim.o(i.TIM_SetIC3Prescaler), (18 bytes).
    Removing stm32f10x_tim.o(i.TIM_SetIC4Prescaler), (26 bytes).
    Removing stm32f10x_tim.o(i.TIM_TIxExternalClockConfig), (62 bytes).
    Removing stm32f10x_tim.o(i.TIM_TimeBaseStructInit), (18 bytes).
    Removing stm32f10x_tim.o(i.TIM_UpdateDisableConfig), (24 bytes).
    Removing stm32f10x_tim.o(i.TIM_UpdateRequestConfig), (24 bytes).
    Removing stm32f10x_usart.o(i.USART_ClearFlag), (18 bytes).
    Removing stm32f10x_usart.o(i.USART_ClearITPendingBit), (30 bytes).
    Removing stm32f10x_usart.o(i.USART_ClockInit), (34 bytes).
    Removing stm32f10x_usart.o(i.USART_ClockStructInit), (12 bytes).
    Removing stm32f10x_usart.o(i.USART_DMACmd), (18 bytes).
    Removing stm32f10x_usart.o(i.USART_HalfDuplexCmd), (24 bytes).
    Removing stm32f10x_usart.o(i.USART_IrDACmd), (24 bytes).
    Removing stm32f10x_usart.o(i.USART_IrDAConfig), (18 bytes).
    Removing stm32f10x_usart.o(i.USART_LINBreakDetectLengthConfig), (18 bytes).
    Removing stm32f10x_usart.o(i.USART_LINCmd), (24 bytes).
    Removing stm32f10x_usart.o(i.USART_OneBitMethodCmd), (24 bytes).
    Removing stm32f10x_usart.o(i.USART_OverSampling8Cmd), (22 bytes).
    Removing stm32f10x_usart.o(i.USART_ReceiverWakeUpCmd), (24 bytes).
    Removing stm32f10x_usart.o(i.USART_SendBreak), (10 bytes).
    Removing stm32f10x_usart.o(i.USART_SetAddress), (18 bytes).
    Removing stm32f10x_usart.o(i.USART_SetGuardTime), (16 bytes).
    Removing stm32f10x_usart.o(i.USART_SetPrescaler), (16 bytes).
    Removing stm32f10x_usart.o(i.USART_SmartCardCmd), (24 bytes).
    Removing stm32f10x_usart.o(i.USART_SmartCardNACKCmd), (24 bytes).
    Removing stm32f10x_usart.o(i.USART_StructInit), (24 bytes).
    Removing stm32f10x_usart.o(i.USART_WakeUpConfig), (18 bytes).
    Removing stm32f10x_wwdg.o(i.WWDG_ClearFlag), (12 bytes).
    Removing stm32f10x_wwdg.o(i.WWDG_DeInit), (22 bytes).
    Removing stm32f10x_wwdg.o(i.WWDG_Enable), (16 bytes).
    Removing stm32f10x_wwdg.o(i.WWDG_EnableIT), (12 bytes).
    Removing stm32f10x_wwdg.o(i.WWDG_GetFlagStatus), (12 bytes).
    Removing stm32f10x_wwdg.o(i.WWDG_SetCounter), (16 bytes).
    Removing stm32f10x_wwdg.o(i.WWDG_SetPrescaler), (24 bytes).
    Removing stm32f10x_wwdg.o(i.WWDG_SetWindowValue), (40 bytes).
    Removing los_priqueue.o(i.LOS_PriqueueTotalSize), (28 bytes).
    Removing los_swtmr.o(i.LOS_SwtmrCreate), (140 bytes).
    Removing los_swtmr.o(i.LOS_SwtmrDelete), (132 bytes).
    Removing los_swtmr.o(i.LOS_SwtmrStart), (132 bytes).
    Removing los_swtmr.o(i.LOS_SwtmrStop), (128 bytes).
    Removing los_swtmr.o(i.osSwTmrAdjust), (52 bytes).
    Removing los_swtmr.o(i.osSwTmrGetNextTimeout), (24 bytes).
    Removing los_swtmr.o(i.osSwtmrStop), (72 bytes).
    Removing los_sys.o(i.LOS_CyclePerTickGet), (8 bytes).
    Removing los_sys.o(i.LOS_MS2Tick), (40 bytes).
    Removing los_sys.o(i.LOS_Reboot), (8 bytes).
    Removing los_sys.o(i.LOS_Tick2MS), (28 bytes).
    Removing los_sys.o(i.LOS_TickCountGet), (12 bytes).
    Removing los_sys.o(i.get_jiffies_64), (8 bytes).
    Removing los_sys.o(i.jiffies_to_msecs), (12 bytes).
    Removing los_sys.o(i.osCpuTick2MS), (100 bytes).
    Removing los_sys.o(i.osCpuTick2US), (100 bytes).
    Removing los_task.o(i.LOS_CurTaskIDGet), (28 bytes).
    Removing los_task.o(i.LOS_CurTaskPriSet), (28 bytes).
    Removing los_task.o(i.LOS_TaskDelete), (360 bytes).
    Removing los_task.o(i.LOS_TaskPriGet), (84 bytes).
    Removing los_task.o(i.LOS_TaskPriSet), (168 bytes).
    Removing los_task.o(i.LOS_TaskResume), (176 bytes).
    Removing los_task.o(i.LOS_TaskSuspend), (228 bytes).
    Removing los_task.o(i.osTaskPriModify), (56 bytes).
    Removing los_event.o(i.LOS_EventClear), (40 bytes).
    Removing los_event.o(i.LOS_EventDestory), (24 bytes).
    Removing los_event.o(i.LOS_EventInit), (28 bytes).
    Removing los_event.o(i.LOS_EventPoll), (80 bytes).
    Removing los_event.o(i.LOS_EventRead), (348 bytes).
    Removing los_event.o(i.LOS_EventWrite), (248 bytes).
    Removing los_mux.o(i.LOS_ListDelete), (20 bytes).
    Removing los_mux.o(i.LOS_ListEmpty), (16 bytes).
    Removing los_mux.o(i.LOS_MuxCreate), (100 bytes).
    Removing los_mux.o(i.LOS_MuxDelete), (104 bytes).
    Removing los_mux.o(i.LOS_MuxPend), (328 bytes).
    Removing los_mux.o(i.LOS_MuxPost), (256 bytes).
    Removing los_queue.o(i.LOS_QueueDelete), (176 bytes).
    Removing los_queue.o(i.osQueueMailAlloc), (168 bytes).
    Removing los_queue.o(i.osQueueMailFree), (152 bytes).
    Removing los_sem.o(i.LOS_SemCreate), (108 bytes).
    Removing los_sem.o(i.LOS_SemDelete), (96 bytes).
    Removing los_sem.o(i.LOS_SemPend), (256 bytes).
    Removing los_membox.o(i.LOS_MemboxClr), (28 bytes).
    Removing los_memory.o(i.LOS_MemRealloc), (346 bytes).
    Removing los_memstat.o(i.osTaskMemUsage), (24 bytes).
    Removing los_misc.o(i.LOS_Msleep), (48 bytes).
    Removing los_config.o(i.osBackTrace), (2 bytes).
    Removing los_config.o(i.osEnableFPU), (20 bytes).
    Removing los_hw_tick.o(i.LOS_GetCpuCycle), (116 bytes).
    Removing los_hwi.o(i.LOS_HwiCreate), (164 bytes).
    Removing los_hwi.o(i.LOS_HwiDelete), (76 bytes).
    Removing mcu_init.o(i.system_softreset), (48 bytes).
    Removing ult.o(i.ATOI), (32 bytes).
    Removing ult.o(i.ATOI32), (32 bytes).
    Removing ult.o(i.C2D), (54 bytes).
    Removing ult.o(i.ValidATOI), (72 bytes).
    Removing ult.o(i.delay_ms), (30 bytes).
    Removing ult.o(i.delay_s), (22 bytes).
    Removing ult.o(i.delay_us), (28 bytes).
    Removing ult.o(i.inet_addr_), (96 bytes).
    Removing ult.o(i.itoa), (64 bytes).
    Removing ult.o(i.itoa1), (100 bytes).
    Removing ult.o(i.mid), (68 bytes).
    Removing ult.o(i.replacetochar), (26 bytes).
    Removing ult.o(i.swapl), (28 bytes).
    Removing ult.o(i.swaps), (14 bytes).
    Removing usart2.o(i.USART2_Putc), (32 bytes).
    Removing usart2.o(i.USART2_Puts), (44 bytes).
    Removing usart2.o(i.usart2_printf), (80 bytes).
    Removing usart2.o(.bss), (32 bytes).
    Removing sht10.o(i.SHT10_Config), (76 bytes).
    Removing sht10.o(i.SHT10_DATAIn), (36 bytes).
    Removing sht10.o(i.SHT10_DATAOut), (36 bytes).
    Removing sht10.o(i.SHT10_Dly), (16 bytes).
    Removing sht10.o(i.SHT10_ReadByte), (140 bytes).
    Removing sht10.o(i.SHT10_ReadStatusReg), (40 bytes).
    Removing sht10.o(i.SHT10_SoftReset), (22 bytes).
    Removing sht10.o(i.SHT10_TransStart), (116 bytes).
    Removing sht10.o(i.SHT10_WriteByte), (132 bytes).
    Removing sht10.o(i.SHT10_WriteStatusReg), (34 bytes).
    Removing sht10.o(i.crc8_check), (32 bytes).
    Removing sht10.o(i.reverse_bit), (76 bytes).
    Removing sht10.o(i.sht10_calcu_dewpoint), (224 bytes).
    Removing sht10.o(i.sht10_calculate), (288 bytes).
    Removing sht10.o(i.sht10_conreset), (76 bytes).
    Removing sht10.o(i.sht10_init), (80 bytes).
    Removing sht10.o(i.sht10_measure), (308 bytes).
    Removing sht10.o(.constdata), (256 bytes).
    Removing _xassert.o(i._xassert), (8 bytes).
    Removing bh1750_s.o(i.Cmd_Write_BH1750), (52 bytes).
    Removing bh1750_s.o(i.Convert_BH1750), (84 bytes).
    Removing bh1750_s.o(i.Init_BH1750), (8 bytes).
    Removing bh1750_s.o(i.Read_BH1750), (60 bytes).
    Removing bh1750_s.o(i.Start_BH1750), (22 bytes).
    Removing bh1750_s.o(i.get_lux_val), (40 bytes).
    Removing bh1750_s.o(.data), (8 bytes).
    Removing i2c_s.o(i.I2C_Ack), (60 bytes).
    Removing i2c_s.o(i.I2C_NAck), (60 bytes).
    Removing i2c_s.o(i.I2C_Read_Byte), (92 bytes).
    Removing i2c_s.o(i.I2C_Send_Byte), (84 bytes).
    Removing i2c_s.o(i.I2C_Start), (56 bytes).
    Removing i2c_s.o(i.I2C_Stop), (52 bytes).
    Removing i2c_s.o(i.I2C_Wait_Ack), (80 bytes).
    Removing i2c_s.o(i.SDA_IN), (36 bytes).
    Removing i2c_s.o(i.SDA_OUT), (36 bytes).
    Removing i2c_s.o(i.i2c_Port_Init), (104 bytes).
    Removing usart.o(i.USART1_Putc), (32 bytes).
    Removing usart.o(i.USART1_Puts), (44 bytes).
    Removing usart.o(i.usart1_send_nbyte), (26 bytes).
    Removing usart3.o(i.USART3_Putc), (32 bytes).
    Removing usart3.o(i.usart3_send_nbyte), (26 bytes).
    Removing timer.o(i.Timer3_Config), (80 bytes).
    Removing timer.o(i.timer3_init), (8 bytes).
    Removing fadd.o(.text), (176 bytes).
    Removing fmul.o(.text), (100 bytes).
    Removing ffltui.o(.text), (10 bytes).
    Removing dfltul.o(.text), (24 bytes).
    Removing ffixui.o(.text), (40 bytes).
    Removing f2d.o(.text), (38 bytes).
    Removing cdcmple.o(.text), (48 bytes).
    Removing d2f.o(.text), (56 bytes).
    Removing cfrcmple.o(.text), (20 bytes).
    Removing fepilogue.o(.text), (110 bytes).
    Removing dscalb.o(.text), (46 bytes).
    Removing dflti.o(.text), (34 bytes).

563 unused section(s) (total 27542 bytes) removed from the image.

==============================================================================

Image Symbol Table

    Local Symbols

    Symbol Name                              Value     Ov Type        Size  Object(Section)

    ../clib/../cmprslib/zerorunl2.c          0x00000000   Number         0  __dczerorl2.o ABSOLUTE
    ../clib/microlib/ctype/ctype.c           0x00000000   Number         0  isblank_o.o ABSOLUTE
    ../clib/microlib/ctype/ctype.c           0x00000000   Number         0  isalpha_o.o ABSOLUTE
    ../clib/microlib/ctype/ctype.c           0x00000000   Number         0  ctype_o.o ABSOLUTE
    ../clib/microlib/ctype/ctype.c           0x00000000   Number         0  isalnum_o.o ABSOLUTE
    ../clib/microlib/ctype/ctype.c           0x00000000   Number         0  iscntrl_o.o ABSOLUTE
    ../clib/microlib/ctype/ctype.c           0x00000000   Number         0  isdigit_o.o ABSOLUTE
    ../clib/microlib/ctype/ctype.c           0x00000000   Number         0  isgraph_o.o ABSOLUTE
    ../clib/microlib/ctype/ctype.c           0x00000000   Number         0  isprint_o.o ABSOLUTE
    ../clib/microlib/ctype/ctype.c           0x00000000   Number         0  ispunct_o.o ABSOLUTE
    ../clib/microlib/ctype/ctype.c           0x00000000   Number         0  isspace_o.o ABSOLUTE
    ../clib/microlib/ctype/ctype.c           0x00000000   Number         0  isupper_o.o ABSOLUTE
    ../clib/microlib/ctype/ctype.c           0x00000000   Number         0  isxdigit_o.o ABSOLUTE
    ../clib/microlib/ctype/ctype.c           0x00000000   Number         0  islower_o.o ABSOLUTE
    ../clib/microlib/division.c              0x00000000   Number         0  uidiv.o ABSOLUTE
    ../clib/microlib/division.c              0x00000000   Number         0  uldiv.o ABSOLUTE
    ../clib/microlib/errno.c                 0x00000000   Number         0  errno.o ABSOLUTE
    ../clib/microlib/init/entry.s            0x00000000   Number         0  entry3.o ABSOLUTE
    ../clib/microlib/init/entry.s            0x00000000   Number         0  entry8a.o ABSOLUTE
    ../clib/microlib/init/entry.s            0x00000000   Number         0  entry7a.o ABSOLUTE
    ../clib/microlib/init/entry.s            0x00000000   Number         0  entry9b.o ABSOLUTE
    ../clib/microlib/init/entry.s            0x00000000   Number         0  entry7b.o ABSOLUTE
    ../clib/microlib/init/entry.s            0x00000000   Number         0  entry5.o ABSOLUTE
    ../clib/microlib/init/entry.s            0x00000000   Number         0  entry11b.o ABSOLUTE
    ../clib/microlib/init/entry.s            0x00000000   Number         0  entry11a.o ABSOLUTE
    ../clib/microlib/init/entry.s            0x00000000   Number         0  entry10b.o ABSOLUTE
    ../clib/microlib/init/entry.s            0x00000000   Number         0  entry10a.o ABSOLUTE
    ../clib/microlib/init/entry.s            0x00000000   Number         0  entry9a.o ABSOLUTE
    ../clib/microlib/init/entry.s            0x00000000   Number         0  entry8b.o ABSOLUTE
    ../clib/microlib/init/entry.s            0x00000000   Number         0  entry.o ABSOLUTE
    ../clib/microlib/longlong.c              0x00000000   Number         0  llsshr.o ABSOLUTE
    ../clib/microlib/longlong.c              0x00000000   Number         0  llushr.o ABSOLUTE
    ../clib/microlib/longlong.c              0x00000000   Number         0  llshl.o ABSOLUTE
    ../clib/microlib/printf/printf.c         0x00000000   Number         0  printfb.o ABSOLUTE
    ../clib/microlib/printf/printf.c         0x00000000   Number         0  printf8.o ABSOLUTE
    ../clib/microlib/printf/printf.c         0x00000000   Number         0  printf7.o ABSOLUTE
    ../clib/microlib/printf/printf.c         0x00000000   Number         0  printf6.o ABSOLUTE
    ../clib/microlib/printf/printf.c         0x00000000   Number         0  printf0.o ABSOLUTE
    ../clib/microlib/printf/printf.c         0x00000000   Number         0  printfa.o ABSOLUTE
    ../clib/microlib/printf/printf.c         0x00000000   Number         0  printf1.o ABSOLUTE
    ../clib/microlib/printf/printf.c         0x00000000   Number         0  printf2.o ABSOLUTE
    ../clib/microlib/printf/printf.c         0x00000000   Number         0  printf3.o ABSOLUTE
    ../clib/microlib/printf/printf.c         0x00000000   Number         0  printf4.o ABSOLUTE
    ../clib/microlib/printf/printf.c         0x00000000   Number         0  printf5.o ABSOLUTE
    ../clib/microlib/printf/stubs.s          0x00000000   Number         0  stubs.o ABSOLUTE
    ../clib/microlib/stdio/streams.c         0x00000000   Number         0  stdout.o ABSOLUTE
    ../clib/microlib/string/memcpy.c         0x00000000   Number         0  memcpyb.o ABSOLUTE
    ../clib/microlib/string/memcpy.c         0x00000000   Number         0  memcpya.o ABSOLUTE
    ../clib/microlib/string/memset.c         0x00000000   Number         0  memseta.o ABSOLUTE
    ../clib/microlib/string/strcpy.c         0x00000000   Number         0  strcpy.o ABSOLUTE
    ../clib/microlib/string/strlen.c         0x00000000   Number         0  strlen.o ABSOLUTE
    ../clib/microlib/string/strncpy.c        0x00000000   Number         0  strncpy.o ABSOLUTE
    ../clib/microlib/string/strstr.c         0x00000000   Number         0  strstr.o ABSOLUTE
    ../clib/microlib/string/strtok.c         0x00000000   Number         0  strtok.o ABSOLUTE
    ../clib/microlib/string/strtok.c         0x00000000   Number         0  strtok_r.o ABSOLUTE
    ../clib/microlib/stubs.s                 0x00000000   Number         0  iusefp.o ABSOLUTE
    ../clib/scanf.c                          0x00000000   Number         0  strtol.o ABSOLUTE
    ../clib/scanf.c                          0x00000000   Number         0  atoi.o ABSOLUTE
    ../clib/scanf.c                          0x00000000   Number         0  _strtoul.o ABSOLUTE
    ../clib/scanf.c                          0x00000000   Number         0  _chval.o ABSOLUTE
    ../fplib/microlib/d2f.c                  0x00000000   Number         0  d2f.o ABSOLUTE
    ../fplib/microlib/f2d.c                  0x00000000   Number         0  f2d.o ABSOLUTE
    ../fplib/microlib/fpadd.c                0x00000000   Number         0  fadd.o ABSOLUTE
    ../fplib/microlib/fpadd.c                0x00000000   Number         0  dadd.o ABSOLUTE
    ../fplib/microlib/fpdiv.c                0x00000000   Number         0  ddiv.o ABSOLUTE
    ../fplib/microlib/fpepilogue.c           0x00000000   Number         0  depilogue.o ABSOLUTE
    ../fplib/microlib/fpepilogue.c           0x00000000   Number         0  fepilogue.o ABSOLUTE
    ../fplib/microlib/fpfix.c                0x00000000   Number         0  dfixul.o ABSOLUTE
    ../fplib/microlib/fpfix.c                0x00000000   Number         0  ffixui.o ABSOLUTE
    ../fplib/microlib/fpflt.c                0x00000000   Number         0  dflti.o ABSOLUTE
    ../fplib/microlib/fpflt.c                0x00000000   Number         0  dfltul.o ABSOLUTE
    ../fplib/microlib/fpflt.c                0x00000000   Number         0  ffltui.o ABSOLUTE
    ../fplib/microlib/fpmul.c                0x00000000   Number         0  dmul.o ABSOLUTE
    ../fplib/microlib/fpmul.c                0x00000000   Number         0  fmul.o ABSOLUTE
    ../fplib/microlib/fpscalb.c              0x00000000   Number         0  dscalb.o ABSOLUTE
    ../mathlib/dunder.c                      0x00000000   Number         0  dunder.o ABSOLUTE
    ../mathlib/log.c                         0x00000000   Number         0  log.o ABSOLUTE
    ../mathlib/log.c                         0x00000000   Number         0  log_x.o ABSOLUTE
    ../mathlib/log10.c                       0x00000000   Number         0  log10.o ABSOLUTE
    ../mathlib/log10.c                       0x00000000   Number         0  log10_x.o ABSOLUTE
    ../mathlib/poly.c                        0x00000000   Number         0  poly.o ABSOLUTE
    ../mathlib/qnan.c                        0x00000000   Number         0  qnan.o ABSOLUTE
    ..\Huawei_LiteOS\kernel\base\core\los_priqueue.c 0x00000000   Number         0  los_priqueue.o ABSOLUTE
    ..\Huawei_LiteOS\kernel\base\core\los_swtmr.c 0x00000000   Number         0  los_swtmr.o ABSOLUTE
    ..\Huawei_LiteOS\kernel\base\core\los_sys.c 0x00000000   Number         0  los_sys.o ABSOLUTE
    ..\Huawei_LiteOS\kernel\base\core\los_task.c 0x00000000   Number         0  los_task.o ABSOLUTE
    ..\Huawei_LiteOS\kernel\base\core\los_tick.c 0x00000000   Number         0  los_tick.o ABSOLUTE
    ..\Huawei_LiteOS\kernel\base\core\los_timeslice.c 0x00000000   Number         0  los_timeslice.o ABSOLUTE
    ..\Huawei_LiteOS\kernel\base\ipc\los_event.c 0x00000000   Number         0  los_event.o ABSOLUTE
    ..\Huawei_LiteOS\kernel\base\ipc\los_mux.c 0x00000000   Number         0  los_mux.o ABSOLUTE
    ..\Huawei_LiteOS\kernel\base\ipc\los_queue.c 0x00000000   Number         0  los_queue.o ABSOLUTE
    ..\Huawei_LiteOS\kernel\base\ipc\los_sem.c 0x00000000   Number         0  los_sem.o ABSOLUTE
    ..\Huawei_LiteOS\kernel\base\mem\los_membox.c 0x00000000   Number         0  los_membox.o ABSOLUTE
    ..\Huawei_LiteOS\kernel\base\mem\los_memory.c 0x00000000   Number         0  los_memory.o ABSOLUTE
    ..\Huawei_LiteOS\kernel\base\mem\los_memstat.c 0x00000000   Number         0  los_memstat.o ABSOLUTE
    ..\Huawei_LiteOS\kernel\base\mem\los_multipledlinkhead.c 0x00000000   Number         0  los_multipledlinkhead.o ABSOLUTE
    ..\Huawei_LiteOS\kernel\base\misc\los_misc.c 0x00000000   Number         0  los_misc.o ABSOLUTE
    ..\Huawei_LiteOS\platform\bsp\sample\config\los_config.c 0x00000000   Number         0  los_config.o ABSOLUTE
    ..\Huawei_LiteOS\platform\cpu\arm\cortex-m4\los_dispatch.s 0x00000000   Number         0  los_dispatch.o ABSOLUTE
    ..\Huawei_LiteOS\platform\cpu\arm\cortex-m4\los_hw.c 0x00000000   Number         0  los_hw.o ABSOLUTE
    ..\Huawei_LiteOS\platform\cpu\arm\cortex-m4\los_hw_tick.c 0x00000000   Number         0  los_hw_tick.o ABSOLUTE
    ..\Huawei_LiteOS\platform\cpu\arm\cortex-m4\los_hwi.c 0x00000000   Number         0  los_hwi.o ABSOLUTE
    ..\Libraries\CMSIS\core_cm3.c            0x00000000   Number         0  core_cm3.o ABSOLUTE
    ..\Libraries\CMSIS\startup\startup_stm32f10x_md.s 0x00000000   Number         0  startup_stm32f10x_md.o ABSOLUTE
    ..\Libraries\CMSIS\system_stm32f10x.c    0x00000000   Number         0  system_stm32f10x.o ABSOLUTE
    ..\Libraries\FWlib\src\misc.c            0x00000000   Number         0  misc.o ABSOLUTE
    ..\Libraries\FWlib\src\stm32f10x_adc.c   0x00000000   Number         0  stm32f10x_adc.o ABSOLUTE
    ..\Libraries\FWlib\src\stm32f10x_bkp.c   0x00000000   Number         0  stm32f10x_bkp.o ABSOLUTE
    ..\Libraries\FWlib\src\stm32f10x_can.c   0x00000000   Number         0  stm32f10x_can.o ABSOLUTE
    ..\Libraries\FWlib\src\stm32f10x_cec.c   0x00000000   Number         0  stm32f10x_cec.o ABSOLUTE
    ..\Libraries\FWlib\src\stm32f10x_crc.c   0x00000000   Number         0  stm32f10x_crc.o ABSOLUTE
    ..\Libraries\FWlib\src\stm32f10x_dac.c   0x00000000   Number         0  stm32f10x_dac.o ABSOLUTE
    ..\Libraries\FWlib\src\stm32f10x_dbgmcu.c 0x00000000   Number         0  stm32f10x_dbgmcu.o ABSOLUTE
    ..\Libraries\FWlib\src\stm32f10x_dma.c   0x00000000   Number         0  stm32f10x_dma.o ABSOLUTE
    ..\Libraries\FWlib\src\stm32f10x_exti.c  0x00000000   Number         0  stm32f10x_exti.o ABSOLUTE
    ..\Libraries\FWlib\src\stm32f10x_flash.c 0x00000000   Number         0  stm32f10x_flash.o ABSOLUTE
    ..\Libraries\FWlib\src\stm32f10x_fsmc.c  0x00000000   Number         0  stm32f10x_fsmc.o ABSOLUTE
    ..\Libraries\FWlib\src\stm32f10x_gpio.c  0x00000000   Number         0  stm32f10x_gpio.o ABSOLUTE
    ..\Libraries\FWlib\src\stm32f10x_i2c.c   0x00000000   Number         0  stm32f10x_i2c.o ABSOLUTE
    ..\Libraries\FWlib\src\stm32f10x_iwdg.c  0x00000000   Number         0  stm32f10x_iwdg.o ABSOLUTE
    ..\Libraries\FWlib\src\stm32f10x_pwr.c   0x00000000   Number         0  stm32f10x_pwr.o ABSOLUTE
    ..\Libraries\FWlib\src\stm32f10x_rcc.c   0x00000000   Number         0  stm32f10x_rcc.o ABSOLUTE
    ..\Libraries\FWlib\src\stm32f10x_rtc.c   0x00000000   Number         0  stm32f10x_rtc.o ABSOLUTE
    ..\Libraries\FWlib\src\stm32f10x_sdio.c  0x00000000   Number         0  stm32f10x_sdio.o ABSOLUTE
    ..\Libraries\FWlib\src\stm32f10x_spi.c   0x00000000   Number         0  stm32f10x_spi.o ABSOLUTE
    ..\Libraries\FWlib\src\stm32f10x_tim.c   0x00000000   Number         0  stm32f10x_tim.o ABSOLUTE
    ..\Libraries\FWlib\src\stm32f10x_usart.c 0x00000000   Number         0  stm32f10x_usart.o ABSOLUTE
    ..\Libraries\FWlib\src\stm32f10x_wwdg.c  0x00000000   Number         0  stm32f10x_wwdg.o ABSOLUTE
    ..\User\main.c                           0x00000000   Number         0  main.o ABSOLUTE
    ..\User\src\bh1750_s\bh1750_s.c          0x00000000   Number         0  bh1750_s.o ABSOLUTE
    ..\User\src\bh1750_s\i2c_s.c             0x00000000   Number         0  i2c_s.o ABSOLUTE
    ..\User\src\init_conf\mcu_init.c         0x00000000   Number         0  mcu_init.o ABSOLUTE
    ..\User\src\sht10\sht10.c                0x00000000   Number         0  sht10.o ABSOLUTE
    ..\User\src\timer\timer.c                0x00000000   Number         0  timer.o ABSOLUTE
    ..\User\src\ult\ult.c                    0x00000000   Number         0  ult.o ABSOLUTE
    ..\User\src\usart2\usart2.c              0x00000000   Number         0  usart2.o ABSOLUTE
    ..\User\src\usart3\usart3.c              0x00000000   Number         0  usart3.o ABSOLUTE
    ..\User\src\usart\usart.c                0x00000000   Number         0  usart.o ABSOLUTE
    ..\User\src\xassert\_xassert.c           0x00000000   Number         0  _xassert.o ABSOLUTE
    ..\User\stm32f10x_it.c                   0x00000000   Number         0  stm32f10x_it.o ABSOLUTE
    ..\User\task\mqtt_task.c                 0x00000000   Number         0  mqtt_task.o ABSOLUTE
    ..\User\task\task.c                      0x00000000   Number         0  task.o ABSOLUTE
    ..\\Huawei_LiteOS\\platform\\cpu\\arm\\cortex-m4\\los_hwi.c 0x00000000   Number         0  los_hwi.o ABSOLUTE
    ..\\Libraries\\CMSIS\\core_cm3.c         0x00000000   Number         0  core_cm3.o ABSOLUTE
    cdcmple.s                                0x00000000   Number         0  cdcmple.o ABSOLUTE
    cdrcmple.s                               0x00000000   Number         0  cdrcmple.o ABSOLUTE
    cfrcmple.s                               0x00000000   Number         0  cfrcmple.o ABSOLUTE
    dc.s                                     0x00000000   Number         0  dc.o ABSOLUTE
    handlers.s                               0x00000000   Number         0  handlers.o ABSOLUTE
    init.s                                   0x00000000   Number         0  init.o ABSOLUTE
    RESET                                    0x08000000   Section      236  startup_stm32f10x_md.o(RESET)
    .ARM.Collect$$$$00000000                 0x080000ec   Section        0  entry.o(.ARM.Collect$$$$00000000)
    .ARM.Collect$$$$00000002                 0x080000ec   Section        4  entry3.o(.ARM.Collect$$$$00000002)
    .ARM.Collect$$$$00000004                 0x080000f0   Section        4  entry5.o(.ARM.Collect$$$$00000004)
    .ARM.Collect$$$$00000008                 0x080000f4   Section        0  entry7b.o(.ARM.Collect$$$$00000008)
    .ARM.Collect$$$$0000000A                 0x080000f4   Section        0  entry8b.o(.ARM.Collect$$$$0000000A)
    .ARM.Collect$$$$0000000B                 0x080000f4   Section        8  entry9a.o(.ARM.Collect$$$$0000000B)
    .ARM.Collect$$$$0000000D                 0x080000fc   Section        0  entry10a.o(.ARM.Collect$$$$0000000D)
    .ARM.Collect$$$$0000000F                 0x080000fc   Section        0  entry11a.o(.ARM.Collect$$$$0000000F)
    .ARM.Collect$$$$00002713                 0x080000fc   Section        4  entry3.o(.ARM.Collect$$$$00002713)
    __lit__00000000                          0x080000fc   Data           4  entry3.o(.ARM.Collect$$$$00002713)
    .emb_text                                0x08000100   Section        6  los_hwi.o(.emb_text)
    .text                                    0x08000108   Section       36  startup_stm32f10x_md.o(.text)
    .text                                    0x0800012c   Section       92  los_dispatch.o(.text)
    .text                                    0x08000188   Section        0  uldiv.o(.text)
    .text                                    0x080001ea   Section        0  memseta.o(.text)
    .text                                    0x0800020e   Section        0  strlen.o(.text)
    .text                                    0x0800021c   Section        0  strtok.o(.text)
    .text                                    0x08000260   Section        0  atoi.o(.text)
    .text                                    0x0800027a   Section        0  dadd.o(.text)
    .text                                    0x080003c8   Section        0  dmul.o(.text)
    .text                                    0x080004ac   Section        0  ddiv.o(.text)
    .text                                    0x0800058a   Section        0  dfixul.o(.text)
    .text                                    0x080005ba   Section        0  uidiv.o(.text)
    .text                                    0x080005e6   Section        0  llshl.o(.text)
    .text                                    0x08000604   Section        0  llushr.o(.text)
    .text                                    0x08000624   Section        0  llsshr.o(.text)
    .text                                    0x08000648   Section        0  strtol.o(.text)
    .text                                    0x080006b8   Section        0  depilogue.o(.text)
    .text                                    0x080006b8   Section        0  iusefp.o(.text)
    .text                                    0x08000774   Section       48  cdrcmple.o(.text)
    .text                                    0x080007a4   Section       36  init.o(.text)
    .text                                    0x080007c8   Section        0  ctype_o.o(.text)
    .text                                    0x080007d0   Section        0  _strtoul.o(.text)
    .text                                    0x0800086e   Section        0  _chval.o(.text)
    .text                                    0x0800088a   Section        0  __dczerorl2.o(.text)
    KERNEL                                   0x080008e0   Section      128  los_dispatch.o(KERNEL)
    i.BusFault_Handler                       0x08000960   Section        0  stm32f10x_it.o(i.BusFault_Handler)
    i.DebugMon_Handler                       0x08000964   Section        0  stm32f10x_it.o(i.DebugMon_Handler)
    i.Delay                                  0x08000966   Section        0  main.o(i.Delay)
    i.FLASH_PrefetchBufferCmd                0x08000978   Section        0  stm32f10x_flash.o(i.FLASH_PrefetchBufferCmd)
    i.FLASH_SetLatency                       0x08000994   Section        0  stm32f10x_flash.o(i.FLASH_SetLatency)
    i.GPIO_EXTILineConfig                    0x080009ac   Section        0  stm32f10x_gpio.o(i.GPIO_EXTILineConfig)
    i.GPIO_Init                              0x080009ec   Section        0  stm32f10x_gpio.o(i.GPIO_Init)
    i.HardFault_Handler                      0x08000b02   Section        0  stm32f10x_it.o(i.HardFault_Handler)
    i.LOS_Align                              0x08000b06   Section        0  los_misc.o(i.LOS_Align)
    i.LOS_DLnkInitMultiHead                  0x08000b22   Section        0  los_multipledlinkhead.o(i.LOS_DLnkInitMultiHead)
    i.LOS_DLnkMultiHead                      0x08000b40   Section        0  los_multipledlinkhead.o(i.LOS_DLnkMultiHead)
    i.LOS_ListAdd                            0x08000b6a   Section        0  los_task.o(i.LOS_ListAdd)
    LOS_ListAdd                              0x08000b6b   Thumb Code    14  los_task.o(i.LOS_ListAdd)
    i.LOS_ListAdd                            0x08000b78   Section        0  los_mux.o(i.LOS_ListAdd)
    LOS_ListAdd                              0x08000b79   Thumb Code    14  los_mux.o(i.LOS_ListAdd)
    i.LOS_ListAdd                            0x08000b86   Section        0  los_queue.o(i.LOS_ListAdd)
    LOS_ListAdd                              0x08000b87   Thumb Code    14  los_queue.o(i.LOS_ListAdd)
    i.LOS_ListAdd                            0x08000b94   Section        0  los_sem.o(i.LOS_ListAdd)
    LOS_ListAdd                              0x08000b95   Thumb Code    14  los_sem.o(i.LOS_ListAdd)
    i.LOS_ListAdd                            0x08000ba2   Section        0  los_memory.o(i.LOS_ListAdd)
    LOS_ListAdd                              0x08000ba3   Thumb Code    14  los_memory.o(i.LOS_ListAdd)
    i.LOS_ListDelete                         0x08000bb0   Section        0  los_task.o(i.LOS_ListDelete)
    LOS_ListDelete                           0x08000bb1   Thumb Code    20  los_task.o(i.LOS_ListDelete)
    i.LOS_ListDelete                         0x08000bc4   Section        0  los_sem.o(i.LOS_ListDelete)
    LOS_ListDelete                           0x08000bc5   Thumb Code    20  los_sem.o(i.LOS_ListDelete)
    i.LOS_ListDelete                         0x08000bd8   Section        0  los_memory.o(i.LOS_ListDelete)
    LOS_ListDelete                           0x08000bd9   Thumb Code    20  los_memory.o(i.LOS_ListDelete)
    i.LOS_ListEmpty                          0x08000bec   Section        0  los_task.o(i.LOS_ListEmpty)
    LOS_ListEmpty                            0x08000bed   Thumb Code    16  los_task.o(i.LOS_ListEmpty)
    i.LOS_ListEmpty                          0x08000bfc   Section        0  los_queue.o(i.LOS_ListEmpty)
    LOS_ListEmpty                            0x08000bfd   Thumb Code    16  los_queue.o(i.LOS_ListEmpty)
    i.LOS_ListEmpty                          0x08000c0c   Section        0  los_sem.o(i.LOS_ListEmpty)
    LOS_ListEmpty                            0x08000c0d   Thumb Code    16  los_sem.o(i.LOS_ListEmpty)
    i.LOS_ListInit                           0x08000c1c   Section        0  los_task.o(i.LOS_ListInit)
    LOS_ListInit                             0x08000c1d   Thumb Code     6  los_task.o(i.LOS_ListInit)
    i.LOS_ListInit                           0x08000c22   Section        0  los_mux.o(i.LOS_ListInit)
    LOS_ListInit                             0x08000c23   Thumb Code     6  los_mux.o(i.LOS_ListInit)
    i.LOS_ListInit                           0x08000c28   Section        0  los_queue.o(i.LOS_ListInit)
    LOS_ListInit                             0x08000c29   Thumb Code     6  los_queue.o(i.LOS_ListInit)
    i.LOS_ListInit                           0x08000c2e   Section        0  los_sem.o(i.LOS_ListInit)
    LOS_ListInit                             0x08000c2f   Thumb Code     6  los_sem.o(i.LOS_ListInit)
    i.LOS_ListTailInsert                     0x08000c34   Section        0  los_task.o(i.LOS_ListTailInsert)
    LOS_ListTailInsert                       0x08000c35   Thumb Code    16  los_task.o(i.LOS_ListTailInsert)
    i.LOS_ListTailInsert                     0x08000c44   Section        0  los_mux.o(i.LOS_ListTailInsert)
    LOS_ListTailInsert                       0x08000c45   Thumb Code    16  los_mux.o(i.LOS_ListTailInsert)
    i.LOS_ListTailInsert                     0x08000c54   Section        0  los_sem.o(i.LOS_ListTailInsert)
    LOS_ListTailInsert                       0x08000c55   Thumb Code    16  los_sem.o(i.LOS_ListTailInsert)
    i.LOS_Log2                               0x08000c64   Section        0  los_multipledlinkhead.o(i.LOS_Log2)
    LOS_Log2                                 0x08000c65   Thumb Code   320  los_multipledlinkhead.o(i.LOS_Log2)
    i.LOS_MemAlloc                           0x08000da8   Section        0  los_memory.o(i.LOS_MemAlloc)
    i.LOS_MemAllocAlign                      0x08000de2   Section        0  los_memory.o(i.LOS_MemAllocAlign)
    i.LOS_MemFree                            0x08000e4e   Section        0  los_memory.o(i.LOS_MemFree)
    i.LOS_MemInit                            0x08000ea2   Section        0  los_memory.o(i.LOS_MemInit)
    i.LOS_MemboxAlloc                        0x08000f48   Section        0  los_membox.o(i.LOS_MemboxAlloc)
    i.LOS_MemboxFree                         0x08000f88   Section        0  los_membox.o(i.LOS_MemboxFree)
    i.LOS_MemboxInit                         0x0800102c   Section        0  los_membox.o(i.LOS_MemboxInit)
    i.LOS_PriqueueDequeue                    0x080010ac   Section        0  los_priqueue.o(i.LOS_PriqueueDequeue)
    i.LOS_PriqueueEnqueue                    0x080010c4   Section        0  los_priqueue.o(i.LOS_PriqueueEnqueue)
    i.LOS_PriqueueSize                       0x080010e8   Section        0  los_priqueue.o(i.LOS_PriqueueSize)
    i.LOS_PriqueueTop                        0x08001110   Section        0  los_priqueue.o(i.LOS_PriqueueTop)
    i.LOS_QueueCreate                        0x0800114c   Section        0  los_queue.o(i.LOS_QueueCreate)
    i.LOS_QueueRead                          0x080011c8   Section        0  los_queue.o(i.LOS_QueueRead)
    i.LOS_QueueWrite                         0x080012f8   Section        0  los_queue.o(i.LOS_QueueWrite)
    i.LOS_Schedule                           0x08001434   Section        0  los_hw.o(i.LOS_Schedule)
    i.LOS_SemPost                            0x08001474   Section        0  los_sem.o(i.LOS_SemPost)
    i.LOS_Start                              0x0800152c   Section        0  los_config.o(i.LOS_Start)
    i.LOS_TaskCreate                         0x08001544   Section        0  los_task.o(i.LOS_TaskCreate)
    i.LOS_TaskCreateOnly                     0x080015e0   Section        0  los_task.o(i.LOS_TaskCreateOnly)
    i.LOS_TaskDelay                          0x08001764   Section        0  los_task.o(i.LOS_TaskDelay)
    i.LOS_TaskLock                           0x080017e4   Section        0  los_task.o(i.LOS_TaskLock)
    i.LOS_TaskUnlock                         0x08001804   Section        0  los_task.o(i.LOS_TaskUnlock)
    i.LOS_TaskYield                          0x08001840   Section        0  los_task.o(i.LOS_TaskYield)
    i.MemManage_Handler                      0x080018c4   Section        0  stm32f10x_it.o(i.MemManage_Handler)
    i.NMI_Handler                            0x080018c8   Section        0  stm32f10x_it.o(i.NMI_Handler)
    i.NVIC_Configuration                     0x080018ca   Section        0  mcu_init.o(i.NVIC_Configuration)
    i.NVIC_Init                              0x08001978   Section        0  misc.o(i.NVIC_Init)
    i.NVIC_PriorityGroupConfig               0x080019e8   Section        0  misc.o(i.NVIC_PriorityGroupConfig)
    i.NVIC_SetVectorTable                    0x080019fc   Section        0  misc.o(i.NVIC_SetVectorTable)
    i.RCC_ADCCLKConfig                       0x08001a10   Section        0  stm32f10x_rcc.o(i.RCC_ADCCLKConfig)
    i.RCC_APB1PeriphClockCmd                 0x08001a28   Section        0  stm32f10x_rcc.o(i.RCC_APB1PeriphClockCmd)
    i.RCC_APB1PeriphResetCmd                 0x08001a48   Section        0  stm32f10x_rcc.o(i.RCC_APB1PeriphResetCmd)
    i.RCC_APB2PeriphClockCmd                 0x08001a68   Section        0  stm32f10x_rcc.o(i.RCC_APB2PeriphClockCmd)
    i.RCC_APB2PeriphResetCmd                 0x08001a88   Section        0  stm32f10x_rcc.o(i.RCC_APB2PeriphResetCmd)
    i.RCC_Configuration                      0x08001aa8   Section        0  mcu_init.o(i.RCC_Configuration)
    i.RCC_DeInit                             0x08001b28   Section        0  stm32f10x_rcc.o(i.RCC_DeInit)
    i.RCC_GetClocksFreq                      0x08001b74   Section        0  stm32f10x_rcc.o(i.RCC_GetClocksFreq)
    i.RCC_GetFlagStatus                      0x08001c48   Section        0  stm32f10x_rcc.o(i.RCC_GetFlagStatus)
    i.RCC_GetSYSCLKSource                    0x08001c84   Section        0  stm32f10x_rcc.o(i.RCC_GetSYSCLKSource)
    i.RCC_HCLKConfig                         0x08001c94   Section        0  stm32f10x_rcc.o(i.RCC_HCLKConfig)
    i.RCC_HSEConfig                          0x08001cac   Section        0  stm32f10x_rcc.o(i.RCC_HSEConfig)
    i.RCC_PCLK1Config                        0x08001cf8   Section        0  stm32f10x_rcc.o(i.RCC_PCLK1Config)
    i.RCC_PCLK2Config                        0x08001d10   Section        0  stm32f10x_rcc.o(i.RCC_PCLK2Config)
    i.RCC_PLLCmd                             0x08001d28   Section        0  stm32f10x_rcc.o(i.RCC_PLLCmd)
    i.RCC_PLLConfig                          0x08001d34   Section        0  stm32f10x_rcc.o(i.RCC_PLLConfig)
    i.RCC_SYSCLKConfig                       0x08001d50   Section        0  stm32f10x_rcc.o(i.RCC_SYSCLKConfig)
    i.RCC_WaitForHSEStartUp                  0x08001d68   Section        0  stm32f10x_rcc.o(i.RCC_WaitForHSEStartUp)
    i.SVC_Handler                            0x08001da0   Section        0  stm32f10x_it.o(i.SVC_Handler)
    i.SetSysClock                            0x08001da2   Section        0  system_stm32f10x.o(i.SetSysClock)
    SetSysClock                              0x08001da3   Thumb Code     8  system_stm32f10x.o(i.SetSysClock)
    i.SetSysClockTo72                        0x08001dac   Section        0  system_stm32f10x.o(i.SetSysClockTo72)
    SetSysClockTo72                          0x08001dad   Thumb Code   214  system_stm32f10x.o(i.SetSysClockTo72)
    i.SysTick_Handler                        0x08001e8c   Section        0  los_tick.o(i.SysTick_Handler)
    i.SystemInit                             0x08001eb4   Section        0  system_stm32f10x.o(i.SystemInit)
    i.Systick_Init                           0x08001f14   Section        0  ult.o(i.Systick_Init)
    i.TIM2_IRQHandler                        0x08001f28   Section        0  timer.o(i.TIM2_IRQHandler)
    i.TIM3_IRQHandler                        0x08001f68   Section        0  timer.o(i.TIM3_IRQHandler)
    i.TIM_ClearFlag                          0x08001f84   Section        0  stm32f10x_tim.o(i.TIM_ClearFlag)
    i.TIM_ClearITPendingBit                  0x08001f8a   Section        0  stm32f10x_tim.o(i.TIM_ClearITPendingBit)
    i.TIM_Cmd                                0x08001f90   Section        0  stm32f10x_tim.o(i.TIM_Cmd)
    i.TIM_DeInit                             0x08001fa8   Section        0  stm32f10x_tim.o(i.TIM_DeInit)
    i.TIM_GetITStatus                        0x08002190   Section        0  stm32f10x_tim.o(i.TIM_GetITStatus)
    i.TIM_ITConfig                           0x080021b2   Section        0  stm32f10x_tim.o(i.TIM_ITConfig)
    i.TIM_TimeBaseInit                       0x080021c4   Section        0  stm32f10x_tim.o(i.TIM_TimeBaseInit)
    i.Timer_Config                           0x08002268   Section        0  timer.o(i.Timer_Config)
    i.USART1_IRQHandler                      0x080022b4   Section        0  usart.o(i.USART1_IRQHandler)
    i.USART1_Init                            0x08002300   Section        0  usart.o(i.USART1_Init)
    i.USART2_IRQHandler                      0x08002384   Section        0  usart2.o(i.USART2_IRQHandler)
    i.USART3_IRQHandler                      0x080023c8   Section        0  usart3.o(i.USART3_IRQHandler)
    i.USART_Cmd                              0x08002418   Section        0  stm32f10x_usart.o(i.USART_Cmd)
    i.USART_DeInit                           0x08002430   Section        0  stm32f10x_usart.o(i.USART_DeInit)
    i.USART_GetFlagStatus                    0x080024cc   Section        0  stm32f10x_usart.o(i.USART_GetFlagStatus)
    i.USART_GetITStatus                      0x080024e6   Section        0  stm32f10x_usart.o(i.USART_GetITStatus)
    i.USART_ITConfig                         0x0800253a   Section        0  stm32f10x_usart.o(i.USART_ITConfig)
    i.USART_Init                             0x08002584   Section        0  stm32f10x_usart.o(i.USART_Init)
    i.USART_ReceiveData                      0x0800265c   Section        0  stm32f10x_usart.o(i.USART_ReceiveData)
    i.USART_SendData                         0x08002666   Section        0  stm32f10x_usart.o(i.USART_SendData)
    i.UsageFault_Handler                     0x0800266e   Section        0  stm32f10x_it.o(i.UsageFault_Handler)
    i.__0printf                              0x08002674   Section        0  printfa.o(i.__0printf)
    i.__0sprintf                             0x08002694   Section        0  printfa.o(i.__0sprintf)
    i.__0vsprintf                            0x080026bc   Section        0  printfa.o(i.__0vsprintf)
    i.__aeabi_errno_addr                     0x080026e0   Section        0  errno.o(i.__aeabi_errno_addr)
    i.__scatterload_copy                     0x080026e8   Section       14  handlers.o(i.__scatterload_copy)
    i.__scatterload_null                     0x080026f6   Section        2  handlers.o(i.__scatterload_null)
    i.__scatterload_zeroinit                 0x080026f8   Section       14  handlers.o(i.__scatterload_zeroinit)
    i._fp_digits                             0x08002708   Section        0  printfa.o(i._fp_digits)
    _fp_digits                               0x08002709   Thumb Code   366  printfa.o(i._fp_digits)
    i._printf_core                           0x0800288c   Section        0  printfa.o(i._printf_core)
    _printf_core                             0x0800288d   Thumb Code  1744  printfa.o(i._printf_core)
    i._printf_post_padding                   0x08002f68   Section        0  printfa.o(i._printf_post_padding)
    _printf_post_padding                     0x08002f69   Thumb Code    36  printfa.o(i._printf_post_padding)
    i._printf_pre_padding                    0x08002f8c   Section        0  printfa.o(i._printf_pre_padding)
    _printf_pre_padding                      0x08002f8d   Thumb Code    46  printfa.o(i._printf_pre_padding)
    i._sputc                                 0x08002fba   Section        0  printfa.o(i._sputc)
    _sputc                                   0x08002fbb   Thumb Code    10  printfa.o(i._sputc)
    i.creat_task_lbs                         0x08002fc4   Section        0  task.o(i.creat_task_lbs)
    i.creat_task_mqtt                        0x08003004   Section        0  mqtt_task.o(i.creat_task_mqtt)
    i.creat_task_test                        0x08003048   Section        0  task.o(i.creat_task_test)
    i.fputc                                  0x0800308c   Section        0  usart.o(i.fputc)
    i.get_lbs_station_task                   0x080030b0   Section        0  task.o(i.get_lbs_station_task)
    i.hardware_init                          0x080031e0   Section        0  main.o(i.hardware_init)
    i.main                                   0x0800320e   Section        0  los_config.o(i.main)
    i.osAppInit                              0x08003228   Section        0  main.o(i.osAppInit)
    i.osHwiDefaultHandler                    0x08003264   Section        0  los_hwi.o(i.osHwiDefaultHandler)
    i.osHwiInit                              0x0800326c   Section        0  los_hwi.o(i.osHwiInit)
    i.osIdleTask                             0x0800329c   Section        0  los_task.o(i.osIdleTask)
    i.osIdleTaskCreate                       0x080032a0   Section        0  los_task.o(i.osIdleTaskCreate)
    i.osInterrupt                            0x080032ec   Section        0  los_hwi.o(i.osInterrupt)
    i.osMain                                 0x0800333c   Section        0  los_config.o(i.osMain)
    i.osMemAllocWithCheck                    0x080033a2   Section        0  los_memory.o(i.osMemAllocWithCheck)
    osMemAllocWithCheck                      0x080033a3   Thumb Code    92  los_memory.o(i.osMemAllocWithCheck)
    i.osMemCheckUsedNode                     0x080033fe   Section        0  los_memory.o(i.osMemCheckUsedNode)
    osMemCheckUsedNode                       0x080033ff   Thumb Code   152  los_memory.o(i.osMemCheckUsedNode)
    i.osMemFindSuitableFreeBlock             0x08003496   Section        0  los_memory.o(i.osMemFindSuitableFreeBlock)
    osMemFindSuitableFreeBlock               0x08003497   Thumb Code    80  los_memory.o(i.osMemFindSuitableFreeBlock)
    i.osMemFreeNode                          0x080034e6   Section        0  los_memory.o(i.osMemFreeNode)
    osMemFreeNode                            0x080034e7   Thumb Code   178  los_memory.o(i.osMemFreeNode)
    i.osMemIsNodeValid                       0x08003598   Section        0  los_memory.o(i.osMemIsNodeValid)
    osMemIsNodeValid                         0x08003599   Thumb Code    62  los_memory.o(i.osMemIsNodeValid)
    i.osMemMergeNode                         0x080035d6   Section        0  los_memory.o(i.osMemMergeNode)
    osMemMergeNode                           0x080035d7   Thumb Code    36  los_memory.o(i.osMemMergeNode)
    i.osMemSetMagicNumAndTaskid              0x080035fc   Section        0  los_memory.o(i.osMemSetMagicNumAndTaskid)
    osMemSetMagicNumAndTaskid                0x080035fd   Thumb Code    28  los_memory.o(i.osMemSetMagicNumAndTaskid)
    i.osMemSpitNode                          0x0800361c   Section        0  los_memory.o(i.osMemSpitNode)
    osMemSpitNode                            0x0800361d   Thumb Code    92  los_memory.o(i.osMemSpitNode)
    i.osMemSystemInit                        0x08003678   Section        0  los_memory.o(i.osMemSystemInit)
    i.osMuxInit                              0x0800369c   Section        0  los_mux.o(i.osMuxInit)
    i.osPriqueueInit                         0x080036f8   Section        0  los_priqueue.o(i.osPriqueueInit)
    i.osQueueCreate                          0x08003740   Section        0  los_queue.o(i.osQueueCreate)
    i.osQueueInit                            0x080037b0   Section        0  los_queue.o(i.osQueueInit)
    i.osQueuePend                            0x080037e8   Section        0  los_queue.o(i.osQueuePend)
    osQueuePend                              0x080037e9   Thumb Code   132  los_queue.o(i.osQueuePend)
    i.osQueueWakeUp                          0x0800386c   Section        0  los_queue.o(i.osQueueWakeUp)
    osQueueWakeUp                            0x0800386d   Thumb Code    90  los_queue.o(i.osQueueWakeUp)
    i.osRegister                             0x080038c8   Section        0  los_config.o(i.osRegister)
    i.osSchedule                             0x080038e4   Section        0  los_hw.o(i.osSchedule)
    i.osSemInit                              0x080038ec   Section        0  los_sem.o(i.osSemInit)
    i.osSwTmrInit                            0x08003944   Section        0  los_swtmr.o(i.osSwTmrInit)
    i.osSwTmrStart                           0x080039f0   Section        0  los_swtmr.o(i.osSwTmrStart)
    i.osSwTmrTask                            0x08003a50   Section        0  los_swtmr.o(i.osSwTmrTask)
    i.osSwTmrTaskCreate                      0x08003aa0   Section        0  los_swtmr.o(i.osSwTmrTaskCreate)
    i.osSwTmrTimeoutHandle                   0x08003ae8   Section        0  los_swtmr.o(i.osSwTmrTimeoutHandle)
    osSwTmrTimeoutHandle                     0x08003ae9   Thumb Code   128  los_swtmr.o(i.osSwTmrTimeoutHandle)
    i.osSwtmrDelete                          0x08003b74   Section        0  los_swtmr.o(i.osSwtmrDelete)
    osSwtmrDelete                            0x08003b75   Thumb Code    16  los_swtmr.o(i.osSwtmrDelete)
    i.osSwtmrScan                            0x08003b88   Section        0  los_swtmr.o(i.osSwtmrScan)
    i.osTaskAdd2TimerList                    0x08003bac   Section        0  los_task.o(i.osTaskAdd2TimerList)
    i.osTaskEntry                            0x08003c6c   Section        0  los_task.o(i.osTaskEntry)
    i.osTaskExit                             0x08003d10   Section        0  los_hw.o(i.osTaskExit)
    i.osTaskInit                             0x08003d18   Section        0  los_task.o(i.osTaskInit)
    i.osTaskMemUsedDec                       0x08003e40   Section        0  los_memstat.o(i.osTaskMemUsedDec)
    i.osTaskMemUsedInc                       0x08003e74   Section        0  los_memstat.o(i.osTaskMemUsedInc)
    i.osTaskScan                             0x08003eb0   Section        0  los_task.o(i.osTaskScan)
    i.osTaskSelfDelete                       0x08003f8c   Section        0  los_task.o(i.osTaskSelfDelete)
    i.osTickStart                            0x08004088   Section        0  los_hw_tick.o(i.osTickStart)
    i.osTimerListDelete                      0x080040e0   Section        0  los_task.o(i.osTimerListDelete)
    i.osTimesliceCheck                       0x08004128   Section        0  los_timeslice.o(i.osTimesliceCheck)
    i.osTimesliceInit                        0x08004174   Section        0  los_timeslice.o(i.osTimesliceInit)
    i.osTskStackInit                         0x08004184   Section        0  los_hw.o(i.osTskStackInit)
    i.task_mqtt                              0x0800420c   Section        0  mqtt_task.o(i.task_mqtt)
    i.task_test                              0x08004278   Section        0  task.o(i.task_test)
    i.time2_disable                          0x0800429c   Section        0  timer.o(i.time2_disable)
    i.timer2_enable                          0x080042aa   Section        0  timer.o(i.timer2_enable)
    i.timer_init                             0x080042b6   Section        0  timer.o(i.timer_init)
    i.usart1_init                            0x080042be   Section        0  usart.o(i.usart1_init)
    i.usart2_init                            0x080042cc   Section        0  usart2.o(i.usart2_init)
    i.usart3_init                            0x08004358   Section        0  usart3.o(i.usart3_init)
    i.usart3_printf                          0x080043ec   Section        0  usart3.o(i.usart3_printf)
    i.usart3_rx_disable                      0x0800443c   Section        0  usart3.o(i.usart3_rx_disable)
    i.usart3_rx_enable                       0x08004450   Section        0  usart3.o(i.usart3_rx_enable)
    .constdata                               0x08004464   Section      129  ctype_o.o(.constdata)
    .constdata                               0x080044e8   Section        4  ctype_o.o(.constdata)
    table                                    0x080044e8   Data           4  ctype_o.o(.constdata)
    .vector.bss                              0x20000000   Section     1024  los_hwi.o(.vector.bss)
    .data                                    0x20000600   Section       20  stm32f10x_rcc.o(.data)
    APBAHBPrescTable                         0x20000600   Data          16  stm32f10x_rcc.o(.data)
    ADCPrescTable                            0x20000610   Data           4  stm32f10x_rcc.o(.data)
    .data                                    0x20000614   Section        4  main.o(.data)
    .data                                    0x20000618   Section        4  los_priqueue.o(.data)
    .data                                    0x2000061c   Section       16  los_swtmr.o(.data)
    .data                                    0x2000062c   Section       68  los_task.o(.data)
    .data                                    0x20000670   Section       16  los_tick.o(.data)
    .data                                    0x20000680   Section        8  los_timeslice.o(.data)
    .data                                    0x20000688   Section       12  los_mux.o(.data)
    .data                                    0x20000694   Section        4  los_queue.o(.data)
    .data                                    0x20000698   Section       12  los_sem.o(.data)
    .data                                    0x200006a4   Section        8  los_config.o(.data)
    .data                                    0x200006ac   Section        4  los_hw_tick.o(.data)
    .data                                    0x200006b0   Section        4  los_hwi.o(.data)
    .data                                    0x200006b4   Section        1  usart3.o(.data)
    .data                                    0x200006b8   Section        9  task.o(.data)
    .data                                    0x200006c4   Section        4  strtok.o(.data)
    state                                    0x200006c4   Data           4  strtok.o(.data)
    .data                                    0x200006c8   Section        4  stdout.o(.data)
    .data                                    0x200006cc   Section        4  errno.o(.data)
    _errno                                   0x200006cc   Data           4  errno.o(.data)
    .bss                                     0x200006d0   Section      208  los_swtmr.o(.bss)
    .bss                                     0x200007a0   Section    12288  los_memory.o(.bss)
    .bss                                     0x200037a0   Section       64  los_memstat.o(.bss)
    .bss                                     0x200037e0   Section     1024  los_hwi.o(.bss)
    .bss                                     0x20003be0   Section      128  usart3.o(.bss)
    .bss                                     0x20003c60   Section       64  mqtt_task.o(.bss)
    STACK                                    0x20003ca0   Section     1024  startup_stm32f10x_md.o(STACK)

    Global Symbols

    Symbol Name                              Value     Ov Type        Size  Object(Section)

    BuildAttributes$$THM_ISAv4$P$D$K$B$S$PE$A:L22UL41UL21$X:L11$S22US41US21$IEEE1$IW$USESV6$~STKCKD$USESV7$~SHL$OTIME$ROPI$IEEEX$EBA8$MICROLIB$REQ8$PRES8$EABIv2 0x00000000   Number         0  anon$$obj.o ABSOLUTE
    __ARM_use_no_argv                        0x00000000   Number         0  los_config.o ABSOLUTE
    _printf_a                                0x00000000   Number         0  stubs.o ABSOLUTE
    _printf_c                                0x00000000   Number         0  stubs.o ABSOLUTE
    _printf_charcount                        0x00000000   Number         0  stubs.o ABSOLUTE
    _printf_d                                0x00000000   Number         0  stubs.o ABSOLUTE
    _printf_e                                0x00000000   Number         0  stubs.o ABSOLUTE
    _printf_f                                0x00000000   Number         0  stubs.o ABSOLUTE
    _printf_flags                            0x00000000   Number         0  stubs.o ABSOLUTE
    _printf_fp_dec                           0x00000000   Number         0  stubs.o ABSOLUTE
    _printf_fp_hex                           0x00000000   Number         0  stubs.o ABSOLUTE
    _printf_g                                0x00000000   Number         0  stubs.o ABSOLUTE
    _printf_i                                0x00000000   Number         0  stubs.o ABSOLUTE
    _printf_int_dec                          0x00000000   Number         0  stubs.o ABSOLUTE
    _printf_l                                0x00000000   Number         0  stubs.o ABSOLUTE
    _printf_lc                               0x00000000   Number         0  stubs.o ABSOLUTE
    _printf_ll                               0x00000000   Number         0  stubs.o ABSOLUTE
    _printf_lld                              0x00000000   Number         0  stubs.o ABSOLUTE
    _printf_lli                              0x00000000   Number         0  stubs.o ABSOLUTE
    _printf_llo                              0x00000000   Number         0  stubs.o ABSOLUTE
    _printf_llu                              0x00000000   Number         0  stubs.o ABSOLUTE
    _printf_llx                              0x00000000   Number         0  stubs.o ABSOLUTE
    _printf_longlong_dec                     0x00000000   Number         0  stubs.o ABSOLUTE
    _printf_longlong_hex                     0x00000000   Number         0  stubs.o ABSOLUTE
    _printf_longlong_oct                     0x00000000   Number         0  stubs.o ABSOLUTE
    _printf_ls                               0x00000000   Number         0  stubs.o ABSOLUTE
    _printf_mbtowc                           0x00000000   Number         0  stubs.o ABSOLUTE
    _printf_n                                0x00000000   Number         0  stubs.o ABSOLUTE
    _printf_o                                0x00000000   Number         0  stubs.o ABSOLUTE
    _printf_p                                0x00000000   Number         0  stubs.o ABSOLUTE
    _printf_percent                          0x00000000   Number         0  stubs.o ABSOLUTE
    _printf_pre_padding                      0x00000000   Number         0  stubs.o ABSOLUTE
    _printf_return_value                     0x00000000   Number         0  stubs.o ABSOLUTE
    _printf_s                                0x00000000   Number         0  stubs.o ABSOLUTE
    _printf_sizespec                         0x00000000   Number         0  stubs.o ABSOLUTE
    _printf_str                              0x00000000   Number         0  stubs.o ABSOLUTE
    _printf_truncate_signed                  0x00000000   Number         0  stubs.o ABSOLUTE
    _printf_truncate_unsigned                0x00000000   Number         0  stubs.o ABSOLUTE
    _printf_u                                0x00000000   Number         0  stubs.o ABSOLUTE
    _printf_wc                               0x00000000   Number         0  stubs.o ABSOLUTE
    _printf_wctomb                           0x00000000   Number         0  stubs.o ABSOLUTE
    _printf_widthprec                        0x00000000   Number         0  stubs.o ABSOLUTE
    _printf_x                                0x00000000   Number         0  stubs.o ABSOLUTE
    __cpp_initialize__aeabi_                  - Undefined Weak Reference
    __cxa_finalize                            - Undefined Weak Reference
    _clock_init                               - Undefined Weak Reference
    _microlib_exit                            - Undefined Weak Reference
    __Vectors_Size                           0x000000ec   Number         0  startup_stm32f10x_md.o ABSOLUTE
    __Vectors                                0x08000000   Data           4  startup_stm32f10x_md.o(RESET)
    __Vectors_End                            0x080000ec   Data           0  startup_stm32f10x_md.o(RESET)
    __main                                   0x080000ed   Thumb Code     0  entry.o(.ARM.Collect$$$$00000000)
    _main_stk                                0x080000ed   Thumb Code     0  entry3.o(.ARM.Collect$$$$00000002)
    _main_scatterload                        0x080000f1   Thumb Code     0  entry5.o(.ARM.Collect$$$$00000004)
    __main_after_scatterload                 0x080000f5   Thumb Code     0  entry5.o(.ARM.Collect$$$$00000004)
    _main_clock                              0x080000f5   Thumb Code     0  entry7b.o(.ARM.Collect$$$$00000008)
    _main_cpp_init                           0x080000f5   Thumb Code     0  entry8b.o(.ARM.Collect$$$$0000000A)
    _main_init                               0x080000f5   Thumb Code     0  entry9a.o(.ARM.Collect$$$$0000000B)
    __rt_final_cpp                           0x080000fd   Thumb Code     0  entry10a.o(.ARM.Collect$$$$0000000D)
    __rt_final_exit                          0x080000fd   Thumb Code     0  entry11a.o(.ARM.Collect$$$$0000000F)
    osIntNumGet                              0x08000101   Thumb Code     6  los_hwi.o(.emb_text)
    Reset_Handler                            0x08000109   Thumb Code     8  startup_stm32f10x_md.o(.text)
    ADC1_2_IRQHandler                        0x08000123   Thumb Code     0  startup_stm32f10x_md.o(.text)
    CAN1_RX1_IRQHandler                      0x08000123   Thumb Code     0  startup_stm32f10x_md.o(.text)
    CAN1_SCE_IRQHandler                      0x08000123   Thumb Code     0  startup_stm32f10x_md.o(.text)
    DMA1_Channel1_IRQHandler                 0x08000123   Thumb Code     0  startup_stm32f10x_md.o(.text)
    DMA1_Channel2_IRQHandler                 0x08000123   Thumb Code     0  startup_stm32f10x_md.o(.text)
    DMA1_Channel3_IRQHandler                 0x08000123   Thumb Code     0  startup_stm32f10x_md.o(.text)
    DMA1_Channel4_IRQHandler                 0x08000123   Thumb Code     0  startup_stm32f10x_md.o(.text)
    DMA1_Channel5_IRQHandler                 0x08000123   Thumb Code     0  startup_stm32f10x_md.o(.text)
    DMA1_Channel6_IRQHandler                 0x08000123   Thumb Code     0  startup_stm32f10x_md.o(.text)
    DMA1_Channel7_IRQHandler                 0x08000123   Thumb Code     0  startup_stm32f10x_md.o(.text)
    EXTI0_IRQHandler                         0x08000123   Thumb Code     0  startup_stm32f10x_md.o(.text)
    EXTI15_10_IRQHandler                     0x08000123   Thumb Code     0  startup_stm32f10x_md.o(.text)
    EXTI1_IRQHandler                         0x08000123   Thumb Code     0  startup_stm32f10x_md.o(.text)
    EXTI2_IRQHandler                         0x08000123   Thumb Code     0  startup_stm32f10x_md.o(.text)
    EXTI3_IRQHandler                         0x08000123   Thumb Code     0  startup_stm32f10x_md.o(.text)
    EXTI4_IRQHandler                         0x08000123   Thumb Code     0  startup_stm32f10x_md.o(.text)
    EXTI9_5_IRQHandler                       0x08000123   Thumb Code     0  startup_stm32f10x_md.o(.text)
    FLASH_IRQHandler                         0x08000123   Thumb Code     0  startup_stm32f10x_md.o(.text)
    I2C1_ER_IRQHandler                       0x08000123   Thumb Code     0  startup_stm32f10x_md.o(.text)
    I2C1_EV_IRQHandler                       0x08000123   Thumb Code     0  startup_stm32f10x_md.o(.text)
    I2C2_ER_IRQHandler                       0x08000123   Thumb Code     0  startup_stm32f10x_md.o(.text)
    I2C2_EV_IRQHandler                       0x08000123   Thumb Code     0  startup_stm32f10x_md.o(.text)
    PVD_IRQHandler                           0x08000123   Thumb Code     0  startup_stm32f10x_md.o(.text)
    RCC_IRQHandler                           0x08000123   Thumb Code     0  startup_stm32f10x_md.o(.text)
    RTCAlarm_IRQHandler                      0x08000123   Thumb Code     0  startup_stm32f10x_md.o(.text)
    RTC_IRQHandler                           0x08000123   Thumb Code     0  startup_stm32f10x_md.o(.text)
    SPI1_IRQHandler                          0x08000123   Thumb Code     0  startup_stm32f10x_md.o(.text)
    SPI2_IRQHandler                          0x08000123   Thumb Code     0  startup_stm32f10x_md.o(.text)
    TAMPER_IRQHandler                        0x08000123   Thumb Code     0  startup_stm32f10x_md.o(.text)
    TIM1_BRK_IRQHandler                      0x08000123   Thumb Code     0  startup_stm32f10x_md.o(.text)
    TIM1_CC_IRQHandler                       0x08000123   Thumb Code     0  startup_stm32f10x_md.o(.text)
    TIM1_TRG_COM_IRQHandler                  0x08000123   Thumb Code     0  startup_stm32f10x_md.o(.text)
    TIM1_UP_IRQHandler                       0x08000123   Thumb Code     0  startup_stm32f10x_md.o(.text)
    TIM4_IRQHandler                          0x08000123   Thumb Code     0  startup_stm32f10x_md.o(.text)
    USBWakeUp_IRQHandler                     0x08000123   Thumb Code     0  startup_stm32f10x_md.o(.text)
    USB_HP_CAN1_TX_IRQHandler                0x08000123   Thumb Code     0  startup_stm32f10x_md.o(.text)
    USB_LP_CAN1_RX0_IRQHandler               0x08000123   Thumb Code     0  startup_stm32f10x_md.o(.text)
    WWDG_IRQHandler                          0x08000123   Thumb Code     0  startup_stm32f10x_md.o(.text)
    LOS_StartToRun                           0x0800012d   Thumb Code     0  los_dispatch.o(.text)
    __aeabi_uldivmod                         0x08000189   Thumb Code    98  uldiv.o(.text)
    __aeabi_memset                           0x080001eb   Thumb Code    14  memseta.o(.text)
    __aeabi_memset4                          0x080001eb   Thumb Code     0  memseta.o(.text)
    __aeabi_memset8                          0x080001eb   Thumb Code     0  memseta.o(.text)
    __aeabi_memclr                           0x080001f9   Thumb Code     4  memseta.o(.text)
    __aeabi_memclr4                          0x080001f9   Thumb Code     0  memseta.o(.text)
    __aeabi_memclr8                          0x080001f9   Thumb Code     0  memseta.o(.text)
    _memset$wrapper                          0x080001fd   Thumb Code    18  memseta.o(.text)
    strlen                                   0x0800020f   Thumb Code    14  strlen.o(.text)
    strtok                                   0x0800021d   Thumb Code    62  strtok.o(.text)
    atoi                                     0x08000261   Thumb Code    26  atoi.o(.text)
    __aeabi_dadd                             0x0800027b   Thumb Code   322  dadd.o(.text)
    __aeabi_dsub                             0x080003bd   Thumb Code     6  dadd.o(.text)
    __aeabi_drsub                            0x080003c3   Thumb Code     6  dadd.o(.text)
    __aeabi_dmul                             0x080003c9   Thumb Code   228  dmul.o(.text)
    __aeabi_ddiv                             0x080004ad   Thumb Code   222  ddiv.o(.text)
    __aeabi_d2ulz                            0x0800058b   Thumb Code    48  dfixul.o(.text)
    __aeabi_uidiv                            0x080005bb   Thumb Code     0  uidiv.o(.text)
    __aeabi_uidivmod                         0x080005bb   Thumb Code    44  uidiv.o(.text)
    __aeabi_llsl                             0x080005e7   Thumb Code    30  llshl.o(.text)
    _ll_shift_l                              0x080005e7   Thumb Code     0  llshl.o(.text)
    __aeabi_llsr                             0x08000605   Thumb Code    32  llushr.o(.text)
    _ll_ushift_r                             0x08000605   Thumb Code     0  llushr.o(.text)
    __aeabi_lasr                             0x08000625   Thumb Code    36  llsshr.o(.text)
    _ll_sshift_r                             0x08000625   Thumb Code     0  llsshr.o(.text)
    strtol                                   0x08000649   Thumb Code   112  strtol.o(.text)
    __I$use$fp                               0x080006b9   Thumb Code     0  iusefp.o(.text)
    _double_round                            0x080006b9   Thumb Code    30  depilogue.o(.text)
    _double_epilogue                         0x080006d7   Thumb Code   156  depilogue.o(.text)
    __aeabi_cdrcmple                         0x08000775   Thumb Code    48  cdrcmple.o(.text)
    __scatterload                            0x080007a5   Thumb Code    28  init.o(.text)
    __scatterload_rt2                        0x080007a5   Thumb Code     0  init.o(.text)
    __rt_ctype_table                         0x080007c9   Thumb Code     4  ctype_o.o(.text)
    _strtoul                                 0x080007d1   Thumb Code   158  _strtoul.o(.text)
    _chval                                   0x0800086f   Thumb Code    28  _chval.o(.text)
    __decompress                             0x0800088b   Thumb Code     0  __dczerorl2.o(.text)
    __decompress1                            0x0800088b   Thumb Code    86  __dczerorl2.o(.text)
    LOS_IntLock                              0x080008e1   Thumb Code     0  los_dispatch.o(KERNEL)
    LOS_IntUnLock                            0x080008e9   Thumb Code     0  los_dispatch.o(KERNEL)
    LOS_IntRestore                           0x080008f1   Thumb Code     0  los_dispatch.o(KERNEL)
    osTaskSchedule                           0x080008f7   Thumb Code     0  los_dispatch.o(KERNEL)
    PendSV_Handler                           0x08000901   Thumb Code     0  los_dispatch.o(KERNEL)
    BusFault_Handler                         0x08000961   Thumb Code     4  stm32f10x_it.o(i.BusFault_Handler)
    DebugMon_Handler                         0x08000965   Thumb Code     2  stm32f10x_it.o(i.DebugMon_Handler)
    Delay                                    0x08000967   Thumb Code    18  main.o(i.Delay)
    FLASH_PrefetchBufferCmd                  0x08000979   Thumb Code    22  stm32f10x_flash.o(i.FLASH_PrefetchBufferCmd)
    FLASH_SetLatency                         0x08000995   Thumb Code    18  stm32f10x_flash.o(i.FLASH_SetLatency)
    GPIO_EXTILineConfig                      0x080009ad   Thumb Code    60  stm32f10x_gpio.o(i.GPIO_EXTILineConfig)
    GPIO_Init                                0x080009ed   Thumb Code   278  stm32f10x_gpio.o(i.GPIO_Init)
    HardFault_Handler                        0x08000b03   Thumb Code     4  stm32f10x_it.o(i.HardFault_Handler)
    LOS_Align                                0x08000b07   Thumb Code    28  los_misc.o(i.LOS_Align)
    LOS_DLnkInitMultiHead                    0x08000b23   Thumb Code    30  los_multipledlinkhead.o(i.LOS_DLnkInitMultiHead)
    LOS_DLnkMultiHead                        0x08000b41   Thumb Code    42  los_multipledlinkhead.o(i.LOS_DLnkMultiHead)
    LOS_MemAlloc                             0x08000da9   Thumb Code    58  los_memory.o(i.LOS_MemAlloc)
    LOS_MemAllocAlign                        0x08000de3   Thumb Code   108  los_memory.o(i.LOS_MemAllocAlign)
    LOS_MemFree                              0x08000e4f   Thumb Code    84  los_memory.o(i.LOS_MemFree)
    LOS_MemInit                              0x08000ea3   Thumb Code   166  los_memory.o(i.LOS_MemInit)
    LOS_MemboxAlloc                          0x08000f49   Thumb Code    60  los_membox.o(i.LOS_MemboxAlloc)
    LOS_MemboxFree                           0x08000f89   Thumb Code   158  los_membox.o(i.LOS_MemboxFree)
    LOS_MemboxInit                           0x0800102d   Thumb Code   128  los_membox.o(i.LOS_MemboxInit)
    LOS_PriqueueDequeue                      0x080010ad   Thumb Code    24  los_priqueue.o(i.LOS_PriqueueDequeue)
    LOS_PriqueueEnqueue                      0x080010c5   Thumb Code    32  los_priqueue.o(i.LOS_PriqueueEnqueue)
    LOS_PriqueueSize                         0x080010e9   Thumb Code    36  los_priqueue.o(i.LOS_PriqueueSize)
    LOS_PriqueueTop                          0x08001111   Thumb Code    54  los_priqueue.o(i.LOS_PriqueueTop)
    LOS_QueueCreate                          0x0800114d   Thumb Code   118  los_queue.o(i.LOS_QueueCreate)
    LOS_QueueRead                            0x080011c9   Thumb Code   282  los_queue.o(i.LOS_QueueRead)
    LOS_QueueWrite                           0x080012f9   Thumb Code   296  los_queue.o(i.LOS_QueueWrite)
    LOS_Schedule                             0x08001435   Thumb Code    56  los_hw.o(i.LOS_Schedule)
    LOS_SemPost                              0x08001475   Thumb Code   176  los_sem.o(i.LOS_SemPost)
    LOS_Start                                0x0800152d   Thumb Code    22  los_config.o(i.LOS_Start)
    LOS_TaskCreate                           0x08001545   Thumb Code   140  los_task.o(i.LOS_TaskCreate)
    LOS_TaskCreateOnly                       0x080015e1   Thumb Code   368  los_task.o(i.LOS_TaskCreateOnly)
    LOS_TaskDelay                            0x08001765   Thumb Code   106  los_task.o(i.LOS_TaskDelay)
    LOS_TaskLock                             0x080017e5   Thumb Code    26  los_task.o(i.LOS_TaskLock)
    LOS_TaskUnlock                           0x08001805   Thumb Code    54  los_task.o(i.LOS_TaskUnlock)
    LOS_TaskYield                            0x08001841   Thumb Code   118  los_task.o(i.LOS_TaskYield)
    MemManage_Handler                        0x080018c5   Thumb Code     4  stm32f10x_it.o(i.MemManage_Handler)
    NMI_Handler                              0x080018c9   Thumb Code     2  stm32f10x_it.o(i.NMI_Handler)
    NVIC_Configuration                       0x080018cb   Thumb Code   172  mcu_init.o(i.NVIC_Configuration)
    NVIC_Init                                0x08001979   Thumb Code   100  misc.o(i.NVIC_Init)
    NVIC_PriorityGroupConfig                 0x080019e9   Thumb Code    10  misc.o(i.NVIC_PriorityGroupConfig)
    NVIC_SetVectorTable                      0x080019fd   Thumb Code    12  misc.o(i.NVIC_SetVectorTable)
    RCC_ADCCLKConfig                         0x08001a11   Thumb Code    18  stm32f10x_rcc.o(i.RCC_ADCCLKConfig)
    RCC_APB1PeriphClockCmd                   0x08001a29   Thumb Code    26  stm32f10x_rcc.o(i.RCC_APB1PeriphClockCmd)
    RCC_APB1PeriphResetCmd                   0x08001a49   Thumb Code    26  stm32f10x_rcc.o(i.RCC_APB1PeriphResetCmd)
    RCC_APB2PeriphClockCmd                   0x08001a69   Thumb Code    26  stm32f10x_rcc.o(i.RCC_APB2PeriphClockCmd)
    RCC_APB2PeriphResetCmd                   0x08001a89   Thumb Code    26  stm32f10x_rcc.o(i.RCC_APB2PeriphResetCmd)
    RCC_Configuration                        0x08001aa9   Thumb Code   124  mcu_init.o(i.RCC_Configuration)
    RCC_DeInit                               0x08001b29   Thumb Code    64  stm32f10x_rcc.o(i.RCC_DeInit)
    RCC_GetClocksFreq                        0x08001b75   Thumb Code   192  stm32f10x_rcc.o(i.RCC_GetClocksFreq)
    RCC_GetFlagStatus                        0x08001c49   Thumb Code    56  stm32f10x_rcc.o(i.RCC_GetFlagStatus)
    RCC_GetSYSCLKSource                      0x08001c85   Thumb Code    10  stm32f10x_rcc.o(i.RCC_GetSYSCLKSource)
    RCC_HCLKConfig                           0x08001c95   Thumb Code    18  stm32f10x_rcc.o(i.RCC_HCLKConfig)
    RCC_HSEConfig                            0x08001cad   Thumb Code    70  stm32f10x_rcc.o(i.RCC_HSEConfig)
    RCC_PCLK1Config                          0x08001cf9   Thumb Code    18  stm32f10x_rcc.o(i.RCC_PCLK1Config)
    RCC_PCLK2Config                          0x08001d11   Thumb Code    20  stm32f10x_rcc.o(i.RCC_PCLK2Config)
    RCC_PLLCmd                               0x08001d29   Thumb Code     6  stm32f10x_rcc.o(i.RCC_PLLCmd)
    RCC_PLLConfig                            0x08001d35   Thumb Code    24  stm32f10x_rcc.o(i.RCC_PLLConfig)
    RCC_SYSCLKConfig                         0x08001d51   Thumb Code    18  stm32f10x_rcc.o(i.RCC_SYSCLKConfig)
    RCC_WaitForHSEStartUp                    0x08001d69   Thumb Code    56  stm32f10x_rcc.o(i.RCC_WaitForHSEStartUp)
    SVC_Handler                              0x08001da1   Thumb Code     2  stm32f10x_it.o(i.SVC_Handler)
    SysTick_Handler                          0x08001e8d   Thumb Code    34  los_tick.o(i.SysTick_Handler)
    SystemInit                               0x08001eb5   Thumb Code    78  system_stm32f10x.o(i.SystemInit)
    Systick_Init                             0x08001f15   Thumb Code    18  ult.o(i.Systick_Init)
    TIM2_IRQHandler                          0x08001f29   Thumb Code    54  timer.o(i.TIM2_IRQHandler)
    TIM3_IRQHandler                          0x08001f69   Thumb Code    22  timer.o(i.TIM3_IRQHandler)
    TIM_ClearFlag                            0x08001f85   Thumb Code     6  stm32f10x_tim.o(i.TIM_ClearFlag)
    TIM_ClearITPendingBit                    0x08001f8b   Thumb Code     6  stm32f10x_tim.o(i.TIM_ClearITPendingBit)
    TIM_Cmd                                  0x08001f91   Thumb Code    24  stm32f10x_tim.o(i.TIM_Cmd)
    TIM_DeInit                               0x08001fa9   Thumb Code   424  stm32f10x_tim.o(i.TIM_DeInit)
    TIM_GetITStatus                          0x08002191   Thumb Code    34  stm32f10x_tim.o(i.TIM_GetITStatus)
    TIM_ITConfig                             0x080021b3   Thumb Code    18  stm32f10x_tim.o(i.TIM_ITConfig)
    TIM_TimeBaseInit                         0x080021c5   Thumb Code   122  stm32f10x_tim.o(i.TIM_TimeBaseInit)
    Timer_Config                             0x08002269   Thumb Code    74  timer.o(i.Timer_Config)
    USART1_IRQHandler                        0x080022b5   Thumb Code    70  usart.o(i.USART1_IRQHandler)
    USART1_Init                              0x08002301   Thumb Code   124  usart.o(i.USART1_Init)
    USART2_IRQHandler                        0x08002385   Thumb Code    62  usart2.o(i.USART2_IRQHandler)
    USART3_IRQHandler                        0x080023c9   Thumb Code    68  usart3.o(i.USART3_IRQHandler)
    USART_Cmd                                0x08002419   Thumb Code    24  stm32f10x_usart.o(i.USART_Cmd)
    USART_DeInit                             0x08002431   Thumb Code   134  stm32f10x_usart.o(i.USART_DeInit)
    USART_GetFlagStatus                      0x080024cd   Thumb Code    26  stm32f10x_usart.o(i.USART_GetFlagStatus)
    USART_GetITStatus                        0x080024e7   Thumb Code    84  stm32f10x_usart.o(i.USART_GetITStatus)
    USART_ITConfig                           0x0800253b   Thumb Code    74  stm32f10x_usart.o(i.USART_ITConfig)
    USART_Init                               0x08002585   Thumb Code   210  stm32f10x_usart.o(i.USART_Init)
    USART_ReceiveData                        0x0800265d   Thumb Code    10  stm32f10x_usart.o(i.USART_ReceiveData)
    USART_SendData                           0x08002667   Thumb Code     8  stm32f10x_usart.o(i.USART_SendData)
    UsageFault_Handler                       0x0800266f   Thumb Code     4  stm32f10x_it.o(i.UsageFault_Handler)
    __0printf                                0x08002675   Thumb Code    22  printfa.o(i.__0printf)
    __1printf                                0x08002675   Thumb Code     0  printfa.o(i.__0printf)
    __2printf                                0x08002675   Thumb Code     0  printfa.o(i.__0printf)
    __c89printf                              0x08002675   Thumb Code     0  printfa.o(i.__0printf)
    printf                                   0x08002675   Thumb Code     0  printfa.o(i.__0printf)
    __0sprintf                               0x08002695   Thumb Code    34  printfa.o(i.__0sprintf)
    __1sprintf                               0x08002695   Thumb Code     0  printfa.o(i.__0sprintf)
    __2sprintf                               0x08002695   Thumb Code     0  printfa.o(i.__0sprintf)
    __c89sprintf                             0x08002695   Thumb Code     0  printfa.o(i.__0sprintf)
    sprintf                                  0x08002695   Thumb Code     0  printfa.o(i.__0sprintf)
    __0vsprintf                              0x080026bd   Thumb Code    30  printfa.o(i.__0vsprintf)
    __1vsprintf                              0x080026bd   Thumb Code     0  printfa.o(i.__0vsprintf)
    __2vsprintf                              0x080026bd   Thumb Code     0  printfa.o(i.__0vsprintf)
    __c89vsprintf                            0x080026bd   Thumb Code     0  printfa.o(i.__0vsprintf)
    vsprintf                                 0x080026bd   Thumb Code     0  printfa.o(i.__0vsprintf)
    __aeabi_errno_addr                       0x080026e1   Thumb Code     4  errno.o(i.__aeabi_errno_addr)
    __rt_errno_addr                          0x080026e1   Thumb Code     0  errno.o(i.__aeabi_errno_addr)
    __scatterload_copy                       0x080026e9   Thumb Code    14  handlers.o(i.__scatterload_copy)
    __scatterload_null                       0x080026f7   Thumb Code     2  handlers.o(i.__scatterload_null)
    __scatterload_zeroinit                   0x080026f9   Thumb Code    14  handlers.o(i.__scatterload_zeroinit)
    creat_task_lbs                           0x08002fc5   Thumb Code    52  task.o(i.creat_task_lbs)
    creat_task_mqtt                          0x08003005   Thumb Code    52  mqtt_task.o(i.creat_task_mqtt)
    creat_task_test                          0x08003049   Thumb Code    52  task.o(i.creat_task_test)
    fputc                                    0x0800308d   Thumb Code    32  usart.o(i.fputc)
    get_lbs_station_task                     0x080030b1   Thumb Code   192  task.o(i.get_lbs_station_task)
    hardware_init                            0x080031e1   Thumb Code    46  main.o(i.hardware_init)
    main                                     0x0800320f   Thumb Code    26  los_config.o(i.main)
    osAppInit                                0x08003229   Thumb Code    54  main.o(i.osAppInit)
    osHwiDefaultHandler                      0x08003265   Thumb Code     8  los_hwi.o(i.osHwiDefaultHandler)
    osHwiInit                                0x0800326d   Thumb Code    32  los_hwi.o(i.osHwiInit)
    osIdleTask                               0x0800329d   Thumb Code     4  los_task.o(i.osIdleTask)
    osIdleTaskCreate                         0x080032a1   Thumb Code    54  los_task.o(i.osIdleTaskCreate)
    osInterrupt                              0x080032ed   Thumb Code    70  los_hwi.o(i.osInterrupt)
    osMain                                   0x0800333d   Thumb Code   102  los_config.o(i.osMain)
    osMemSystemInit                          0x08003679   Thumb Code    26  los_memory.o(i.osMemSystemInit)
    osMuxInit                                0x0800369d   Thumb Code    74  los_mux.o(i.osMuxInit)
    osPriqueueInit                           0x080036f9   Thumb Code    64  los_priqueue.o(i.osPriqueueInit)
    osQueueCreate                            0x08003741   Thumb Code   100  los_queue.o(i.osQueueCreate)
    osQueueInit                              0x080037b1   Thumb Code    44  los_queue.o(i.osQueueInit)
    osRegister                               0x080038c9   Thumb Code    14  los_config.o(i.osRegister)
    osSchedule                               0x080038e5   Thumb Code     8  los_hw.o(i.osSchedule)
    osSemInit                                0x080038ed   Thumb Code    70  los_sem.o(i.osSemInit)
    osSwTmrInit                              0x08003945   Thumb Code   142  los_swtmr.o(i.osSwTmrInit)
    osSwTmrStart                             0x080039f1   Thumb Code    92  los_swtmr.o(i.osSwTmrStart)
    osSwTmrTask                              0x08003a51   Thumb Code    70  los_swtmr.o(i.osSwTmrTask)
    osSwTmrTaskCreate                        0x08003aa1   Thumb Code    52  los_swtmr.o(i.osSwTmrTaskCreate)
    osSwtmrScan                              0x08003b89   Thumb Code    32  los_swtmr.o(i.osSwtmrScan)
    osTaskAdd2TimerList                      0x08003bad   Thumb Code   188  los_task.o(i.osTaskAdd2TimerList)
    osTaskEntry                              0x08003c6d   Thumb Code   154  los_task.o(i.osTaskEntry)
    osTaskExit                               0x08003d11   Thumb Code     6  los_hw.o(i.osTaskExit)
    osTaskInit                               0x08003d19   Thumb Code   258  los_task.o(i.osTaskInit)
    osTaskMemUsedDec                         0x08003e41   Thumb Code    40  los_memstat.o(i.osTaskMemUsedDec)
    osTaskMemUsedInc                         0x08003e75   Thumb Code    48  los_memstat.o(i.osTaskMemUsedInc)
    osTaskScan                               0x08003eb1   Thumb Code   214  los_task.o(i.osTaskScan)
    osTaskSelfDelete                         0x08003f8d   Thumb Code   236  los_task.o(i.osTaskSelfDelete)
    osTickStart                              0x08004089   Thumb Code    56  los_hw_tick.o(i.osTickStart)
    osTimerListDelete                        0x080040e1   Thumb Code    66  los_task.o(i.osTimerListDelete)
    osTimesliceCheck                         0x08004129   Thumb Code    64  los_timeslice.o(i.osTimesliceCheck)
    osTimesliceInit                          0x08004175   Thumb Code    12  los_timeslice.o(i.osTimesliceInit)
    osTskStackInit                           0x08004185   Thumb Code   128  los_hw.o(i.osTskStackInit)
    task_mqtt                                0x0800420d   Thumb Code    70  mqtt_task.o(i.task_mqtt)
    task_test                                0x08004279   Thumb Code    28  task.o(i.task_test)
    time2_disable                            0x0800429d   Thumb Code    14  timer.o(i.time2_disable)
    timer2_enable                            0x080042ab   Thumb Code    12  timer.o(i.timer2_enable)
    timer_init                               0x080042b7   Thumb Code     8  timer.o(i.timer_init)
    usart1_init                              0x080042bf   Thumb Code    12  usart.o(i.usart1_init)
    usart2_init                              0x080042cd   Thumb Code   132  usart2.o(i.usart2_init)
    usart3_init                              0x08004359   Thumb Code   134  usart3.o(i.usart3_init)
    usart3_printf                            0x080043ed   Thumb Code    72  usart3.o(i.usart3_printf)
    usart3_rx_disable                        0x0800443d   Thumb Code    16  usart3.o(i.usart3_rx_disable)
    usart3_rx_enable                         0x08004451   Thumb Code    16  usart3.o(i.usart3_rx_enable)
    __ctype_table                            0x08004464   Data         129  ctype_o.o(.constdata)
    Region$$Table$$Base                      0x080044ec   Number         0  anon$$obj.o(Region$$Table)
    Region$$Table$$Limit                     0x0800451c   Number         0  anon$$obj.o(Region$$Table)
    m_pstHwiForm                             0x20000000   Data        1024  los_hwi.o(.vector.bss)
    Image$$ARM_LIB_STACKHEAP$$ZI$$Limit      0x20000600   Number         0  anon$$obj.o ABSOLUTE
    g_TestTskHandle                          0x20000614   Data           4  main.o(.data)
    g_pstLosPriorityQueueList                0x20000618   Data           4  los_priqueue.o(.data)
    m_uwSwTmrHandlerQueue                    0x2000061c   Data           4  los_swtmr.o(.data)
    m_pstSwtmrCBArray                        0x20000620   Data           4  los_swtmr.o(.data)
    m_pstSwtmrFreeList                       0x20000624   Data           4  los_swtmr.o(.data)
    m_pstSwtmrSortList                       0x20000628   Data           4  los_swtmr.o(.data)
    g_pstTaskCBArray                         0x2000062c   Data           4  los_task.o(.data)
    g_stLosTask                              0x20000630   Data           8  los_task.o(.data)
    g_usLosTaskLock                          0x20000638   Data           2  los_task.o(.data)
    g_uwTskMaxNum                            0x2000063c   Data           4  los_task.o(.data)
    g_uwIdleTaskID                           0x20000640   Data           4  los_task.o(.data)
    g_uwSwtmrTaskID                          0x20000644   Data           4  los_task.o(.data)
    g_stTaskTimerList                        0x20000648   Data           8  los_task.o(.data)
    g_stLosFreeTask                          0x20000650   Data           8  los_task.o(.data)
    g_stTskRecyleList                        0x20000658   Data           8  los_task.o(.data)
    g_stTskSortLink                          0x20000660   Data           8  los_task.o(.data)
    g_bTaskScheduled                         0x20000668   Data           4  los_task.o(.data)
    g_pfnTskSwitchHook                       0x2000066c   Data           4  los_task.o(.data)
    g_ullTickCount                           0x20000670   Data           8  los_tick.o(.data)
    g_uwTicksPerSec                          0x20000678   Data           4  los_tick.o(.data)
    g_uwCyclePerSec                          0x2000067c   Data           4  los_tick.o(.data)
    g_stTaskTimeSlice                        0x20000680   Data           8  los_timeslice.o(.data)
    g_pstAllMux                              0x20000688   Data           4  los_mux.o(.data)
    g_stUnusedMuxList                        0x2000068c   Data           8  los_mux.o(.data)
    g_pstAllQueue                            0x20000694   Data           4  los_queue.o(.data)
    g_stUnusedSemList                        0x20000698   Data           8  los_sem.o(.data)
    g_pstAllSem                              0x200006a0   Data           4  los_sem.o(.data)
    m_aucSysMem0                             0x200006a4   Data           4  los_config.o(.data)
    g_sys_mem_addr_end                       0x200006a8   Data           4  los_config.o(.data)
    g_uwCyclesPerTick                        0x200006ac   Data           4  los_hw_tick.o(.data)
    g_vuwIntCount                            0x200006b0   Data           4  los_hwi.o(.data)
    rx_buf_len                               0x200006b4   Data           1  usart3.o(.data)
    cid_num                                  0x200006b8   Data           4  task.o(.data)
    lac_num                                  0x200006bc   Data           4  task.o(.data)
    rcv_jsonpack_flag                        0x200006c0   Data           1  task.o(.data)
    __stdout                                 0x200006c8   Data           4  stdout.o(.data)
    m_aucSwTmrHandlerPool                    0x200006d0   Data         208  los_swtmr.o(.bss)
    g_ucMemStart                             0x200007a0   Data       12288  los_memory.o(.bss)
    g_TskMemUsedInfo                         0x200037a0   Data          64  los_memstat.o(.bss)
    m_pstHwiSlaveForm                        0x200037e0   Data        1024  los_hwi.o(.bss)
    USART3_RX_BUF                            0x20003be0   Data          64  usart3.o(.bss)
    USART3_TX_BUF                            0x20003c20   Data          64  usart3.o(.bss)
    json_buf                                 0x20003c60   Data          64  mqtt_task.o(.bss)
    __initial_sp                             0x200040a0   Data           0  startup_stm32f10x_md.o(STACK)



==============================================================================

Memory Map of the image

  Image Entry point : 0x080000ed

  Load Region LR_IROM1 (Base: 0x08000000, Size: 0x000049ec, Max: 0x00020000, ABSOLUTE, COMPRESSED[0x00004608])

    Execution Region ER_IROM1 (Base: 0x08000000, Size: 0x0000451c, Max: 0x00020000, ABSOLUTE)

    Base Addr    Size         Type   Attr      Idx    E Section Name        Object

    0x08000000   0x000000ec   Data   RO            4    RESET               startup_stm32f10x_md.o
    0x080000ec   0x00000000   Code   RO         5329  * .ARM.Collect$$$$00000000  mc_w.l(entry.o)
    0x080000ec   0x00000004   Code   RO         5667    .ARM.Collect$$$$00000002  mc_w.l(entry3.o)
    0x080000f0   0x00000004   Code   RO         5670    .ARM.Collect$$$$00000004  mc_w.l(entry5.o)
    0x080000f4   0x00000000   Code   RO         5672    .ARM.Collect$$$$00000008  mc_w.l(entry7b.o)
    0x080000f4   0x00000000   Code   RO         5674    .ARM.Collect$$$$0000000A  mc_w.l(entry8b.o)
    0x080000f4   0x00000008   Code   RO         5675    .ARM.Collect$$$$0000000B  mc_w.l(entry9a.o)
    0x080000fc   0x00000000   Code   RO         5677    .ARM.Collect$$$$0000000D  mc_w.l(entry10a.o)
    0x080000fc   0x00000000   Code   RO         5679    .ARM.Collect$$$$0000000F  mc_w.l(entry11a.o)
    0x080000fc   0x00000004   Code   RO         5668    .ARM.Collect$$$$00002713  mc_w.l(entry3.o)
    0x08000100   0x00000006   Code   RO         4467    .emb_text           los_hwi.o
    0x08000106   0x00000002   PAD
    0x08000108   0x00000024   Code   RO            5    .text               startup_stm32f10x_md.o
    0x0800012c   0x0000005c   Code   RO         4516    .text               los_dispatch.o
    0x08000188   0x00000062   Code   RO         5332    .text               mc_w.l(uldiv.o)
    0x080001ea   0x00000024   Code   RO         5336    .text               mc_w.l(memseta.o)
    0x0800020e   0x0000000e   Code   RO         5342    .text               mc_w.l(strlen.o)
    0x0800021c   0x00000044   Code   RO         5346    .text               mc_w.l(strtok.o)
    0x08000260   0x0000001a   Code   RO         5615    .text               mc_w.l(atoi.o)
    0x0800027a   0x0000014e   Code   RO         5621    .text               mf_w.l(dadd.o)
    0x080003c8   0x000000e4   Code   RO         5623    .text               mf_w.l(dmul.o)
    0x080004ac   0x000000de   Code   RO         5625    .text               mf_w.l(ddiv.o)
    0x0800058a   0x00000030   Code   RO         5633    .text               mf_w.l(dfixul.o)
    0x080005ba   0x0000002c   Code   RO         5682    .text               mc_w.l(uidiv.o)
    0x080005e6   0x0000001e   Code   RO         5684    .text               mc_w.l(llshl.o)
    0x08000604   0x00000020   Code   RO         5686    .text               mc_w.l(llushr.o)
    0x08000624   0x00000024   Code   RO         5688    .text               mc_w.l(llsshr.o)
    0x08000648   0x00000070   Code   RO         5697    .text               mc_w.l(strtol.o)
    0x080006b8   0x00000000   Code   RO         5699    .text               mc_w.l(iusefp.o)
    0x080006b8   0x000000ba   Code   RO         5702    .text               mf_w.l(depilogue.o)
    0x08000772   0x00000002   PAD
    0x08000774   0x00000030   Code   RO         5708    .text               mf_w.l(cdrcmple.o)
    0x080007a4   0x00000024   Code   RO         5713    .text               mc_w.l(init.o)
    0x080007c8   0x00000008   Code   RO         5715    .text               mc_w.l(ctype_o.o)
    0x080007d0   0x0000009e   Code   RO         5743    .text               mc_w.l(_strtoul.o)
    0x0800086e   0x0000001c   Code   RO         5745    .text               mc_w.l(_chval.o)
    0x0800088a   0x00000056   Code   RO         5755    .text               mc_w.l(__dczerorl2.o)
    0x080008e0   0x00000080   Code   RO         4517    KERNEL              los_dispatch.o
    0x08000960   0x00000004   Code   RO         3231    i.BusFault_Handler  stm32f10x_it.o
    0x08000964   0x00000002   Code   RO         3232    i.DebugMon_Handler  stm32f10x_it.o
    0x08000966   0x00000012   Code   RO         3109    i.Delay             main.o
    0x08000978   0x0000001c   Code   RO         1010    i.FLASH_PrefetchBufferCmd  stm32f10x_flash.o
    0x08000994   0x00000018   Code   RO         1015    i.FLASH_SetLatency  stm32f10x_flash.o
    0x080009ac   0x00000040   Code   RO         1290    i.GPIO_EXTILineConfig  stm32f10x_gpio.o
    0x080009ec   0x00000116   Code   RO         1293    i.GPIO_Init         stm32f10x_gpio.o
    0x08000b02   0x00000004   Code   RO         3233    i.HardFault_Handler  stm32f10x_it.o
    0x08000b06   0x0000001c   Code   RO         4345    i.LOS_Align         los_misc.o
    0x08000b22   0x0000001e   Code   RO         4313    i.LOS_DLnkInitMultiHead  los_multipledlinkhead.o
    0x08000b40   0x0000002a   Code   RO         4314    i.LOS_DLnkMultiHead  los_multipledlinkhead.o
    0x08000b6a   0x0000000e   Code   RO         3580    i.LOS_ListAdd       los_task.o
    0x08000b78   0x0000000e   Code   RO         3877    i.LOS_ListAdd       los_mux.o
    0x08000b86   0x0000000e   Code   RO         3951    i.LOS_ListAdd       los_queue.o
    0x08000b94   0x0000000e   Code   RO         4056    i.LOS_ListAdd       los_sem.o
    0x08000ba2   0x0000000e   Code   RO         4159    i.LOS_ListAdd       los_memory.o
    0x08000bb0   0x00000014   Code   RO         3581    i.LOS_ListDelete    los_task.o
    0x08000bc4   0x00000014   Code   RO         4057    i.LOS_ListDelete    los_sem.o
    0x08000bd8   0x00000014   Code   RO         4160    i.LOS_ListDelete    los_memory.o
    0x08000bec   0x00000010   Code   RO         3582    i.LOS_ListEmpty     los_task.o
    0x08000bfc   0x00000010   Code   RO         3952    i.LOS_ListEmpty     los_queue.o
    0x08000c0c   0x00000010   Code   RO         4058    i.LOS_ListEmpty     los_sem.o
    0x08000c1c   0x00000006   Code   RO         3583    i.LOS_ListInit      los_task.o
    0x08000c22   0x00000006   Code   RO         3880    i.LOS_ListInit      los_mux.o
    0x08000c28   0x00000006   Code   RO         3953    i.LOS_ListInit      los_queue.o
    0x08000c2e   0x00000006   Code   RO         4059    i.LOS_ListInit      los_sem.o
    0x08000c34   0x00000010   Code   RO         3584    i.LOS_ListTailInsert  los_task.o
    0x08000c44   0x00000010   Code   RO         3881    i.LOS_ListTailInsert  los_mux.o
    0x08000c54   0x00000010   Code   RO         4060    i.LOS_ListTailInsert  los_sem.o
    0x08000c64   0x00000144   Code   RO         4315    i.LOS_Log2          los_multipledlinkhead.o
    0x08000da8   0x0000003a   Code   RO         4161    i.LOS_MemAlloc      los_memory.o
    0x08000de2   0x0000006c   Code   RO         4162    i.LOS_MemAllocAlign  los_memory.o
    0x08000e4e   0x00000054   Code   RO         4163    i.LOS_MemFree       los_memory.o
    0x08000ea2   0x000000a6   Code   RO         4164    i.LOS_MemInit       los_memory.o
    0x08000f48   0x00000040   Code   RO         4126    i.LOS_MemboxAlloc   los_membox.o
    0x08000f88   0x000000a4   Code   RO         4128    i.LOS_MemboxFree    los_membox.o
    0x0800102c   0x00000080   Code   RO         4129    i.LOS_MemboxInit    los_membox.o
    0x080010ac   0x00000018   Code   RO         3282    i.LOS_PriqueueDequeue  los_priqueue.o
    0x080010c4   0x00000024   Code   RO         3283    i.LOS_PriqueueEnqueue  los_priqueue.o
    0x080010e8   0x00000028   Code   RO         3284    i.LOS_PriqueueSize  los_priqueue.o
    0x08001110   0x0000003c   Code   RO         3285    i.LOS_PriqueueTop   los_priqueue.o
    0x0800114c   0x0000007c   Code   RO         3954    i.LOS_QueueCreate   los_queue.o
    0x080011c8   0x00000130   Code   RO         3956    i.LOS_QueueRead     los_queue.o
    0x080012f8   0x0000013c   Code   RO         3957    i.LOS_QueueWrite    los_queue.o
    0x08001434   0x00000040   Code   RO         4416    i.LOS_Schedule      los_hw.o
    0x08001474   0x000000b8   Code   RO         4064    i.LOS_SemPost       los_sem.o
    0x0800152c   0x00000016   Code   RO         4363    i.LOS_Start         los_config.o
    0x08001542   0x00000002   PAD
    0x08001544   0x0000009c   Code   RO         3585    i.LOS_TaskCreate    los_task.o
    0x080015e0   0x00000184   Code   RO         3586    i.LOS_TaskCreateOnly  los_task.o
    0x08001764   0x00000080   Code   RO         3587    i.LOS_TaskDelay     los_task.o
    0x080017e4   0x00000020   Code   RO         3589    i.LOS_TaskLock      los_task.o
    0x08001804   0x0000003c   Code   RO         3594    i.LOS_TaskUnlock    los_task.o
    0x08001840   0x00000084   Code   RO         3595    i.LOS_TaskYield     los_task.o
    0x080018c4   0x00000004   Code   RO         3234    i.MemManage_Handler  stm32f10x_it.o
    0x080018c8   0x00000002   Code   RO         3235    i.NMI_Handler       stm32f10x_it.o
    0x080018ca   0x000000ac   Code   RO         4522    i.NVIC_Configuration  mcu_init.o
    0x08001976   0x00000002   PAD
    0x08001978   0x00000070   Code   RO          138    i.NVIC_Init         misc.o
    0x080019e8   0x00000014   Code   RO          139    i.NVIC_PriorityGroupConfig  misc.o
    0x080019fc   0x00000014   Code   RO          140    i.NVIC_SetVectorTable  misc.o
    0x08001a10   0x00000018   Code   RO         1707    i.RCC_ADCCLKConfig  stm32f10x_rcc.o
    0x08001a28   0x00000020   Code   RO         1709    i.RCC_APB1PeriphClockCmd  stm32f10x_rcc.o
    0x08001a48   0x00000020   Code   RO         1710    i.RCC_APB1PeriphResetCmd  stm32f10x_rcc.o
    0x08001a68   0x00000020   Code   RO         1711    i.RCC_APB2PeriphClockCmd  stm32f10x_rcc.o
    0x08001a88   0x00000020   Code   RO         1712    i.RCC_APB2PeriphResetCmd  stm32f10x_rcc.o
    0x08001aa8   0x00000080   Code   RO         4523    i.RCC_Configuration  mcu_init.o
    0x08001b28   0x0000004c   Code   RO         1718    i.RCC_DeInit        stm32f10x_rcc.o
    0x08001b74   0x000000d4   Code   RO         1719    i.RCC_GetClocksFreq  stm32f10x_rcc.o
    0x08001c48   0x0000003c   Code   RO         1720    i.RCC_GetFlagStatus  stm32f10x_rcc.o
    0x08001c84   0x00000010   Code   RO         1722    i.RCC_GetSYSCLKSource  stm32f10x_rcc.o
    0x08001c94   0x00000018   Code   RO         1723    i.RCC_HCLKConfig    stm32f10x_rcc.o
    0x08001cac   0x0000004c   Code   RO         1724    i.RCC_HSEConfig     stm32f10x_rcc.o
    0x08001cf8   0x00000018   Code   RO         1730    i.RCC_PCLK1Config   stm32f10x_rcc.o
    0x08001d10   0x00000018   Code   RO         1731    i.RCC_PCLK2Config   stm32f10x_rcc.o
    0x08001d28   0x0000000c   Code   RO         1732    i.RCC_PLLCmd        stm32f10x_rcc.o
    0x08001d34   0x0000001c   Code   RO         1733    i.RCC_PLLConfig     stm32f10x_rcc.o
    0x08001d50   0x00000018   Code   RO         1736    i.RCC_SYSCLKConfig  stm32f10x_rcc.o
    0x08001d68   0x00000038   Code   RO         1738    i.RCC_WaitForHSEStartUp  stm32f10x_rcc.o
    0x08001da0   0x00000002   Code   RO         3236    i.SVC_Handler       stm32f10x_it.o
    0x08001da2   0x00000008   Code   RO           25    i.SetSysClock       system_stm32f10x.o
    0x08001daa   0x00000002   PAD
    0x08001dac   0x000000e0   Code   RO           26    i.SetSysClockTo72   system_stm32f10x.o
    0x08001e8c   0x00000028   Code   RO         3777    i.SysTick_Handler   los_tick.o
    0x08001eb4   0x00000060   Code   RO           28    i.SystemInit        system_stm32f10x.o
    0x08001f14   0x00000012   Code   RO         4553    i.Systick_Init      ult.o
    0x08001f26   0x00000002   PAD
    0x08001f28   0x00000040   Code   RO         5167    i.TIM2_IRQHandler   timer.o
    0x08001f68   0x0000001c   Code   RO         5168    i.TIM3_IRQHandler   timer.o
    0x08001f84   0x00000006   Code   RO         2337    i.TIM_ClearFlag     stm32f10x_tim.o
    0x08001f8a   0x00000006   Code   RO         2338    i.TIM_ClearITPendingBit  stm32f10x_tim.o
    0x08001f90   0x00000018   Code   RO         2343    i.TIM_Cmd           stm32f10x_tim.o
    0x08001fa8   0x000001e8   Code   RO         2348    i.TIM_DeInit        stm32f10x_tim.o
    0x08002190   0x00000022   Code   RO         2364    i.TIM_GetITStatus   stm32f10x_tim.o
    0x080021b2   0x00000012   Code   RO         2368    i.TIM_ITConfig      stm32f10x_tim.o
    0x080021c4   0x000000a4   Code   RO         2414    i.TIM_TimeBaseInit  stm32f10x_tim.o
    0x08002268   0x0000004a   Code   RO         5170    i.Timer_Config      timer.o
    0x080022b2   0x00000002   PAD
    0x080022b4   0x0000004c   Code   RO         5061    i.USART1_IRQHandler  usart.o
    0x08002300   0x00000084   Code   RO         5062    i.USART1_Init       usart.o
    0x08002384   0x00000044   Code   RO         4656    i.USART2_IRQHandler  usart2.o
    0x080023c8   0x00000050   Code   RO         5109    i.USART3_IRQHandler  usart3.o
    0x08002418   0x00000018   Code   RO         2879    i.USART_Cmd         stm32f10x_usart.o
    0x08002430   0x0000009c   Code   RO         2881    i.USART_DeInit      stm32f10x_usart.o
    0x080024cc   0x0000001a   Code   RO         2882    i.USART_GetFlagStatus  stm32f10x_usart.o
    0x080024e6   0x00000054   Code   RO         2883    i.USART_GetITStatus  stm32f10x_usart.o
    0x0800253a   0x0000004a   Code   RO         2885    i.USART_ITConfig    stm32f10x_usart.o
    0x08002584   0x000000d8   Code   RO         2886    i.USART_Init        stm32f10x_usart.o
    0x0800265c   0x0000000a   Code   RO         2893    i.USART_ReceiveData  stm32f10x_usart.o
    0x08002666   0x00000008   Code   RO         2896    i.USART_SendData    stm32f10x_usart.o
    0x0800266e   0x00000004   Code   RO         3237    i.UsageFault_Handler  stm32f10x_it.o
    0x08002672   0x00000002   PAD
    0x08002674   0x00000020   Code   RO         5587    i.__0printf         mc_w.l(printfa.o)
    0x08002694   0x00000028   Code   RO         5589    i.__0sprintf        mc_w.l(printfa.o)
    0x080026bc   0x00000024   Code   RO         5593    i.__0vsprintf       mc_w.l(printfa.o)
    0x080026e0   0x00000008   Code   RO         5690    i.__aeabi_errno_addr  mc_w.l(errno.o)
    0x080026e8   0x0000000e   Code   RO         5749    i.__scatterload_copy  mc_w.l(handlers.o)
    0x080026f6   0x00000002   Code   RO         5750    i.__scatterload_null  mc_w.l(handlers.o)
    0x080026f8   0x0000000e   Code   RO         5751    i.__scatterload_zeroinit  mc_w.l(handlers.o)
    0x08002706   0x00000002   PAD
    0x08002708   0x00000184   Code   RO         5594    i._fp_digits        mc_w.l(printfa.o)
    0x0800288c   0x000006dc   Code   RO         5595    i._printf_core      mc_w.l(printfa.o)
    0x08002f68   0x00000024   Code   RO         5596    i._printf_post_padding  mc_w.l(printfa.o)
    0x08002f8c   0x0000002e   Code   RO         5597    i._printf_pre_padding  mc_w.l(printfa.o)
    0x08002fba   0x0000000a   Code   RO         5599    i._sputc            mc_w.l(printfa.o)
    0x08002fc4   0x00000040   Code   RO         5245    i.creat_task_lbs    task.o
    0x08003004   0x00000044   Code   RO         5296    i.creat_task_mqtt   mqtt_task.o
    0x08003048   0x00000044   Code   RO         5246    i.creat_task_test   task.o
    0x0800308c   0x00000024   Code   RO         5065    i.fputc             usart.o
    0x080030b0   0x00000130   Code   RO         5247    i.get_lbs_station_task  task.o
    0x080031e0   0x0000002e   Code   RO         3110    i.hardware_init     main.o
    0x0800320e   0x0000001a   Code   RO         4364    i.main              los_config.o
    0x08003228   0x0000003c   Code   RO         3111    i.osAppInit         main.o
    0x08003264   0x00000008   Code   RO         4470    i.osHwiDefaultHandler  los_hwi.o
    0x0800326c   0x00000030   Code   RO         4471    i.osHwiInit         los_hwi.o
    0x0800329c   0x00000004   Code   RO         3596    i.osIdleTask        los_task.o
    0x080032a0   0x0000004c   Code   RO         3597    i.osIdleTaskCreate  los_task.o
    0x080032ec   0x00000050   Code   RO         4472    i.osInterrupt       los_hwi.o
    0x0800333c   0x00000066   Code   RO         4367    i.osMain            los_config.o
    0x080033a2   0x0000005c   Code   RO         4166    i.osMemAllocWithCheck  los_memory.o
    0x080033fe   0x00000098   Code   RO         4167    i.osMemCheckUsedNode  los_memory.o
    0x08003496   0x00000050   Code   RO         4168    i.osMemFindSuitableFreeBlock  los_memory.o
    0x080034e6   0x000000b2   Code   RO         4169    i.osMemFreeNode     los_memory.o
    0x08003598   0x0000003e   Code   RO         4170    i.osMemIsNodeValid  los_memory.o
    0x080035d6   0x00000024   Code   RO         4171    i.osMemMergeNode    los_memory.o
    0x080035fa   0x00000002   PAD
    0x080035fc   0x00000020   Code   RO         4172    i.osMemSetMagicNumAndTaskid  los_memory.o
    0x0800361c   0x0000005c   Code   RO         4173    i.osMemSpitNode     los_memory.o
    0x08003678   0x00000024   Code   RO         4174    i.osMemSystemInit   los_memory.o
    0x0800369c   0x0000005c   Code   RO         3886    i.osMuxInit         los_mux.o
    0x080036f8   0x00000048   Code   RO         3287    i.osPriqueueInit    los_priqueue.o
    0x08003740   0x00000070   Code   RO         3958    i.osQueueCreate     los_queue.o
    0x080037b0   0x00000038   Code   RO         3959    i.osQueueInit       los_queue.o
    0x080037e8   0x00000084   Code   RO         3962    i.osQueuePend       los_queue.o
    0x0800386c   0x0000005a   Code   RO         3963    i.osQueueWakeUp     los_queue.o
    0x080038c6   0x00000002   PAD
    0x080038c8   0x0000001c   Code   RO         4368    i.osRegister        los_config.o
    0x080038e4   0x00000008   Code   RO         4417    i.osSchedule        los_hw.o
    0x080038ec   0x00000058   Code   RO         4065    i.osSemInit         los_sem.o
    0x08003944   0x000000ac   Code   RO         3380    i.osSwTmrInit       los_swtmr.o
    0x080039f0   0x00000060   Code   RO         3381    i.osSwTmrStart      los_swtmr.o
    0x08003a50   0x00000050   Code   RO         3382    i.osSwTmrTask       los_swtmr.o
    0x08003aa0   0x00000048   Code   RO         3383    i.osSwTmrTaskCreate  los_swtmr.o
    0x08003ae8   0x0000008c   Code   RO         3384    i.osSwTmrTimeoutHandle  los_swtmr.o
    0x08003b74   0x00000014   Code   RO         3385    i.osSwtmrDelete     los_swtmr.o
    0x08003b88   0x00000024   Code   RO         3386    i.osSwtmrScan       los_swtmr.o
    0x08003bac   0x000000c0   Code   RO         3598    i.osTaskAdd2TimerList  los_task.o
    0x08003c6c   0x000000a4   Code   RO         3599    i.osTaskEntry       los_task.o
    0x08003d10   0x00000006   Code   RO         4418    i.osTaskExit        los_hw.o
    0x08003d16   0x00000002   PAD
    0x08003d18   0x00000128   Code   RO         3600    i.osTaskInit        los_task.o
    0x08003e40   0x00000034   Code   RO         4284    i.osTaskMemUsedDec  los_memstat.o
    0x08003e74   0x0000003c   Code   RO         4285    i.osTaskMemUsedInc  los_memstat.o
    0x08003eb0   0x000000dc   Code   RO         3602    i.osTaskScan        los_task.o
    0x08003f8c   0x000000fc   Code   RO         3603    i.osTaskSelfDelete  los_task.o
    0x08004088   0x00000058   Code   RO         4447    i.osTickStart       los_hw_tick.o
    0x080040e0   0x00000048   Code   RO         3604    i.osTimerListDelete  los_task.o
    0x08004128   0x0000004c   Code   RO         3805    i.osTimesliceCheck  los_timeslice.o
    0x08004174   0x00000010   Code   RO         3806    i.osTimesliceInit   los_timeslice.o
    0x08004184   0x00000088   Code   RO         4419    i.osTskStackInit    los_hw.o
    0x0800420c   0x0000006c   Code   RO         5297    i.task_mqtt         mqtt_task.o
    0x08004278   0x00000024   Code   RO         5248    i.task_test         task.o
    0x0800429c   0x0000000e   Code   RO         5171    i.time2_disable     timer.o
    0x080042aa   0x0000000c   Code   RO         5172    i.timer2_enable     timer.o
    0x080042b6   0x00000008   Code   RO         5174    i.timer_init        timer.o
    0x080042be   0x0000000c   Code   RO         5066    i.usart1_init       usart.o
    0x080042ca   0x00000002   PAD
    0x080042cc   0x0000008c   Code   RO         4659    i.usart2_init       usart2.o
    0x08004358   0x00000094   Code   RO         5111    i.usart3_init       usart3.o
    0x080043ec   0x00000050   Code   RO         5112    i.usart3_printf     usart3.o
    0x0800443c   0x00000014   Code   RO         5113    i.usart3_rx_disable  usart3.o
    0x08004450   0x00000014   Code   RO         5114    i.usart3_rx_enable  usart3.o
    0x08004464   0x00000081   Data   RO         5716    .constdata          mc_w.l(ctype_o.o)
    0x080044e5   0x00000003   PAD
    0x080044e8   0x00000004   Data   RO         5717    .constdata          mc_w.l(ctype_o.o)
    0x080044ec   0x00000030   Data   RO         5747    Region$$Table       anon$$obj.o


    Execution Region VECTOR (Base: 0x20000000, Size: 0x00000400, Max: 0x00000400, ABSOLUTE, COMPRESSED[0x0000001c])

    Base Addr    Size         Type   Attr      Idx    E Section Name        Object

    0x20000000   0x00000400   Data   RW         4475    .vector.bss         los_hwi.o


    Execution Region ARM_LIB_STACKHEAP (Base: 0x20000400, Size: 0x00000200, Max: 0x00000200, ABSOLUTE)

    Base Addr    Size         Type   Attr      Idx    E Section Name        Object

    0x20000400   0x00000200   Zero   RW            1    ARM_LIB_STACKHEAP.bss  anon$$obj.o


    Execution Region RW_IRAM1 (Base: 0x20000600, Size: 0x00003aa0, Max: 0x00005000, ABSOLUTE)

    Base Addr    Size         Type   Attr      Idx    E Section Name        Object

    0x20000600   0x00000014   Data   RW         1739    .data               stm32f10x_rcc.o
    0x20000614   0x00000004   Data   RW         3112    .data               main.o
    0x20000618   0x00000004   Data   RW         3288    .data               los_priqueue.o
    0x2000061c   0x00000010   Data   RW         3389    .data               los_swtmr.o
    0x2000062c   0x00000044   Data   RW         3605    .data               los_task.o
    0x20000670   0x00000010   Data   RW         3778    .data               los_tick.o
    0x20000680   0x00000008   Data   RW         3807    .data               los_timeslice.o
    0x20000688   0x0000000c   Data   RW         3887    .data               los_mux.o
    0x20000694   0x00000004   Data   RW         3964    .data               los_queue.o
    0x20000698   0x0000000c   Data   RW         4066    .data               los_sem.o
    0x200006a4   0x00000008   Data   RW         4369    .data               los_config.o
    0x200006ac   0x00000004   Data   RW         4448    .data               los_hw_tick.o
    0x200006b0   0x00000004   Data   RW         4474    .data               los_hwi.o
    0x200006b4   0x00000001   Data   RW         5117    .data               usart3.o
    0x200006b5   0x00000003   PAD
    0x200006b8   0x00000009   Data   RW         5249    .data               task.o
    0x200006c1   0x00000003   PAD
    0x200006c4   0x00000004   Data   RW         5347    .data               mc_w.l(strtok.o)
    0x200006c8   0x00000004   Data   RW         5681    .data               mc_w.l(stdout.o)
    0x200006cc   0x00000004   Data   RW         5693    .data               mc_w.l(errno.o)
    0x200006d0   0x000000d0   Zero   RW         3388    .bss                los_swtmr.o
    0x200007a0   0x00003000   Zero   RW         4175    .bss                los_memory.o
    0x200037a0   0x00000040   Zero   RW         4286    .bss                los_memstat.o
    0x200037e0   0x00000400   Zero   RW         4473    .bss                los_hwi.o
    0x20003be0   0x00000080   Zero   RW         5116    .bss                usart3.o
    0x20003c60   0x00000040   Zero   RW         5298    .bss                mqtt_task.o
    0x20003ca0   0x00000400   Zero   RW            2    STACK               startup_stm32f10x_md.o


==============================================================================

Image component sizes


      Code (inc. data)   RO Data    RW Data    ZI Data      Debug   Object Name

         0          0          0          0          0       4508   core_cm3.o
       178         14          0          8          0       3470   los_config.o
       220         32          0          0          0        784   los_dispatch.o
       214         16          0          0          0       3042   los_hw.o
        88         32          0          4          0        882   los_hw_tick.o
       142         26          0       1028       1024       5791   los_hwi.o
       356         10          0          0          0       4036   los_membox.o
      1210         14          0          0      12288      16116   los_memory.o
       112         24          0          0         64       2137   los_memstat.o
        28          0          0          0          0        636   los_misc.o
       396          4          0          0          0       5292   los_multipledlinkhead.o
       128         18          0         12          0       6116   los_mux.o
       232         22          0          4          0       7450   los_priqueue.o
      1170         72          0          4          0      18701   los_queue.o
       344         26          0         12          0       5730   los_sem.o
       616         84          0         16        208      17855   los_swtmr.o
      2244        186          0         68          0      25351   los_task.o
        40          6          0         16          0        923   los_tick.o
        92         16          0          8          0       1373   los_timeslice.o
       124          6          0          4          0       5050   main.o
       300          4          0          0          0       1253   mcu_init.o
       152         30          0          0          0       2157   misc.o
       176         54          0          0         64       2419   mqtt_task.o
        36          8        236          0       1024        892   startup_stm32f10x_md.o
        52         12          0          0          0       1145   stm32f10x_flash.o
       342          4          0          0          0       2650   stm32f10x_gpio.o
        22          0          0          0          0       3171   stm32f10x_it.o
       784        110          0         20          0      12635   stm32f10x_rcc.o
       740        106          0          0          0       5063   stm32f10x_tim.o
       598         28          0          0          0       6992   stm32f10x_usart.o
       328         28          0          0          0     249185   system_stm32f10x.o
       472        148          0          9          0       3939   task.o
       200         16          0          0          0      18263   timer.o
        18          0          0          0          0        483   ult.o
       256         18          0          0          0       2372   usart.o
       208         14          0          0          0     222142   usart2.o
       348         42          0          1        128       3654   usart3.o

    ----------------------------------------------------------------------
     12988       1230        284       1220      15312     673658   Object Totals
         0          0         48          0        512          0   (incl. Generated)
        22          0          0          6          0          0   (incl. Padding)

    ----------------------------------------------------------------------

      Code (inc. data)   RO Data    RW Data    ZI Data      Debug   Library Member Name

        86          0          0          0          0          0   __dczerorl2.o
        28          0          0          0          0         68   _chval.o
       158          0          0          0          0         92   _strtoul.o
        26          0          0          0          0         80   atoi.o
         8          4        133          0          0         68   ctype_o.o
         0          0          0          0          0          0   entry.o
         0          0          0          0          0          0   entry10a.o
         0          0          0          0          0          0   entry11a.o
         8          4          0          0          0          0   entry3.o
         4          0          0          0          0          0   entry5.o
         0          0          0          0          0          0   entry7b.o
         0          0          0          0          0          0   entry8b.o
         8          4          0          0          0          0   entry9a.o
         8          4          0          4          0         68   errno.o
        30          0          0          0          0          0   handlers.o
        36          8          0          0          0         68   init.o
         0          0          0          0          0          0   iusefp.o
        30          0          0          0          0         68   llshl.o
        36          0          0          0          0         68   llsshr.o
        32          0          0          0          0         68   llushr.o
        36          0          0          0          0        108   memseta.o
      2344        102          0          0          0        684   printfa.o
         0          0          0          4          0          0   stdout.o
        14          0          0          0          0         68   strlen.o
        68          6          0          4          0         80   strtok.o
       112          0          0          0          0         88   strtol.o
        44          0          0          0          0         80   uidiv.o
        98          0          0          0          0         92   uldiv.o
        48          0          0          0          0         68   cdrcmple.o
       334          0          0          0          0        148   dadd.o
       222          0          0          0          0        100   ddiv.o
       186          0          0          0          0        176   depilogue.o
        48          0          0          0          0         68   dfixul.o
       228          0          0          0          0         96   dmul.o

    ----------------------------------------------------------------------
      4284        132        136         12          0       2504   Library Totals
         4          0          3          0          0          0   (incl. Padding)

    ----------------------------------------------------------------------

      Code (inc. data)   RO Data    RW Data    ZI Data      Debug   Library Name

      3214        132        133         12          0       1848   mc_w.l
      1066          0          0          0          0        656   mf_w.l

    ----------------------------------------------------------------------
      4284        132        136         12          0       2504   Library Totals

    ----------------------------------------------------------------------

==============================================================================


      Code (inc. data)   RO Data    RW Data    ZI Data      Debug   

     17272       1362        420       1232      15312     666514   Grand Totals
     17272       1362        420        236      15312     666514   ELF Image Totals (compressed)
     17272       1362        420        236          0          0   ROM Totals

==============================================================================

    Total RO  Size (Code + RO Data)                17692 (  17.28kB)
    Total RW  Size (RW Data + ZI Data)             16544 (  16.16kB)
    Total ROM Size (Code + RO Data + RW Data)      17928 (  17.51kB)

==============================================================================

