Component: ARM Compiler 5.05 update 1 (build 106) Tool: armlink [4d0efa]

==============================================================================

Section Cross References

    startup_stm32f411xe.o(RESET) refers to startup_stm32f411xe.o(STACK) for __initial_sp
    startup_stm32f411xe.o(RESET) refers to startup_stm32f411xe.o(.text) for Reset_Handler
    startup_stm32f411xe.o(RESET) refers to stm32f4xx_it.o(i.NMI_Handler) for NMI_Handler
    startup_stm32f411xe.o(RESET) refers to stm32f4xx_it.o(i.HardFault_Handler) for HardFault_Handler
    startup_stm32f411xe.o(RESET) refers to stm32f4xx_it.o(i.MemManage_Handler) for MemManage_Handler
    startup_stm32f411xe.o(RESET) refers to stm32f4xx_it.o(i.BusFault_Handler) for BusFault_Handler
    startup_stm32f411xe.o(RESET) refers to stm32f4xx_it.o(i.UsageFault_Handler) for UsageFault_Handler
    startup_stm32f411xe.o(RESET) refers to stm32f4xx_it.o(i.SVC_Handler) for SVC_Handler
    startup_stm32f411xe.o(RESET) refers to stm32f4xx_it.o(i.DebugMon_Handler) for DebugMon_Handler
    startup_stm32f411xe.o(RESET) refers to stm32f4xx_it.o(i.PendSV_Handler) for PendSV_Handler
    startup_stm32f411xe.o(RESET) refers to stm32f4xx_it.o(i.SysTick_Handler) for SysTick_Handler
    startup_stm32f411xe.o(RESET) refers to usart.o(i.USART2_IRQHandler) for USART2_IRQHandler
    startup_stm32f411xe.o(.text) refers to system_stm32f4xx.o(i.SystemInit) for SystemInit
    startup_stm32f411xe.o(.text) refers to entry.o(.ARM.Collect$$$$00000000) for __main
    system_stm32f4xx.o(i.SystemCoreClockUpdate) refers to system_stm32f4xx.o(.data) for .data
    system_stm32f4xx.o(i.SystemInit) refers to system_stm32f4xx.o(i.SetSysClock) for SetSysClock
    stm32f4xx_gpio.o(i.GPIO_DeInit) refers to stm32f4xx_rcc.o(i.RCC_AHB1PeriphResetCmd) for RCC_AHB1PeriphResetCmd
    stm32f4xx_rcc.o(i.RCC_GetClocksFreq) refers to stm32f4xx_rcc.o(.data) for .data
    stm32f4xx_rcc.o(i.RCC_WaitForHSEStartUp) refers to stm32f4xx_rcc.o(i.RCC_GetFlagStatus) for RCC_GetFlagStatus
    stm32f4xx_usart.o(i.USART_DeInit) refers to stm32f4xx_rcc.o(i.RCC_APB2PeriphResetCmd) for RCC_APB2PeriphResetCmd
    stm32f4xx_usart.o(i.USART_DeInit) refers to stm32f4xx_rcc.o(i.RCC_APB1PeriphResetCmd) for RCC_APB1PeriphResetCmd
    stm32f4xx_usart.o(i.USART_Init) refers to stm32f4xx_rcc.o(i.RCC_GetClocksFreq) for RCC_GetClocksFreq
    main.o(i.myTask) refers to delay.o(i.Timer_Init) for Timer_Init
    main.o(i.myTask) refers to io.o(i.IO_Init) for IO_Init
    main.o(i.myTask) refers to usart.o(i.Serial_Init) for Serial_Init
    main.o(i.myTask) refers to delay.o(i.Timer_delay_ms) for Timer_delay_ms
    main.o(i.myTask) refers to stm32f4xx_gpio.o(i.GPIO_SetBits) for GPIO_SetBits
    main.o(i.myTask) refers to stm32f4xx_gpio.o(i.GPIO_ResetBits) for GPIO_ResetBits
    main.o(i.myTask) refers to proto.o(i.setup) for setup
    main.o(i.myTask) refers to proto.o(i.loop) for loop
    stm32f4xx_it.o(i.SysTick_Handler) refers to delay.o(.data) for ntime
    usart.o(i.Serial_Init) refers to stm32f4xx_rcc.o(i.RCC_AHB1PeriphClockCmd) for RCC_AHB1PeriphClockCmd
    usart.o(i.Serial_Init) refers to stm32f4xx_rcc.o(i.RCC_APB1PeriphClockCmd) for RCC_APB1PeriphClockCmd
    usart.o(i.Serial_Init) refers to stm32f4xx_gpio.o(i.GPIO_PinAFConfig) for GPIO_PinAFConfig
    usart.o(i.Serial_Init) refers to stm32f4xx_gpio.o(i.GPIO_Init) for GPIO_Init
    usart.o(i.Serial_Init) refers to stm32f4xx_usart.o(i.USART_Init) for USART_Init
    usart.o(i.Serial_Init) refers to stm32f4xx_usart.o(i.USART_ClearFlag) for USART_ClearFlag
    usart.o(i.Serial_Init) refers to stm32f4xx_usart.o(i.USART_Cmd) for USART_Cmd
    usart.o(i.Serial_Init) refers to misc.o(i.NVIC_Init) for NVIC_Init
    usart.o(i.Serial_Init) refers to stm32f4xx_usart.o(i.USART_ITConfig) for USART_ITConfig
    usart.o(i.Serial_Init) refers to usart.o(.data) for .data
    usart.o(i.Serial_SendString) refers to usart.o(i.Serial_write) for Serial_write
    usart.o(i.Serial_write) refers to stm32f4xx_usart.o(i.USART_GetFlagStatus) for USART_GetFlagStatus
    usart.o(i.USART2_IRQHandler) refers to stm32f4xx_usart.o(i.USART_GetITStatus) for USART_GetITStatus
    usart.o(i.USART2_IRQHandler) refers to stm32f4xx_usart.o(i.USART_ReceiveData) for USART_ReceiveData
    usart.o(i.USART2_IRQHandler) refers to stm32f4xx_usart.o(i.USART_ClearFlag) for USART_ClearFlag
    usart.o(i.USART2_IRQHandler) refers to proto.o(i.Deal) for Deal
    usart.o(i.USART2_IRQHandler) refers to usart.o(.data) for .data
    usart.o(i.fputc) refers to stm32f4xx_usart.o(i.USART_GetFlagStatus) for USART_GetFlagStatus
    usart.o(i.fputc) refers to stm32f4xx_usart.o(i.USART_SendData) for USART_SendData
    delay.o(i.Timer_Init) refers to delay.o(.data) for .data
    delay.o(i.Timer_SetTimeMs) refers to delay.o(i.SysTick_Config) for SysTick_Config
    delay.o(i.Timer_SetTimeMs) refers to delay.o(.data) for .data
    delay.o(i.Timer_delay_ms) refers to delay.o(i.SysTick_Config) for SysTick_Config
    delay.o(i.Timer_delay_ms) refers to delay.o(.data) for .data
    delay.o(i.Timer_delay_us) refers to delay.o(i.SysTick_Config) for SysTick_Config
    delay.o(i.Timer_delay_us) refers to delay.o(.data) for .data
    delay.o(i.Timer_isTimeOut) refers to delay.o(.data) for .data
    proto.o(i.Check) refers to usart.o(i.Serial_write) for Serial_write
    proto.o(i.Check) refers to code_list.o(i.CODE_Save) for CODE_Save
    proto.o(i.Check) refers to proto.o(i.LoadAndRun) for LoadAndRun
    proto.o(i.Check) refers to proto.o(.data) for .data
    proto.o(i.Deal) refers to proto.o(i.Error) for Error
    proto.o(i.Deal) refers to proto.o(i.RunIns) for RunIns
    proto.o(i.Deal) refers to proto.o(i.SetAddr) for SetAddr
    proto.o(i.Deal) refers to proto.o(i.Read) for Read
    proto.o(i.Deal) refers to proto.o(i.Store) for Store
    proto.o(i.Deal) refers to proto.o(i.Check) for Check
    proto.o(i.Deal) refers to proto.o(.data) for .data
    proto.o(i.Deal) refers to error_type.o(.constdata) for E_ProError
    proto.o(i.Error) refers to usart.o(i.Serial_write) for Serial_write
    proto.o(i.LoadAndRun) refers to code_list.o(i.CODE_Load) for CODE_Load
    proto.o(i.LoadAndRun) refers to vm.o(i.VM_Reset) for VM_Reset
    proto.o(i.LoadAndRun) refers to delay.o(i.Timer_SetTimeMs) for Timer_SetTimeMs
    proto.o(i.LoadAndRun) refers to proto.o(.data) for .data
    proto.o(i.Proto_Init) refers to proto.o(.data) for .data
    proto.o(i.Read) refers to code_list.o(i.CODE_ReadIns) for CODE_ReadIns
    proto.o(i.Read) refers to usart.o(i.Serial_write) for Serial_write
    proto.o(i.Read) refers to proto.o(.data) for .data
    proto.o(i.RunIns) refers to io.o(i.IO_DirWrite) for IO_DirWrite
    proto.o(i.RunIns) refers to io.o(i.IO_OutWrite) for IO_OutWrite
    proto.o(i.RunIns) refers to io.o(i.IO_PullWrite) for IO_PullWrite
    proto.o(i.RunIns) refers to io.o(i.IO_AnalogOpen) for IO_AnalogOpen
    proto.o(i.RunIns) refers to proto.o(i.Error) for Error
    proto.o(i.RunIns) refers to io.o(i.IO_OutRead) for IO_OutRead
    proto.o(i.RunIns) refers to io.o(i.IO_InRead) for IO_InRead
    proto.o(i.RunIns) refers to io.o(i.IO_AnalogRead) for IO_AnalogRead
    proto.o(i.RunIns) refers to proto.o(.bss) for .bss
    proto.o(i.RunIns) refers to proto.o(.data) for .data
    proto.o(i.RunIns) refers to vm.o(.data) for WriteNotRead
    proto.o(i.RunIns) refers to error_type.o(.constdata) for E_RunError
    proto.o(i.SendData) refers to vm.o(.data) for ReadData
    proto.o(i.SetAddr) refers to code_list.o(i.CODE_Start) for CODE_Start
    proto.o(i.SetAddr) refers to usart.o(i.Serial_write) for Serial_write
    proto.o(i.SetAddr) refers to proto.o(.data) for .data
    proto.o(i.Store) refers to code_list.o(i.CODE_AddIns) for CODE_AddIns
    proto.o(i.Store) refers to usart.o(i.Serial_write) for Serial_write
    proto.o(i.Store) refers to proto.o(.data) for .data
    proto.o(i.Store) refers to proto.o(.bss) for .bss
    proto.o(i.loop) refers to vm.o(i.VM_Run) for VM_Run
    proto.o(i.loop) refers to delay.o(i.Timer_isTimeOut) for Timer_isTimeOut
    proto.o(i.loop) refers to delay.o(i.Timer_SetTimeMs) for Timer_SetTimeMs
    proto.o(i.loop) refers to vm.o(i.VM_ClearSysValue) for VM_ClearSysValue
    proto.o(i.loop) refers to vm.o(i.VM_AddInterruptEvent) for VM_AddInterruptEvent
    proto.o(i.loop) refers to proto.o(.data) for .data
    proto.o(i.setup) refers to proto.o(i.LoadAndRun) for LoadAndRun
    proto.o(i.setup) refers to proto.o(.data) for .data
    code_list.o(i.CODE_AddIns) refers to code_list.o(.bss) for .bss
    code_list.o(i.CODE_AddIns) refers to code_list.o(.data) for .data
    code_list.o(i.CODE_ReadIns) refers to code_list.o(.bss) for .bss
    code_list.o(i.CODE_Start) refers to code_list.o(.data) for .data
    vm.o(i.DealInterface) refers to proto.o(i.Error) for Error
    vm.o(i.DealInterface) refers to mem.o(i.Mem_Get_uint32) for Mem_Get_uint32
    vm.o(i.DealInterface) refers to vm.o(i.REMO_DataChannelWrite) for REMO_DataChannelWrite
    vm.o(i.DealInterface) refers to vm.o(i.REMO_DataChannelRead) for REMO_DataChannelRead
    vm.o(i.DealInterface) refers to vm.o(.data) for .data
    vm.o(i.DealInterface) refers to error_type.o(.constdata) for E_VM_InterfaceError
    vm.o(i.REMO_DataChannelRead) refers to proto.o(i.Deal) for Deal
    vm.o(i.REMO_DataChannelRead) refers to vm.o(.data) for .data
    vm.o(i.REMO_DataChannelWrite) refers to proto.o(i.Deal) for Deal
    vm.o(i.REMO_DataChannelWrite) refers to vm.o(.data) for .data
    vm.o(i.ReadConstValue) refers to code_list.o(i.CODE_ReadIns) for CODE_ReadIns
    vm.o(i.ReadConstValue) refers to vm.o(.data) for .data
    vm.o(i.ReadInsAddrValue) refers to code_list.o(i.CODE_ReadIns) for CODE_ReadIns
    vm.o(i.ReadInsAddrValue) refers to vm.o(.data) for .data
    vm.o(i.ReadInterfaceValue) refers to code_list.o(i.CODE_ReadIns) for CODE_ReadIns
    vm.o(i.ReadInterfaceValue) refers to vm.o(.data) for .data
    vm.o(i.ReadSubValueValue) refers to code_list.o(i.CODE_ReadIns) for CODE_ReadIns
    vm.o(i.ReadSubValueValue) refers to vm.o(.data) for .data
    vm.o(i.ReadSys_int16) refers to vm.o(.data) for .data
    vm.o(i.ReadSys_int8) refers to vm.o(.data) for .data
    vm.o(i.ReadVarAddrValue) refers to code_list.o(i.CODE_ReadIns) for CODE_ReadIns
    vm.o(i.ReadVarAddrValue) refers to vm.o(.data) for .data
    vm.o(i.VM_AddInterruptEvent) refers to vm.o(.bss) for .bss
    vm.o(i.VM_AddInterruptEvent) refers to vm.o(.data) for .data
    vm.o(i.VM_ClearSysValue) refers to vm.o(.data) for .data
    vm.o(i.VM_Reset) refers to mem.o(i.Mem_Clear) for Mem_Clear
    vm.o(i.VM_Reset) refers to vm.o(.data) for .data
    vm.o(i.VM_Run) refers to code_list.o(i.CODE_ReadIns) for CODE_ReadIns
    vm.o(i.VM_Run) refers to vm.o(.data) for .data
    vm.o(i.VM_Run) refers to mem.o(.bss) for BASE
    vm.o(i.VM_Run) refers to vm.o(i.ReadInterfaceValue) for ReadInterfaceValue
    vm.o(i.VM_Run) refers to vm.o(i.DealInterface) for DealInterface
    vm.o(i.VM_Run) refers to vm.o(i.ReadVarAddrValue) for ReadVarAddrValue
    vm.o(i.VM_Run) refers to vm.o(i.ReadInsAddrValue) for ReadInsAddrValue
    vm.o(i.VM_Run) refers to vm.o(i.ReadConstValue) for ReadConstValue
    vm.o(i.VM_Run) refers to mem.o(i.Mem_Get_uint16) for Mem_Get_uint16
    vm.o(i.VM_Run) refers to mem.o(i.Mem_Get_uint24) for Mem_Get_uint24
    vm.o(i.VM_Run) refers to mem.o(i.Mem_GetCode_uint8) for Mem_GetCode_uint8
    vm.o(i.VM_Run) refers to mem.o(i.Mem_GetCode_uint16) for Mem_GetCode_uint16
    vm.o(i.VM_Run) refers to mem.o(i.Mem_GetCode_uint32) for Mem_GetCode_uint32
    vm.o(i.VM_Run) refers to mem.o(i.Mem_Set_uint16) for Mem_Set_uint16
    vm.o(i.VM_Run) refers to vm.o(i.ReadSys_int8) for ReadSys_int8
    vm.o(i.VM_Run) refers to vm.o(i.ReadSys_int16) for ReadSys_int16
    vm.o(i.VM_Run) refers to mem.o(i.Mem_Set_uint8) for Mem_Set_uint8
    vm.o(i.VM_Run) refers to mem.o(i.Mem_Set_uint32) for Mem_Set_uint32
    vm.o(i.VM_Run) refers to mem.o(i.Mem_Set_int8) for Mem_Set_int8
    vm.o(i.VM_Run) refers to mem.o(i.Mem_Set_int16) for Mem_Set_int16
    vm.o(i.VM_Run) refers to mem.o(i.Mem_Set_int32) for Mem_Set_int32
    vm.o(i.VM_Run) refers to mem.o(i.Mem_Get_uint8) for Mem_Get_uint8
    vm.o(i.VM_Run) refers to mem.o(i.Mem_Get_uint32) for Mem_Get_uint32
    vm.o(i.VM_Run) refers to mem.o(i.Mem_Get_int8) for Mem_Get_int8
    vm.o(i.VM_Run) refers to mem.o(i.Mem_Get_int16) for Mem_Get_int16
    vm.o(i.VM_Run) refers to mem.o(i.Mem_Get_int32) for Mem_Get_int32
    vm.o(i.VM_Run) refers to vm.o(i.ReadSubValueValue) for ReadSubValueValue
    vm.o(i.VM_Run) refers to proto.o(i.Error) for Error
    vm.o(i.VM_Run) refers to proto.o(.data) for Running
    vm.o(i.VM_Run) refers to error_type.o(.constdata) for E_VM_InsError
    vm.o(i.VM_Run) refers to vm.o(.bss) for .bss
    mem.o(i.Mem_Clear) refers to mem.o(.bss) for .bss
    mem.o(i.Mem_GetCode_uint16) refers to code_list.o(i.CODE_ReadIns) for CODE_ReadIns
    mem.o(i.Mem_GetCode_uint32) refers to code_list.o(i.CODE_ReadIns) for CODE_ReadIns
    mem.o(i.Mem_GetCode_uint8) refers to code_list.o(i.CODE_ReadIns) for CODE_ReadIns
    mem.o(i.Mem_Get_int16) refers to mem.o(.bss) for .bss
    mem.o(i.Mem_Get_int32) refers to mem.o(.bss) for .bss
    mem.o(i.Mem_Get_int8) refers to mem.o(.bss) for .bss
    mem.o(i.Mem_Get_uint16) refers to mem.o(.bss) for .bss
    mem.o(i.Mem_Get_uint24) refers to mem.o(.bss) for .bss
    mem.o(i.Mem_Get_uint32) refers to mem.o(.bss) for .bss
    mem.o(i.Mem_Get_uint8) refers to mem.o(.bss) for .bss
    mem.o(i.Mem_Set_int16) refers to mem.o(.bss) for .bss
    mem.o(i.Mem_Set_int32) refers to mem.o(.bss) for .bss
    mem.o(i.Mem_Set_int8) refers to mem.o(.bss) for .bss
    mem.o(i.Mem_Set_uint16) refers to mem.o(.bss) for .bss
    mem.o(i.Mem_Set_uint32) refers to mem.o(.bss) for .bss
    mem.o(i.Mem_Set_uint8) refers to mem.o(.bss) for .bss
    io.o(i.IO_DirWrite) refers to stm32f4xx_gpio.o(i.GPIO_Init) for GPIO_Init
    io.o(i.IO_DirWrite) refers to io.o(.data) for .data
    io.o(i.IO_DirWrite) refers to io.o(.bss) for .bss
    io.o(i.IO_InRead) refers to stm32f4xx_gpio.o(i.GPIO_ReadInputDataBit) for GPIO_ReadInputDataBit
    io.o(i.IO_InRead) refers to io.o(.bss) for .bss
    io.o(i.IO_Init) refers to stm32f4xx_rcc.o(i.RCC_AHB1PeriphClockCmd) for RCC_AHB1PeriphClockCmd
    io.o(i.IO_Init) refers to stm32f4xx_gpio.o(i.GPIO_Init) for GPIO_Init
    io.o(i.IO_Init) refers to io.o(.data) for .data
    io.o(i.IO_Init) refers to io.o(.bss) for .bss
    io.o(i.IO_OutRead) refers to stm32f4xx_gpio.o(i.GPIO_ReadOutputDataBit) for GPIO_ReadOutputDataBit
    io.o(i.IO_OutRead) refers to io.o(.bss) for .bss
    io.o(i.IO_OutWrite) refers to stm32f4xx_gpio.o(i.GPIO_SetBits) for GPIO_SetBits
    io.o(i.IO_OutWrite) refers to stm32f4xx_gpio.o(i.GPIO_ResetBits) for GPIO_ResetBits
    io.o(i.IO_OutWrite) refers to io.o(.bss) for .bss
    los_misc.o(i.LOS_Msleep) refers to los_sys.o(i.LOS_MS2Tick) for LOS_MS2Tick
    los_misc.o(i.LOS_Msleep) refers to los_task.o(i.LOS_TaskDelay) for LOS_TaskDelay
    los_misc.o(i.LOS_Msleep) refers to los_hwi.o(.data) for g_vuwIntCount
    los_membox.o(i.LOS_MemboxAlloc) refers to los_dispatch.o(.text) for LOS_IntLock
    los_membox.o(i.LOS_MemboxClr) refers to memseta.o(.text) for __aeabi_memclr
    los_membox.o(i.LOS_MemboxFree) refers to los_dispatch.o(.text) for LOS_IntLock
    los_membox.o(i.LOS_MemboxInit) refers to los_dispatch.o(.text) for LOS_IntLock
    los_memory.o(i.LOS_MemAlloc) refers to los_dispatch.o(.text) for LOS_IntLock
    los_memory.o(i.LOS_MemAlloc) refers to los_memory.o(i.osMemAllocWithCheck) for osMemAllocWithCheck
    los_memory.o(i.LOS_MemAllocAlign) refers to los_dispatch.o(.text) for LOS_IntLock
    los_memory.o(i.LOS_MemAllocAlign) refers to los_memory.o(i.osMemAllocWithCheck) for osMemAllocWithCheck
    los_memory.o(i.LOS_MemFree) refers to los_dispatch.o(.text) for LOS_IntLock
    los_memory.o(i.LOS_MemFree) refers to los_memory.o(i.osMemCheckUsedNode) for osMemCheckUsedNode
    los_memory.o(i.LOS_MemFree) refers to los_memory.o(i.osMemFreeNode) for osMemFreeNode
    los_memory.o(i.LOS_MemInit) refers to los_dispatch.o(.text) for LOS_IntLock
    los_memory.o(i.LOS_MemInit) refers to los_multipledlinkhead.o(i.LOS_DLnkInitMultiHead) for LOS_DLnkInitMultiHead
    los_memory.o(i.LOS_MemInit) refers to los_multipledlinkhead.o(i.LOS_DLnkMultiHead) for LOS_DLnkMultiHead
    los_memory.o(i.LOS_MemInit) refers to los_memory.o(i.LOS_ListAdd) for LOS_ListAdd
    los_memory.o(i.LOS_MemInit) refers to los_memory.o(i.osMemSetMagicNumAndTaskid) for osMemSetMagicNumAndTaskid
    los_memory.o(i.LOS_MemRealloc) refers to los_dispatch.o(.text) for LOS_IntLock
    los_memory.o(i.LOS_MemRealloc) refers to los_memory.o(i.osMemCheckUsedNode) for osMemCheckUsedNode
    los_memory.o(i.LOS_MemRealloc) refers to los_memory.o(i.LOS_MemAlloc) for LOS_MemAlloc
    los_memory.o(i.LOS_MemRealloc) refers to los_memory.o(i.LOS_MemFree) for LOS_MemFree
    los_memory.o(i.LOS_MemRealloc) refers to los_memory.o(i.osMemSpitNode) for osMemSpitNode
    los_memory.o(i.LOS_MemRealloc) refers to los_memstat.o(i.osTaskMemUsedDec) for osTaskMemUsedDec
    los_memory.o(i.LOS_MemRealloc) refers to los_memory.o(i.LOS_ListDelete) for LOS_ListDelete
    los_memory.o(i.LOS_MemRealloc) refers to los_memory.o(i.osMemMergeNode) for osMemMergeNode
    los_memory.o(i.LOS_MemRealloc) refers to los_memstat.o(i.osTaskMemUsedInc) for osTaskMemUsedInc
    los_memory.o(i.LOS_MemRealloc) refers to los_memory.o(i.osMemAllocWithCheck) for osMemAllocWithCheck
    los_memory.o(i.LOS_MemRealloc) refers to memcpya.o(.text) for __aeabi_memcpy
    los_memory.o(i.LOS_MemRealloc) refers to los_memory.o(i.osMemFreeNode) for osMemFreeNode
    los_memory.o(i.osMemAllocWithCheck) refers to los_multipledlinkhead.o(i.LOS_DLnkMultiHead) for LOS_DLnkMultiHead
    los_memory.o(i.osMemAllocWithCheck) refers to los_memory.o(i.osMemSpitNode) for osMemSpitNode
    los_memory.o(i.osMemAllocWithCheck) refers to los_memory.o(i.LOS_ListDelete) for LOS_ListDelete
    los_memory.o(i.osMemAllocWithCheck) refers to los_memory.o(i.osMemSetMagicNumAndTaskid) for osMemSetMagicNumAndTaskid
    los_memory.o(i.osMemAllocWithCheck) refers to los_memstat.o(i.osTaskMemUsedInc) for osTaskMemUsedInc
    los_memory.o(i.osMemCheckUsedNode) refers to los_memory.o(i.osMemIsNodeValid) for osMemIsNodeValid
    los_memory.o(i.osMemFreeNode) refers to los_memstat.o(i.osTaskMemUsedDec) for osTaskMemUsedDec
    los_memory.o(i.osMemFreeNode) refers to los_memory.o(i.osMemMergeNode) for osMemMergeNode
    los_memory.o(i.osMemFreeNode) refers to los_memory.o(i.LOS_ListDelete) for LOS_ListDelete
    los_memory.o(i.osMemFreeNode) refers to los_multipledlinkhead.o(i.LOS_DLnkMultiHead) for LOS_DLnkMultiHead
    los_memory.o(i.osMemFreeNode) refers to los_memory.o(i.LOS_ListAdd) for LOS_ListAdd
    los_memory.o(i.osMemSetMagicNumAndTaskid) refers to los_task.o(.data) for g_stLosTask
    los_memory.o(i.osMemSpitNode) refers to los_memory.o(i.LOS_ListDelete) for LOS_ListDelete
    los_memory.o(i.osMemSpitNode) refers to los_memory.o(i.osMemMergeNode) for osMemMergeNode
    los_memory.o(i.osMemSpitNode) refers to los_multipledlinkhead.o(i.LOS_DLnkMultiHead) for LOS_DLnkMultiHead
    los_memory.o(i.osMemSpitNode) refers to los_memory.o(i.LOS_ListAdd) for LOS_ListAdd
    los_memory.o(i.osMemSystemInit) refers to los_memory.o(i.LOS_MemInit) for LOS_MemInit
    los_memory.o(i.osMemSystemInit) refers to los_memory.o(.bss) for .bss
    los_memory.o(i.osMemSystemInit) refers to los_config.o(.data) for m_aucSysMem0
    los_memstat.o(i.osTaskMemUsage) refers to los_memstat.o(.bss) for .bss
    los_memstat.o(i.osTaskMemUsedDec) refers to los_task.o(.data) for g_stLosTask
    los_memstat.o(i.osTaskMemUsedDec) refers to los_hwi.o(.data) for g_vuwIntCount
    los_memstat.o(i.osTaskMemUsedDec) refers to los_memstat.o(.bss) for .bss
    los_memstat.o(i.osTaskMemUsedInc) refers to los_task.o(.data) for g_stLosTask
    los_memstat.o(i.osTaskMemUsedInc) refers to los_hwi.o(.data) for g_vuwIntCount
    los_memstat.o(i.osTaskMemUsedInc) refers to los_memstat.o(.bss) for .bss
    los_multipledlinkhead.o(i.LOS_DLnkMultiHead) refers to los_multipledlinkhead.o(i.LOS_Log2) for LOS_Log2
    los_event.o(i.LOS_EventClear) refers to los_dispatch.o(.text) for LOS_IntLock
    los_event.o(i.LOS_EventPoll) refers to los_dispatch.o(.text) for LOS_IntLock
    los_event.o(i.LOS_EventRead) refers to los_dispatch.o(.text) for LOS_IntLock
    los_event.o(i.LOS_EventRead) refers to los_event.o(i.LOS_EventPoll) for LOS_EventPoll
    los_event.o(i.LOS_EventRead) refers to los_priqueue.o(i.LOS_PriqueueDequeue) for LOS_PriqueueDequeue
    los_event.o(i.LOS_EventRead) refers to los_task.o(i.osTaskAdd2TimerList) for osTaskAdd2TimerList
    los_event.o(i.LOS_EventRead) refers to los_hw.o(i.LOS_Schedule) for LOS_Schedule
    los_event.o(i.LOS_EventRead) refers to los_hwi.o(.data) for g_vuwIntCount
    los_event.o(i.LOS_EventRead) refers to los_task.o(.data) for g_usLosTaskLock
    los_event.o(i.LOS_EventWrite) refers to los_dispatch.o(.text) for LOS_IntLock
    los_event.o(i.LOS_EventWrite) refers to los_task.o(i.osTimerListDelete) for osTimerListDelete
    los_event.o(i.LOS_EventWrite) refers to los_priqueue.o(i.LOS_PriqueueEnqueue) for LOS_PriqueueEnqueue
    los_event.o(i.LOS_EventWrite) refers to los_hw.o(i.LOS_Schedule) for LOS_Schedule
    los_mux.o(i.LOS_MuxCreate) refers to los_dispatch.o(.text) for LOS_IntLock
    los_mux.o(i.LOS_MuxCreate) refers to los_mux.o(i.LOS_ListEmpty) for LOS_ListEmpty
    los_mux.o(i.LOS_MuxCreate) refers to los_mux.o(i.LOS_ListDelete) for LOS_ListDelete
    los_mux.o(i.LOS_MuxCreate) refers to los_mux.o(.data) for .data
    los_mux.o(i.LOS_MuxDelete) refers to los_dispatch.o(.text) for LOS_IntLock
    los_mux.o(i.LOS_MuxDelete) refers to los_mux.o(i.LOS_ListEmpty) for LOS_ListEmpty
    los_mux.o(i.LOS_MuxDelete) refers to los_mux.o(i.LOS_ListAdd) for LOS_ListAdd
    los_mux.o(i.LOS_MuxDelete) refers to los_mux.o(.data) for .data
    los_mux.o(i.LOS_MuxPend) refers to los_dispatch.o(.text) for LOS_IntLock
    los_mux.o(i.LOS_MuxPend) refers to los_priqueue.o(i.LOS_PriqueueDequeue) for LOS_PriqueueDequeue
    los_mux.o(i.LOS_MuxPend) refers to los_task.o(i.osTaskPriModify) for osTaskPriModify
    los_mux.o(i.LOS_MuxPend) refers to los_mux.o(i.LOS_ListAdd) for LOS_ListAdd
    los_mux.o(i.LOS_MuxPend) refers to los_task.o(i.osTaskAdd2TimerList) for osTaskAdd2TimerList
    los_mux.o(i.LOS_MuxPend) refers to los_hw.o(i.LOS_Schedule) for LOS_Schedule
    los_mux.o(i.LOS_MuxPend) refers to los_mux.o(.data) for .data
    los_mux.o(i.LOS_MuxPend) refers to los_hwi.o(.data) for g_vuwIntCount
    los_mux.o(i.LOS_MuxPend) refers to los_task.o(.data) for g_stLosTask
    los_mux.o(i.LOS_MuxPost) refers to los_dispatch.o(.text) for LOS_IntLock
    los_mux.o(i.LOS_MuxPost) refers to los_task.o(i.osTaskPriModify) for osTaskPriModify
    los_mux.o(i.LOS_MuxPost) refers to los_mux.o(i.LOS_ListEmpty) for LOS_ListEmpty
    los_mux.o(i.LOS_MuxPost) refers to los_mux.o(i.LOS_ListDelete) for LOS_ListDelete
    los_mux.o(i.LOS_MuxPost) refers to los_task.o(i.osTimerListDelete) for osTimerListDelete
    los_mux.o(i.LOS_MuxPost) refers to los_priqueue.o(i.LOS_PriqueueEnqueue) for LOS_PriqueueEnqueue
    los_mux.o(i.LOS_MuxPost) refers to los_hw.o(i.LOS_Schedule) for LOS_Schedule
    los_mux.o(i.LOS_MuxPost) refers to los_mux.o(.data) for .data
    los_mux.o(i.LOS_MuxPost) refers to los_hwi.o(.data) for g_vuwIntCount
    los_mux.o(i.LOS_MuxPost) refers to los_task.o(.data) for g_stLosTask
    los_mux.o(i.osMuxInit) refers to los_memory.o(i.LOS_MemAlloc) for LOS_MemAlloc
    los_mux.o(i.osMuxInit) refers to los_mux.o(i.LOS_ListAdd) for LOS_ListAdd
    los_mux.o(i.osMuxInit) refers to los_mux.o(.data) for .data
    los_mux.o(i.osMuxInit) refers to los_config.o(.data) for m_aucSysMem0
    los_queue.o(i.LOS_QueueCreate) refers to los_dispatch.o(.text) for LOS_IntLock
    los_queue.o(i.LOS_QueueCreate) refers to los_queue.o(i.osQueueCreate) for osQueueCreate
    los_queue.o(i.LOS_QueueDelete) refers to los_dispatch.o(.text) for LOS_IntLock
    los_queue.o(i.LOS_QueueDelete) refers to los_queue.o(i.LOS_ListEmpty) for LOS_ListEmpty
    los_queue.o(i.LOS_QueueDelete) refers to los_memory.o(i.LOS_MemFree) for LOS_MemFree
    los_queue.o(i.LOS_QueueDelete) refers to los_queue.o(.data) for .data
    los_queue.o(i.LOS_QueueDelete) refers to los_config.o(.data) for m_aucSysMem0
    los_queue.o(i.LOS_QueueRead) refers to los_dispatch.o(.text) for LOS_IntLock
    los_queue.o(i.LOS_QueueRead) refers to los_queue.o(i.LOS_ListEmpty) for LOS_ListEmpty
    los_queue.o(i.LOS_QueueRead) refers to los_queue.o(i.osQueuePend) for osQueuePend
    los_queue.o(i.LOS_QueueRead) refers to los_hw.o(i.LOS_Schedule) for LOS_Schedule
    los_queue.o(i.LOS_QueueRead) refers to los_queue.o(i.osQueueWakeUp) for osQueueWakeUp
    los_queue.o(i.LOS_QueueRead) refers to los_hwi.o(.data) for g_vuwIntCount
    los_queue.o(i.LOS_QueueRead) refers to los_queue.o(.data) for .data
    los_queue.o(i.LOS_QueueRead) refers to los_task.o(.data) for g_usLosTaskLock
    los_queue.o(i.LOS_QueueWrite) refers to los_dispatch.o(.text) for LOS_IntLock
    los_queue.o(i.LOS_QueueWrite) refers to los_queue.o(i.LOS_ListEmpty) for LOS_ListEmpty
    los_queue.o(i.LOS_QueueWrite) refers to los_queue.o(i.osQueuePend) for osQueuePend
    los_queue.o(i.LOS_QueueWrite) refers to los_hw.o(i.LOS_Schedule) for LOS_Schedule
    los_queue.o(i.LOS_QueueWrite) refers to los_queue.o(i.osQueueWakeUp) for osQueueWakeUp
    los_queue.o(i.LOS_QueueWrite) refers to los_hwi.o(.data) for g_vuwIntCount
    los_queue.o(i.LOS_QueueWrite) refers to los_queue.o(.data) for .data
    los_queue.o(i.LOS_QueueWrite) refers to los_task.o(.data) for g_usLosTaskLock
    los_queue.o(i.osQueueCreate) refers to memseta.o(.text) for __aeabi_memclr4
    los_queue.o(i.osQueueCreate) refers to los_memory.o(i.LOS_MemAlloc) for LOS_MemAlloc
    los_queue.o(i.osQueueCreate) refers to los_queue.o(.data) for .data
    los_queue.o(i.osQueueCreate) refers to los_config.o(.data) for m_aucSysMem0
    los_queue.o(i.osQueueInit) refers to los_memory.o(i.LOS_MemAlloc) for LOS_MemAlloc
    los_queue.o(i.osQueueInit) refers to memseta.o(.text) for __aeabi_memclr4
    los_queue.o(i.osQueueInit) refers to los_config.o(.data) for m_aucSysMem0
    los_queue.o(i.osQueueInit) refers to los_queue.o(.data) for .data
    los_queue.o(i.osQueueMailAlloc) refers to los_dispatch.o(.text) for LOS_IntLock
    los_queue.o(i.osQueueMailAlloc) refers to los_membox.o(i.LOS_MemboxAlloc) for LOS_MemboxAlloc
    los_queue.o(i.osQueueMailAlloc) refers to los_queue.o(i.osQueuePend) for osQueuePend
    los_queue.o(i.osQueueMailAlloc) refers to los_hw.o(i.LOS_Schedule) for LOS_Schedule
    los_queue.o(i.osQueueMailAlloc) refers to los_hwi.o(.data) for g_vuwIntCount
    los_queue.o(i.osQueueMailAlloc) refers to los_queue.o(.data) for .data
    los_queue.o(i.osQueueMailAlloc) refers to los_task.o(.data) for g_stLosTask
    los_queue.o(i.osQueueMailFree) refers to los_dispatch.o(.text) for LOS_IntLock
    los_queue.o(i.osQueueMailFree) refers to los_membox.o(i.LOS_MemboxFree) for LOS_MemboxFree
    los_queue.o(i.osQueueMailFree) refers to los_queue.o(i.LOS_ListEmpty) for LOS_ListEmpty
    los_queue.o(i.osQueueMailFree) refers to los_queue.o(i.osQueueWakeUp) for osQueueWakeUp
    los_queue.o(i.osQueueMailFree) refers to los_membox.o(i.LOS_MemboxAlloc) for LOS_MemboxAlloc
    los_queue.o(i.osQueueMailFree) refers to los_hw.o(i.LOS_Schedule) for LOS_Schedule
    los_queue.o(i.osQueueMailFree) refers to los_queue.o(.data) for .data
    los_queue.o(i.osQueuePend) refers to los_priqueue.o(i.LOS_PriqueueDequeue) for LOS_PriqueueDequeue
    los_queue.o(i.osQueuePend) refers to los_queue.o(i.LOS_ListEmpty) for LOS_ListEmpty
    los_queue.o(i.osQueuePend) refers to los_queue.o(i.LOS_ListAdd) for LOS_ListAdd
    los_queue.o(i.osQueuePend) refers to los_task.o(i.osTaskAdd2TimerList) for osTaskAdd2TimerList
    los_queue.o(i.osQueueWakeUp) refers to los_task.o(i.osTimerListDelete) for osTimerListDelete
    los_queue.o(i.osQueueWakeUp) refers to los_priqueue.o(i.LOS_PriqueueEnqueue) for LOS_PriqueueEnqueue
    los_sem.o(i.LOS_SemCreate) refers to los_dispatch.o(.text) for LOS_IntLock
    los_sem.o(i.LOS_SemCreate) refers to los_sem.o(i.LOS_ListEmpty) for LOS_ListEmpty
    los_sem.o(i.LOS_SemCreate) refers to los_sem.o(i.LOS_ListDelete) for LOS_ListDelete
    los_sem.o(i.LOS_SemCreate) refers to los_sem.o(.data) for .data
    los_sem.o(i.LOS_SemDelete) refers to los_dispatch.o(.text) for LOS_IntLock
    los_sem.o(i.LOS_SemDelete) refers to los_sem.o(i.LOS_ListEmpty) for LOS_ListEmpty
    los_sem.o(i.LOS_SemDelete) refers to los_sem.o(i.LOS_ListAdd) for LOS_ListAdd
    los_sem.o(i.LOS_SemDelete) refers to los_sem.o(.data) for .data
    los_sem.o(i.LOS_SemPend) refers to los_dispatch.o(.text) for LOS_IntLock
    los_sem.o(i.LOS_SemPend) refers to los_priqueue.o(i.LOS_PriqueueDequeue) for LOS_PriqueueDequeue
    los_sem.o(i.LOS_SemPend) refers to los_sem.o(i.LOS_ListAdd) for LOS_ListAdd
    los_sem.o(i.LOS_SemPend) refers to los_task.o(i.osTaskAdd2TimerList) for osTaskAdd2TimerList
    los_sem.o(i.LOS_SemPend) refers to los_hw.o(i.LOS_Schedule) for LOS_Schedule
    los_sem.o(i.LOS_SemPend) refers to los_sem.o(.data) for .data
    los_sem.o(i.LOS_SemPend) refers to los_hwi.o(.data) for g_vuwIntCount
    los_sem.o(i.LOS_SemPend) refers to los_task.o(.data) for g_usLosTaskLock
    los_sem.o(i.LOS_SemPost) refers to los_dispatch.o(.text) for LOS_IntLock
    los_sem.o(i.LOS_SemPost) refers to los_sem.o(i.LOS_ListEmpty) for LOS_ListEmpty
    los_sem.o(i.LOS_SemPost) refers to los_sem.o(i.LOS_ListDelete) for LOS_ListDelete
    los_sem.o(i.LOS_SemPost) refers to los_task.o(i.osTimerListDelete) for osTimerListDelete
    los_sem.o(i.LOS_SemPost) refers to los_priqueue.o(i.LOS_PriqueueEnqueue) for LOS_PriqueueEnqueue
    los_sem.o(i.LOS_SemPost) refers to los_hw.o(i.LOS_Schedule) for LOS_Schedule
    los_sem.o(i.LOS_SemPost) refers to los_sem.o(.data) for .data
    los_sem.o(i.osSemInit) refers to los_memory.o(i.LOS_MemAlloc) for LOS_MemAlloc
    los_sem.o(i.osSemInit) refers to los_sem.o(i.LOS_ListAdd) for LOS_ListAdd
    los_sem.o(i.osSemInit) refers to los_sem.o(.data) for .data
    los_sem.o(i.osSemInit) refers to los_config.o(.data) for m_aucSysMem0
    los_priqueue.o(i.LOS_PriqueueEnqueue) refers to los_priqueue.o(.data) for .data
    los_priqueue.o(i.LOS_PriqueueSize) refers to los_priqueue.o(.data) for .data
    los_priqueue.o(i.LOS_PriqueueTop) refers to los_priqueue.o(.data) for .data
    los_priqueue.o(i.LOS_PriqueueTotalSize) refers to los_priqueue.o(i.LOS_PriqueueSize) for LOS_PriqueueSize
    los_priqueue.o(i.osPriqueueInit) refers to los_memory.o(i.LOS_MemAlloc) for LOS_MemAlloc
    los_priqueue.o(i.osPriqueueInit) refers to los_config.o(.data) for m_aucSysMem0
    los_priqueue.o(i.osPriqueueInit) refers to los_priqueue.o(.data) for .data
    los_swtmr.o(i.LOS_SwtmrCreate) refers to los_dispatch.o(.text) for LOS_IntLock
    los_swtmr.o(i.LOS_SwtmrCreate) refers to los_swtmr.o(.data) for .data
    los_swtmr.o(i.LOS_SwtmrDelete) refers to los_dispatch.o(.text) for LOS_IntLock
    los_swtmr.o(i.LOS_SwtmrDelete) refers to los_swtmr.o(i.osSwtmrStop) for osSwtmrStop
    los_swtmr.o(i.LOS_SwtmrDelete) refers to los_swtmr.o(i.osSwtmrDelete) for osSwtmrDelete
    los_swtmr.o(i.LOS_SwtmrDelete) refers to los_swtmr.o(.data) for .data
    los_swtmr.o(i.LOS_SwtmrStart) refers to los_dispatch.o(.text) for LOS_IntLock
    los_swtmr.o(i.LOS_SwtmrStart) refers to los_swtmr.o(i.osSwtmrStop) for osSwtmrStop
    los_swtmr.o(i.LOS_SwtmrStart) refers to los_swtmr.o(i.osSwTmrStart) for osSwTmrStart
    los_swtmr.o(i.LOS_SwtmrStart) refers to los_swtmr.o(.data) for .data
    los_swtmr.o(i.LOS_SwtmrStop) refers to los_dispatch.o(.text) for LOS_IntLock
    los_swtmr.o(i.LOS_SwtmrStop) refers to los_swtmr.o(i.osSwtmrStop) for osSwtmrStop
    los_swtmr.o(i.LOS_SwtmrStop) refers to los_swtmr.o(.data) for .data
    los_swtmr.o(i.osSwTmrAdjust) refers to los_swtmr.o(i.osSwTmrTimeoutHandle) for osSwTmrTimeoutHandle
    los_swtmr.o(i.osSwTmrAdjust) refers to los_swtmr.o(.data) for .data
    los_swtmr.o(i.osSwTmrGetNextTimeout) refers to los_swtmr.o(.data) for .data
    los_swtmr.o(i.osSwTmrInit) refers to los_memory.o(i.LOS_MemAlloc) for LOS_MemAlloc
    los_swtmr.o(i.osSwTmrInit) refers to memseta.o(.text) for __aeabi_memclr4
    los_swtmr.o(i.osSwTmrInit) refers to los_membox.o(i.LOS_MemboxInit) for LOS_MemboxInit
    los_swtmr.o(i.osSwTmrInit) refers to los_queue.o(i.LOS_QueueCreate) for LOS_QueueCreate
    los_swtmr.o(i.osSwTmrInit) refers to los_swtmr.o(i.osSwTmrTaskCreate) for osSwTmrTaskCreate
    los_swtmr.o(i.osSwTmrInit) refers to los_swtmr.o(.data) for .data
    los_swtmr.o(i.osSwTmrInit) refers to los_config.o(.data) for m_aucSysMem0
    los_swtmr.o(i.osSwTmrInit) refers to los_swtmr.o(.bss) for .bss
    los_swtmr.o(i.osSwTmrStart) refers to los_swtmr.o(.data) for .data
    los_swtmr.o(i.osSwTmrTask) refers to los_queue.o(i.LOS_QueueRead) for LOS_QueueRead
    los_swtmr.o(i.osSwTmrTask) refers to los_membox.o(i.LOS_MemboxFree) for LOS_MemboxFree
    los_swtmr.o(i.osSwTmrTask) refers to los_swtmr.o(.data) for .data
    los_swtmr.o(i.osSwTmrTask) refers to los_swtmr.o(.bss) for .bss
    los_swtmr.o(i.osSwTmrTaskCreate) refers to memseta.o(.text) for __aeabi_memclr4
    los_swtmr.o(i.osSwTmrTaskCreate) refers to los_task.o(i.LOS_TaskCreate) for LOS_TaskCreate
    los_swtmr.o(i.osSwTmrTaskCreate) refers to los_swtmr.o(i.osSwTmrTask) for osSwTmrTask
    los_swtmr.o(i.osSwTmrTaskCreate) refers to los_task.o(.data) for g_uwSwtmrTaskID
    los_swtmr.o(i.osSwTmrTimeoutHandle) refers to los_membox.o(i.LOS_MemboxAlloc) for LOS_MemboxAlloc
    los_swtmr.o(i.osSwTmrTimeoutHandle) refers to los_queue.o(i.LOS_QueueWrite) for LOS_QueueWrite
    los_swtmr.o(i.osSwTmrTimeoutHandle) refers to los_membox.o(i.LOS_MemboxFree) for LOS_MemboxFree
    los_swtmr.o(i.osSwTmrTimeoutHandle) refers to los_swtmr.o(i.osSwTmrStart) for osSwTmrStart
    los_swtmr.o(i.osSwTmrTimeoutHandle) refers to los_swtmr.o(i.osSwtmrDelete) for osSwtmrDelete
    los_swtmr.o(i.osSwTmrTimeoutHandle) refers to los_swtmr.o(.data) for .data
    los_swtmr.o(i.osSwTmrTimeoutHandle) refers to los_swtmr.o(.bss) for .bss
    los_swtmr.o(i.osSwtmrDelete) refers to los_swtmr.o(.data) for .data
    los_swtmr.o(i.osSwtmrScan) refers to los_swtmr.o(i.osSwTmrTimeoutHandle) for osSwTmrTimeoutHandle
    los_swtmr.o(i.osSwtmrScan) refers to los_swtmr.o(.data) for .data
    los_swtmr.o(i.osSwtmrStop) refers to los_swtmr.o(.data) for .data
    los_sys.o(i.LOS_MS2Tick) refers to uldiv.o(.text) for __aeabi_uldivmod
    los_sys.o(i.LOS_Reboot) refers to los_dispatch.o(.text) for LOS_IntLock
    los_sys.o(i.LOS_Tick2MS) refers to uldiv.o(.text) for __aeabi_uldivmod
    los_sys.o(i.LOS_TickCountGet) refers to los_tick.o(.data) for g_ullTickCount
    los_sys.o(i.get_jiffies_64) refers to los_sys.o(i.LOS_TickCountGet) for LOS_TickCountGet
    los_sys.o(i.jiffies_to_msecs) refers to los_sys.o(i.LOS_Tick2MS) for LOS_Tick2MS
    los_sys.o(i.osCpuTick2MS) refers to dfltul.o(.text) for __aeabi_ul2d
    los_sys.o(i.osCpuTick2MS) refers to ddiv.o(.text) for __aeabi_ddiv
    los_sys.o(i.osCpuTick2MS) refers to dfixul.o(.text) for __aeabi_d2ulz
    los_sys.o(i.osCpuTick2US) refers to dfltul.o(.text) for __aeabi_ul2d
    los_sys.o(i.osCpuTick2US) refers to ddiv.o(.text) for __aeabi_ddiv
    los_sys.o(i.osCpuTick2US) refers to dfixul.o(.text) for __aeabi_d2ulz
    los_task.o(i.LOS_CurTaskIDGet) refers to los_task.o(.data) for .data
    los_task.o(i.LOS_CurTaskPriSet) refers to los_task.o(i.LOS_TaskPriSet) for LOS_TaskPriSet
    los_task.o(i.LOS_CurTaskPriSet) refers to los_task.o(.data) for .data
    los_task.o(i.LOS_ListTailInsert) refers to los_task.o(i.LOS_ListAdd) for LOS_ListAdd
    los_task.o(i.LOS_TaskCreate) refers to los_task.o(i.LOS_TaskCreateOnly) for LOS_TaskCreateOnly
    los_task.o(i.LOS_TaskCreate) refers to los_dispatch.o(.text) for LOS_IntLock
    los_task.o(i.LOS_TaskCreate) refers to los_priqueue.o(i.LOS_PriqueueEnqueue) for LOS_PriqueueEnqueue
    los_task.o(i.LOS_TaskCreate) refers to los_priqueue.o(i.LOS_PriqueueTop) for LOS_PriqueueTop
    los_task.o(i.LOS_TaskCreate) refers to los_hw.o(i.osSchedule) for osSchedule
    los_task.o(i.LOS_TaskCreate) refers to los_task.o(.data) for .data
    los_task.o(i.LOS_TaskCreateOnly) refers to los_misc.o(i.LOS_Align) for LOS_Align
    los_task.o(i.LOS_TaskCreateOnly) refers to los_dispatch.o(.text) for LOS_IntLock
    los_task.o(i.LOS_TaskCreateOnly) refers to los_task.o(i.LOS_ListDelete) for LOS_ListDelete
    los_task.o(i.LOS_TaskCreateOnly) refers to los_task.o(i.LOS_ListAdd) for LOS_ListAdd
    los_task.o(i.LOS_TaskCreateOnly) refers to los_memory.o(i.LOS_MemFree) for LOS_MemFree
    los_task.o(i.LOS_TaskCreateOnly) refers to los_task.o(i.LOS_ListEmpty) for LOS_ListEmpty
    los_task.o(i.LOS_TaskCreateOnly) refers to los_memory.o(i.LOS_MemAllocAlign) for LOS_MemAllocAlign
    los_task.o(i.LOS_TaskCreateOnly) refers to los_hw.o(i.osTskStackInit) for osTskStackInit
    los_task.o(i.LOS_TaskCreateOnly) refers to los_config.o(.data) for m_aucSysMem0
    los_task.o(i.LOS_TaskCreateOnly) refers to los_task.o(.data) for .data
    los_task.o(i.LOS_TaskDelay) refers to los_dispatch.o(.text) for LOS_IntLock
    los_task.o(i.LOS_TaskDelay) refers to los_priqueue.o(i.LOS_PriqueueDequeue) for LOS_PriqueueDequeue
    los_task.o(i.LOS_TaskDelay) refers to los_task.o(i.osTaskAdd2TimerList) for osTaskAdd2TimerList
    los_task.o(i.LOS_TaskDelay) refers to los_hw.o(i.LOS_Schedule) for LOS_Schedule
    los_task.o(i.LOS_TaskDelay) refers to los_task.o(i.LOS_TaskYield) for LOS_TaskYield
    los_task.o(i.LOS_TaskDelay) refers to los_hwi.o(.data) for g_vuwIntCount
    los_task.o(i.LOS_TaskDelay) refers to los_task.o(.data) for .data
    los_task.o(i.LOS_TaskDelete) refers to los_dispatch.o(.text) for LOS_IntLock
    los_task.o(i.LOS_TaskDelete) refers to los_priqueue.o(i.LOS_PriqueueDequeue) for LOS_PriqueueDequeue
    los_task.o(i.LOS_TaskDelete) refers to los_task.o(i.LOS_ListDelete) for LOS_ListDelete
    los_task.o(i.LOS_TaskDelete) refers to los_task.o(i.osTimerListDelete) for osTimerListDelete
    los_task.o(i.LOS_TaskDelete) refers to los_priqueue.o(i.LOS_PriqueueTop) for LOS_PriqueueTop
    los_task.o(i.LOS_TaskDelete) refers to los_task.o(i.LOS_ListTailInsert) for LOS_ListTailInsert
    los_task.o(i.LOS_TaskDelete) refers to los_hw.o(i.osSchedule) for osSchedule
    los_task.o(i.LOS_TaskDelete) refers to los_task.o(i.LOS_ListAdd) for LOS_ListAdd
    los_task.o(i.LOS_TaskDelete) refers to los_memory.o(i.LOS_MemFree) for LOS_MemFree
    los_task.o(i.LOS_TaskDelete) refers to los_task.o(.data) for .data
    los_task.o(i.LOS_TaskDelete) refers to los_config.o(.data) for m_aucSysMem0
    los_task.o(i.LOS_TaskLock) refers to los_dispatch.o(.text) for LOS_IntLock
    los_task.o(i.LOS_TaskLock) refers to los_task.o(.data) for .data
    los_task.o(i.LOS_TaskPriGet) refers to los_dispatch.o(.text) for LOS_IntLock
    los_task.o(i.LOS_TaskPriGet) refers to los_task.o(.data) for .data
    los_task.o(i.LOS_TaskPriSet) refers to los_dispatch.o(.text) for LOS_IntLock
    los_task.o(i.LOS_TaskPriSet) refers to los_priqueue.o(i.LOS_PriqueueDequeue) for LOS_PriqueueDequeue
    los_task.o(i.LOS_TaskPriSet) refers to los_priqueue.o(i.LOS_PriqueueEnqueue) for LOS_PriqueueEnqueue
    los_task.o(i.LOS_TaskPriSet) refers to los_hw.o(i.LOS_Schedule) for LOS_Schedule
    los_task.o(i.LOS_TaskPriSet) refers to los_task.o(.data) for .data
    los_task.o(i.LOS_TaskResume) refers to los_dispatch.o(.text) for LOS_IntLock
    los_task.o(i.LOS_TaskResume) refers to los_priqueue.o(i.LOS_PriqueueEnqueue) for LOS_PriqueueEnqueue
    los_task.o(i.LOS_TaskResume) refers to los_hw.o(i.LOS_Schedule) for LOS_Schedule
    los_task.o(i.LOS_TaskResume) refers to los_priqueue.o(i.LOS_PriqueueTop) for LOS_PriqueueTop
    los_task.o(i.LOS_TaskResume) refers to los_task.o(.data) for .data
    los_task.o(i.LOS_TaskSuspend) refers to los_dispatch.o(.text) for LOS_IntLock
    los_task.o(i.LOS_TaskSuspend) refers to los_priqueue.o(i.LOS_PriqueueDequeue) for LOS_PriqueueDequeue
    los_task.o(i.LOS_TaskSuspend) refers to los_hw.o(i.LOS_Schedule) for LOS_Schedule
    los_task.o(i.LOS_TaskSuspend) refers to los_task.o(.data) for .data
    los_task.o(i.LOS_TaskUnlock) refers to los_dispatch.o(.text) for LOS_IntLock
    los_task.o(i.LOS_TaskUnlock) refers to los_hw.o(i.LOS_Schedule) for LOS_Schedule
    los_task.o(i.LOS_TaskUnlock) refers to los_task.o(.data) for .data
    los_task.o(i.LOS_TaskYield) refers to los_dispatch.o(.text) for LOS_IntLock
    los_task.o(i.LOS_TaskYield) refers to los_priqueue.o(i.LOS_PriqueueSize) for LOS_PriqueueSize
    los_task.o(i.LOS_TaskYield) refers to los_task.o(i.LOS_ListDelete) for LOS_ListDelete
    los_task.o(i.LOS_TaskYield) refers to los_priqueue.o(i.LOS_PriqueueEnqueue) for LOS_PriqueueEnqueue
    los_task.o(i.LOS_TaskYield) refers to los_hw.o(i.LOS_Schedule) for LOS_Schedule
    los_task.o(i.LOS_TaskYield) refers to los_task.o(.data) for .data
    los_task.o(i.osIdleTaskCreate) refers to memseta.o(.text) for __aeabi_memclr4
    los_task.o(i.osIdleTaskCreate) refers to los_task.o(i.LOS_TaskCreate) for LOS_TaskCreate
    los_task.o(i.osIdleTaskCreate) refers to los_task.o(i.osIdleTask) for osIdleTask
    los_task.o(i.osIdleTaskCreate) refers to los_task.o(.data) for .data
    los_task.o(i.osTaskAdd2TimerList) refers to los_task.o(i.LOS_ListTailInsert) for LOS_ListTailInsert
    los_task.o(i.osTaskAdd2TimerList) refers to los_task.o(.data) for .data
    los_task.o(i.osTaskEntry) refers to los_dispatch.o(.text) for LOS_IntLock
    los_task.o(i.osTaskEntry) refers to los_task.o(i.osTaskSelfDelete) for osTaskSelfDelete
    los_task.o(i.osTaskEntry) refers to los_task.o(i.LOS_TaskLock) for LOS_TaskLock
    los_task.o(i.osTaskEntry) refers to los_sem.o(i.LOS_SemPost) for LOS_SemPost
    los_task.o(i.osTaskEntry) refers to los_priqueue.o(i.LOS_PriqueueDequeue) for LOS_PriqueueDequeue
    los_task.o(i.osTaskEntry) refers to los_task.o(i.LOS_TaskUnlock) for LOS_TaskUnlock
    los_task.o(i.osTaskEntry) refers to los_hw.o(i.LOS_Schedule) for LOS_Schedule
    los_task.o(i.osTaskEntry) refers to los_task.o(.data) for .data
    los_task.o(i.osTaskInit) refers to los_memory.o(i.LOS_MemAlloc) for LOS_MemAlloc
    los_task.o(i.osTaskInit) refers to memseta.o(.text) for __aeabi_memclr4
    los_task.o(i.osTaskInit) refers to los_task.o(i.LOS_ListTailInsert) for LOS_ListTailInsert
    los_task.o(i.osTaskInit) refers to los_priqueue.o(i.osPriqueueInit) for osPriqueueInit
    los_task.o(i.osTaskInit) refers to los_task.o(.data) for .data
    los_task.o(i.osTaskInit) refers to los_config.o(.data) for m_aucSysMem0
    los_task.o(i.osTaskPriModify) refers to los_priqueue.o(i.LOS_PriqueueDequeue) for LOS_PriqueueDequeue
    los_task.o(i.osTaskPriModify) refers to los_priqueue.o(i.LOS_PriqueueEnqueue) for LOS_PriqueueEnqueue
    los_task.o(i.osTaskScan) refers to los_hw.o(i.LOS_Schedule) for LOS_Schedule
    los_task.o(i.osTaskScan) refers to los_task.o(i.LOS_ListDelete) for LOS_ListDelete
    los_task.o(i.osTaskScan) refers to los_priqueue.o(i.LOS_PriqueueEnqueue) for LOS_PriqueueEnqueue
    los_task.o(i.osTaskScan) refers to los_task.o(.data) for .data
    los_task.o(i.osTaskSelfDelete) refers to los_priqueue.o(i.LOS_PriqueueDequeue) for LOS_PriqueueDequeue
    los_task.o(i.osTaskSelfDelete) refers to los_task.o(i.LOS_ListDelete) for LOS_ListDelete
    los_task.o(i.osTaskSelfDelete) refers to los_task.o(i.osTimerListDelete) for osTimerListDelete
    los_task.o(i.osTaskSelfDelete) refers to los_priqueue.o(i.LOS_PriqueueTop) for LOS_PriqueueTop
    los_task.o(i.osTaskSelfDelete) refers to los_task.o(i.LOS_ListTailInsert) for LOS_ListTailInsert
    los_task.o(i.osTaskSelfDelete) refers to los_dispatch.o(.text) for LOS_IntRestore
    los_task.o(i.osTaskSelfDelete) refers to los_hw.o(i.osSchedule) for osSchedule
    los_task.o(i.osTaskSelfDelete) refers to los_task.o(.data) for .data
    los_task.o(i.osTimerListDelete) refers to los_task.o(i.LOS_ListDelete) for LOS_ListDelete
    los_task.o(i.osTimerListDelete) refers to los_task.o(.data) for .data
    los_tick.o(i.SysTick_Handler1) refers to los_timeslice.o(i.osTimesliceCheck) for osTimesliceCheck
    los_tick.o(i.SysTick_Handler1) refers to los_task.o(i.osTaskScan) for osTaskScan
    los_tick.o(i.SysTick_Handler1) refers to los_swtmr.o(i.osSwtmrScan) for osSwtmrScan
    los_tick.o(i.SysTick_Handler1) refers to los_tick.o(.data) for .data
    los_timeslice.o(i.osTimesliceCheck) refers to los_task.o(i.LOS_TaskYield) for LOS_TaskYield
    los_timeslice.o(i.osTimesliceCheck) refers to los_timeslice.o(.data) for .data
    los_timeslice.o(i.osTimesliceCheck) refers to los_task.o(.data) for g_stLosTask
    los_timeslice.o(i.osTimesliceCheck) refers to los_tick.o(.data) for g_ullTickCount
    los_timeslice.o(i.osTimesliceInit) refers to los_timeslice.o(.data) for .data
    los_config.o(i.LOS_Start) refers to los_hw_tick.o(i.osTickStart) for osTickStart
    los_config.o(i.LOS_Start) refers to los_dispatch.o(.text) for LOS_StartToRun
    los_config.o(i.main) refers to main.o(i.myTask) for myTask
    los_config.o(i.main) refers to los_config.o(i.osMain) for osMain
    los_config.o(i.main) refers to los_config.o(i.LOS_Start) for LOS_Start
    los_config.o(i.osMain) refers to los_config.o(i.osRegister) for osRegister
    los_config.o(i.osMain) refers to los_memory.o(i.osMemSystemInit) for osMemSystemInit
    los_config.o(i.osMain) refers to los_hwi.o(i.osHwiInit) for osHwiInit
    los_config.o(i.osMain) refers to los_task.o(i.osTaskInit) for osTaskInit
    los_config.o(i.osMain) refers to los_sem.o(i.osSemInit) for osSemInit
    los_config.o(i.osMain) refers to los_mux.o(i.osMuxInit) for osMuxInit
    los_config.o(i.osMain) refers to los_queue.o(i.osQueueInit) for osQueueInit
    los_config.o(i.osMain) refers to los_swtmr.o(i.osSwTmrInit) for osSwTmrInit
    los_config.o(i.osMain) refers to los_timeslice.o(i.osTimesliceInit) for osTimesliceInit
    los_config.o(i.osMain) refers to los_task.o(i.osIdleTaskCreate) for osIdleTaskCreate
    los_config.o(i.osRegister) refers to los_task.o(.data) for g_uwTskMaxNum
    los_config.o(i.osRegister) refers to los_memory.o(.bss) for g_ucMemStart
    los_config.o(i.osRegister) refers to los_config.o(.data) for .data
    los_hw.o(i.LOS_Schedule) refers to los_dispatch.o(.text) for LOS_IntLock
    los_hw.o(i.LOS_Schedule) refers to los_priqueue.o(i.LOS_PriqueueTop) for LOS_PriqueueTop
    los_hw.o(i.LOS_Schedule) refers to los_task.o(.data) for g_stLosTask
    los_hw.o(i.osSchedule) refers to los_dispatch.o(.text) for osTaskSchedule
    los_hw.o(i.osTskStackInit) refers to los_hw.o(i.osTaskExit) for osTaskExit
    los_hw.o(i.osTskStackInit) refers to los_task.o(i.osTaskEntry) for osTaskEntry
    los_hw_tick.o(i.LOS_GetCpuCycle) refers to los_dispatch.o(.text) for LOS_IntLock
    los_hw_tick.o(i.LOS_GetCpuCycle) refers to los_tick.o(.data) for g_ullTickCount
    los_hw_tick.o(i.LOS_GetCpuCycle) refers to los_hw_tick.o(.data) for .data
    los_hw_tick.o(i.osTickStart) refers to los_hwi.o(i.osInterrupt) for osInterrupt
    los_hw_tick.o(i.osTickStart) refers to los_hwi.o(.vector.bss) for m_pstHwiForm
    los_hw_tick.o(i.osTickStart) refers to stm32f4xx_it.o(i.SysTick_Handler) for SysTick_Handler
    los_hw_tick.o(i.osTickStart) refers to los_hwi.o(.bss) for m_pstHwiSlaveForm
    los_hw_tick.o(i.osTickStart) refers to los_hw_tick.o(.data) for .data
    los_hw_tick.o(i.osTickStart) refers to los_tick.o(.data) for g_ullTickCount
    los_hwi.o(i.LOS_HwiCreate) refers to los_dispatch.o(.text) for LOS_IntLock
    los_hwi.o(i.LOS_HwiCreate) refers to los_hwi.o(.vector.bss) for .vector.bss
    los_hwi.o(i.LOS_HwiCreate) refers to los_hwi.o(i.osHwiDefaultHandler) for osHwiDefaultHandler
    los_hwi.o(i.LOS_HwiCreate) refers to los_hwi.o(i.osInterrupt) for osInterrupt
    los_hwi.o(i.LOS_HwiCreate) refers to los_hwi.o(.bss) for .bss
    los_hwi.o(i.LOS_HwiDelete) refers to los_dispatch.o(.text) for LOS_IntLock
    los_hwi.o(i.LOS_HwiDelete) refers to los_hwi.o(i.osHwiDefaultHandler) for osHwiDefaultHandler
    los_hwi.o(i.LOS_HwiDelete) refers to los_hwi.o(.vector.bss) for .vector.bss
    los_hwi.o(i.osHwiDefaultHandler) refers to los_hwi.o(.emb_text) for osIntNumGet
    los_hwi.o(i.osHwiInit) refers to los_hwi.o(i.osHwiDefaultHandler) for osHwiDefaultHandler
    los_hwi.o(i.osHwiInit) refers to los_hwi.o(.vector.bss) for .vector.bss
    los_hwi.o(i.osInterrupt) refers to los_dispatch.o(.text) for LOS_IntLock
    los_hwi.o(i.osInterrupt) refers to los_hwi.o(.emb_text) for osIntNumGet
    los_hwi.o(i.osInterrupt) refers to los_hwi.o(.data) for .data
    los_hwi.o(i.osInterrupt) refers to los_hwi.o(.bss) for .bss
    los_hwi.o(.vector.bss) refers to startup_stm32f411xe.o(.text) for Reset_Handler
    los_hwi.o(.vector.bss) refers to los_hwi.o(i.osHwiDefaultHandler) for osHwiDefaultHandler
    los_hwi.o(.vector.bss) refers to stm32f4xx_it.o(i.PendSV_Handler) for PendSV_Handler
    entry.o(.ARM.Collect$$$$00000000) refers (Special) to entry10a.o(.ARM.Collect$$$$0000000D) for __rt_final_cpp
    entry.o(.ARM.Collect$$$$00000000) refers (Special) to entry11a.o(.ARM.Collect$$$$0000000F) for __rt_final_exit
    entry.o(.ARM.Collect$$$$00000000) refers (Special) to entry7b.o(.ARM.Collect$$$$00000008) for _main_clock
    entry.o(.ARM.Collect$$$$00000000) refers (Special) to entry8b.o(.ARM.Collect$$$$0000000A) for _main_cpp_init
    entry.o(.ARM.Collect$$$$00000000) refers (Special) to entry9a.o(.ARM.Collect$$$$0000000B) for _main_init
    entry.o(.ARM.Collect$$$$00000000) refers (Special) to entry5.o(.ARM.Collect$$$$00000004) for _main_scatterload
    entry.o(.ARM.Collect$$$$00000000) refers (Special) to entry2.o(.ARM.Collect$$$$00000001) for _main_stk
    uldiv.o(.text) refers to llushr.o(.text) for __aeabi_llsr
    uldiv.o(.text) refers to llshl.o(.text) for __aeabi_llsl
    ddiv.o(.text) refers (Special) to iusefp.o(.text) for __I$use$fp
    ddiv.o(.text) refers to depilogue.o(.text) for _double_round
    dfltul.o(.text) refers (Special) to iusefp.o(.text) for __I$use$fp
    dfltul.o(.text) refers to depilogue.o(.text) for _double_epilogue
    dfixul.o(.text) refers (Special) to iusefp.o(.text) for __I$use$fp
    dfixul.o(.text) refers to llushr.o(.text) for __aeabi_llsr
    dfixul.o(.text) refers to llshl.o(.text) for __aeabi_llsl
    entry2.o(.ARM.Collect$$$$00000001) refers to entry2.o(.ARM.Collect$$$$00002712) for __lit__00000000
    entry2.o(.ARM.Collect$$$$00002712) refers to startup_stm32f411xe.o(STACK) for __initial_sp
    entry2.o(__vectab_stack_and_reset_area) refers to startup_stm32f411xe.o(STACK) for __initial_sp
    entry2.o(__vectab_stack_and_reset_area) refers to entry.o(.ARM.Collect$$$$00000000) for __main
    entry5.o(.ARM.Collect$$$$00000004) refers to init.o(.text) for __scatterload
    entry9a.o(.ARM.Collect$$$$0000000B) refers to los_config.o(i.main) for main
    entry9b.o(.ARM.Collect$$$$0000000C) refers to los_config.o(i.main) for main
    depilogue.o(.text) refers to llshl.o(.text) for __aeabi_llsl
    depilogue.o(.text) refers to llushr.o(.text) for __aeabi_llsr
    init.o(.text) refers to entry5.o(.ARM.Collect$$$$00000004) for __main_after_scatterload


==============================================================================

Removing Unused input sections from the image.

    Removing startup_stm32f411xe.o(HEAP), (512 bytes).
    Removing system_stm32f4xx.o(.rev16_text), (4 bytes).
    Removing system_stm32f4xx.o(.revsh_text), (4 bytes).
    Removing system_stm32f4xx.o(.rrx_text), (6 bytes).
    Removing system_stm32f4xx.o(i.SystemCoreClockUpdate), (116 bytes).
    Removing system_stm32f4xx.o(.data), (20 bytes).
    Removing misc.o(.rev16_text), (4 bytes).
    Removing misc.o(.revsh_text), (4 bytes).
    Removing misc.o(.rrx_text), (6 bytes).
    Removing misc.o(i.NVIC_PriorityGroupConfig), (20 bytes).
    Removing misc.o(i.NVIC_SetVectorTable), (20 bytes).
    Removing misc.o(i.NVIC_SystemLPConfig), (24 bytes).
    Removing misc.o(i.SysTick_CLKSourceConfig), (24 bytes).
    Removing stm32f4xx_gpio.o(.rev16_text), (4 bytes).
    Removing stm32f4xx_gpio.o(.revsh_text), (4 bytes).
    Removing stm32f4xx_gpio.o(.rrx_text), (6 bytes).
    Removing stm32f4xx_gpio.o(i.GPIO_DeInit), (260 bytes).
    Removing stm32f4xx_gpio.o(i.GPIO_PinLockConfig), (24 bytes).
    Removing stm32f4xx_gpio.o(i.GPIO_ReadInputData), (6 bytes).
    Removing stm32f4xx_gpio.o(i.GPIO_ReadOutputData), (6 bytes).
    Removing stm32f4xx_gpio.o(i.GPIO_StructInit), (18 bytes).
    Removing stm32f4xx_gpio.o(i.GPIO_ToggleBits), (8 bytes).
    Removing stm32f4xx_gpio.o(i.GPIO_Write), (4 bytes).
    Removing stm32f4xx_gpio.o(i.GPIO_WriteBit), (10 bytes).
    Removing stm32f4xx_rcc.o(.rev16_text), (4 bytes).
    Removing stm32f4xx_rcc.o(.revsh_text), (4 bytes).
    Removing stm32f4xx_rcc.o(.rrx_text), (6 bytes).
    Removing stm32f4xx_rcc.o(i.RCC_AHB1PeriphClockLPModeCmd), (24 bytes).
    Removing stm32f4xx_rcc.o(i.RCC_AHB1PeriphResetCmd), (24 bytes).
    Removing stm32f4xx_rcc.o(i.RCC_AHB2PeriphClockCmd), (24 bytes).
    Removing stm32f4xx_rcc.o(i.RCC_AHB2PeriphClockLPModeCmd), (24 bytes).
    Removing stm32f4xx_rcc.o(i.RCC_AHB2PeriphResetCmd), (24 bytes).
    Removing stm32f4xx_rcc.o(i.RCC_AHB3PeriphClockCmd), (24 bytes).
    Removing stm32f4xx_rcc.o(i.RCC_AHB3PeriphClockLPModeCmd), (24 bytes).
    Removing stm32f4xx_rcc.o(i.RCC_AHB3PeriphResetCmd), (24 bytes).
    Removing stm32f4xx_rcc.o(i.RCC_APB1PeriphClockLPModeCmd), (24 bytes).
    Removing stm32f4xx_rcc.o(i.RCC_APB1PeriphResetCmd), (24 bytes).
    Removing stm32f4xx_rcc.o(i.RCC_APB2PeriphClockCmd), (24 bytes).
    Removing stm32f4xx_rcc.o(i.RCC_APB2PeriphClockLPModeCmd), (24 bytes).
    Removing stm32f4xx_rcc.o(i.RCC_APB2PeriphResetCmd), (24 bytes).
    Removing stm32f4xx_rcc.o(i.RCC_AdjustHSICalibrationValue), (20 bytes).
    Removing stm32f4xx_rcc.o(i.RCC_BackupResetCmd), (12 bytes).
    Removing stm32f4xx_rcc.o(i.RCC_ClearFlag), (16 bytes).
    Removing stm32f4xx_rcc.o(i.RCC_ClearITPendingBit), (12 bytes).
    Removing stm32f4xx_rcc.o(i.RCC_ClockSecuritySystemCmd), (12 bytes).
    Removing stm32f4xx_rcc.o(i.RCC_DeInit), (84 bytes).
    Removing stm32f4xx_rcc.o(i.RCC_GetFlagStatus), (52 bytes).
    Removing stm32f4xx_rcc.o(i.RCC_GetITStatus), (20 bytes).
    Removing stm32f4xx_rcc.o(i.RCC_GetSYSCLKSource), (16 bytes).
    Removing stm32f4xx_rcc.o(i.RCC_HCLKConfig), (20 bytes).
    Removing stm32f4xx_rcc.o(i.RCC_HSEConfig), (16 bytes).
    Removing stm32f4xx_rcc.o(i.RCC_HSICmd), (12 bytes).
    Removing stm32f4xx_rcc.o(i.RCC_I2SCLKConfig), (12 bytes).
    Removing stm32f4xx_rcc.o(i.RCC_ITConfig), (24 bytes).
    Removing stm32f4xx_rcc.o(i.RCC_LSEConfig), (28 bytes).
    Removing stm32f4xx_rcc.o(i.RCC_LSEModeConfig), (28 bytes).
    Removing stm32f4xx_rcc.o(i.RCC_LSICmd), (12 bytes).
    Removing stm32f4xx_rcc.o(i.RCC_LTDCCLKDivConfig), (20 bytes).
    Removing stm32f4xx_rcc.o(i.RCC_MCO1Config), (20 bytes).
    Removing stm32f4xx_rcc.o(i.RCC_MCO2Config), (20 bytes).
    Removing stm32f4xx_rcc.o(i.RCC_PCLK1Config), (20 bytes).
    Removing stm32f4xx_rcc.o(i.RCC_PCLK2Config), (20 bytes).
    Removing stm32f4xx_rcc.o(i.RCC_PLLCmd), (12 bytes).
    Removing stm32f4xx_rcc.o(i.RCC_PLLConfig), (40 bytes).
    Removing stm32f4xx_rcc.o(i.RCC_PLLI2SCmd), (12 bytes).
    Removing stm32f4xx_rcc.o(i.RCC_PLLI2SConfig), (20 bytes).
    Removing stm32f4xx_rcc.o(i.RCC_PLLSAICmd), (12 bytes).
    Removing stm32f4xx_rcc.o(i.RCC_PLLSAIConfig), (20 bytes).
    Removing stm32f4xx_rcc.o(i.RCC_RTCCLKCmd), (12 bytes).
    Removing stm32f4xx_rcc.o(i.RCC_RTCCLKConfig), (48 bytes).
    Removing stm32f4xx_rcc.o(i.RCC_SAIBlockACLKConfig), (20 bytes).
    Removing stm32f4xx_rcc.o(i.RCC_SAIBlockBCLKConfig), (20 bytes).
    Removing stm32f4xx_rcc.o(i.RCC_SAIPLLI2SClkDivConfig), (20 bytes).
    Removing stm32f4xx_rcc.o(i.RCC_SAIPLLSAIClkDivConfig), (28 bytes).
    Removing stm32f4xx_rcc.o(i.RCC_SYSCLKConfig), (20 bytes).
    Removing stm32f4xx_rcc.o(i.RCC_TIMCLKPresConfig), (12 bytes).
    Removing stm32f4xx_rcc.o(i.RCC_WaitForHSEStartUp), (44 bytes).
    Removing stm32f4xx_usart.o(.rev16_text), (4 bytes).
    Removing stm32f4xx_usart.o(.revsh_text), (4 bytes).
    Removing stm32f4xx_usart.o(.rrx_text), (6 bytes).
    Removing stm32f4xx_usart.o(i.USART_ClearITPendingBit), (12 bytes).
    Removing stm32f4xx_usart.o(i.USART_ClockInit), (28 bytes).
    Removing stm32f4xx_usart.o(i.USART_ClockStructInit), (12 bytes).
    Removing stm32f4xx_usart.o(i.USART_DMACmd), (16 bytes).
    Removing stm32f4xx_usart.o(i.USART_DeInit), (172 bytes).
    Removing stm32f4xx_usart.o(i.USART_HalfDuplexCmd), (20 bytes).
    Removing stm32f4xx_usart.o(i.USART_IrDACmd), (20 bytes).
    Removing stm32f4xx_usart.o(i.USART_IrDAConfig), (16 bytes).
    Removing stm32f4xx_usart.o(i.USART_LINBreakDetectLengthConfig), (16 bytes).
    Removing stm32f4xx_usart.o(i.USART_LINCmd), (20 bytes).
    Removing stm32f4xx_usart.o(i.USART_OneBitMethodCmd), (20 bytes).
    Removing stm32f4xx_usart.o(i.USART_OverSampling8Cmd), (20 bytes).
    Removing stm32f4xx_usart.o(i.USART_ReceiverWakeUpCmd), (20 bytes).
    Removing stm32f4xx_usart.o(i.USART_SendBreak), (10 bytes).
    Removing stm32f4xx_usart.o(i.USART_SendData), (8 bytes).
    Removing stm32f4xx_usart.o(i.USART_SetAddress), (16 bytes).
    Removing stm32f4xx_usart.o(i.USART_SetGuardTime), (16 bytes).
    Removing stm32f4xx_usart.o(i.USART_SetPrescaler), (16 bytes).
    Removing stm32f4xx_usart.o(i.USART_SmartCardCmd), (20 bytes).
    Removing stm32f4xx_usart.o(i.USART_SmartCardNACKCmd), (20 bytes).
    Removing stm32f4xx_usart.o(i.USART_StructInit), (22 bytes).
    Removing stm32f4xx_usart.o(i.USART_WakeUpConfig), (16 bytes).
    Removing main.o(.rev16_text), (4 bytes).
    Removing main.o(.revsh_text), (4 bytes).
    Removing main.o(.rrx_text), (6 bytes).
    Removing stm32f4xx_it.o(.rev16_text), (4 bytes).
    Removing stm32f4xx_it.o(.revsh_text), (4 bytes).
    Removing stm32f4xx_it.o(.rrx_text), (6 bytes).
    Removing usart.o(.rev16_text), (4 bytes).
    Removing usart.o(.revsh_text), (4 bytes).
    Removing usart.o(.rrx_text), (6 bytes).
    Removing usart.o(i.Serial_SendString), (20 bytes).
    Removing usart.o(i._sys_exit), (2 bytes).
    Removing usart.o(i.fputc), (36 bytes).
    Removing usart.o(.data), (4 bytes).
    Removing delay.o(.rev16_text), (4 bytes).
    Removing delay.o(.revsh_text), (4 bytes).
    Removing delay.o(.rrx_text), (6 bytes).
    Removing delay.o(i.Timer_delay_us), (32 bytes).
    Removing proto.o(.rev16_text), (4 bytes).
    Removing proto.o(.revsh_text), (4 bytes).
    Removing proto.o(.rrx_text), (6 bytes).
    Removing proto.o(i.Proto_Init), (16 bytes).
    Removing proto.o(i.SendData), (12 bytes).
    Removing proto.o(.constdata), (1 bytes).
    Removing proto.o(.constdata), (1 bytes).
    Removing proto.o(.constdata), (1 bytes).
    Removing proto.o(.constdata), (1 bytes).
    Removing proto.o(.constdata), (1 bytes).
    Removing proto.o(.data), (4 bytes).
    Removing vm.o(i.ReadSys_int32), (2 bytes).
    Removing vm.o(.constdata), (1 bytes).
    Removing vm.o(.constdata), (1 bytes).
    Removing vm.o(.constdata), (1 bytes).
    Removing vm.o(.constdata), (1 bytes).
    Removing vm.o(.constdata), (1 bytes).
    Removing vm.o(.constdata), (1 bytes).
    Removing vm.o(.constdata), (1 bytes).
    Removing vm.o(.constdata), (1 bytes).
    Removing vm.o(.constdata), (1 bytes).
    Removing vm.o(.constdata), (1 bytes).
    Removing vm.o(.constdata), (1 bytes).
    Removing vm.o(.constdata), (1 bytes).
    Removing vm.o(.constdata), (1 bytes).
    Removing vm.o(.constdata), (1 bytes).
    Removing vm.o(.constdata), (1 bytes).
    Removing vm.o(.constdata), (1 bytes).
    Removing vm.o(.constdata), (1 bytes).
    Removing vm.o(.constdata), (1 bytes).
    Removing vm.o(.constdata), (1 bytes).
    Removing vm.o(.constdata), (1 bytes).
    Removing vm.o(.constdata), (1 bytes).
    Removing vm.o(.constdata), (1 bytes).
    Removing vm.o(.constdata), (1 bytes).
    Removing vm.o(.constdata), (1 bytes).
    Removing vm.o(.constdata), (1 bytes).
    Removing vm.o(.constdata), (1 bytes).
    Removing vm.o(.constdata), (1 bytes).
    Removing vm.o(.constdata), (1 bytes).
    Removing vm.o(.constdata), (1 bytes).
    Removing vm.o(.constdata), (1 bytes).
    Removing vm.o(.constdata), (1 bytes).
    Removing vm.o(.constdata), (1 bytes).
    Removing vm.o(.constdata), (1 bytes).
    Removing vm.o(.constdata), (1 bytes).
    Removing vm.o(.constdata), (1 bytes).
    Removing vm.o(.constdata), (1 bytes).
    Removing vm.o(.constdata), (1 bytes).
    Removing vm.o(.constdata), (1 bytes).
    Removing vm.o(.constdata), (1 bytes).
    Removing vm.o(.constdata), (1 bytes).
    Removing vm.o(.constdata), (1 bytes).
    Removing vm.o(.constdata), (1 bytes).
    Removing vm.o(.constdata), (1 bytes).
    Removing vm.o(.constdata), (1 bytes).
    Removing vm.o(.constdata), (1 bytes).
    Removing vm.o(.constdata), (1 bytes).
    Removing vm.o(.constdata), (1 bytes).
    Removing vm.o(.constdata), (1 bytes).
    Removing vm.o(.constdata), (1 bytes).
    Removing vm.o(.constdata), (1 bytes).
    Removing vm.o(.constdata), (1 bytes).
    Removing vm.o(.constdata), (1 bytes).
    Removing vm.o(.constdata), (1 bytes).
    Removing vm.o(.constdata), (1 bytes).
    Removing vm.o(.constdata), (1 bytes).
    Removing vm.o(.constdata), (1 bytes).
    Removing vm.o(.constdata), (1 bytes).
    Removing vm.o(.constdata), (1 bytes).
    Removing vm.o(.constdata), (1 bytes).
    Removing vm.o(.constdata), (1 bytes).
    Removing vm.o(.constdata), (1 bytes).
    Removing vm.o(.constdata), (1 bytes).
    Removing vm.o(.constdata), (1 bytes).
    Removing vm.o(.constdata), (1 bytes).
    Removing vm.o(.constdata), (1 bytes).
    Removing vm.o(.constdata), (1 bytes).
    Removing vm.o(.constdata), (1 bytes).
    Removing vm.o(.constdata), (1 bytes).
    Removing vm.o(.constdata), (1 bytes).
    Removing vm.o(.constdata), (1 bytes).
    Removing vm.o(.constdata), (1 bytes).
    Removing vm.o(.constdata), (1 bytes).
    Removing vm.o(.constdata), (1 bytes).
    Removing vm.o(.constdata), (1 bytes).
    Removing vm.o(.constdata), (1 bytes).
    Removing vm.o(.constdata), (1 bytes).
    Removing vm.o(.constdata), (1 bytes).
    Removing vm.o(.constdata), (1 bytes).
    Removing vm.o(.constdata), (1 bytes).
    Removing vm.o(.constdata), (1 bytes).
    Removing vm.o(.constdata), (1 bytes).
    Removing vm.o(.constdata), (1 bytes).
    Removing vm.o(.constdata), (1 bytes).
    Removing vm.o(.constdata), (1 bytes).
    Removing vm.o(.constdata), (1 bytes).
    Removing vm.o(.constdata), (1 bytes).
    Removing vm.o(.constdata), (1 bytes).
    Removing vm.o(.constdata), (1 bytes).
    Removing vm.o(.constdata), (1 bytes).
    Removing vm.o(.constdata), (1 bytes).
    Removing vm.o(.constdata), (1 bytes).
    Removing vm.o(.constdata), (1 bytes).
    Removing vm.o(.constdata), (1 bytes).
    Removing vm.o(.constdata), (1 bytes).
    Removing vm.o(.constdata), (1 bytes).
    Removing vm.o(.constdata), (1 bytes).
    Removing vm.o(.constdata), (1 bytes).
    Removing vm.o(.constdata), (1 bytes).
    Removing vm.o(.constdata), (1 bytes).
    Removing vm.o(.constdata), (1 bytes).
    Removing vm.o(.constdata), (1 bytes).
    Removing vm.o(.constdata), (1 bytes).
    Removing vm.o(.constdata), (1 bytes).
    Removing vm.o(.constdata), (1 bytes).
    Removing vm.o(.constdata), (1 bytes).
    Removing vm.o(.constdata), (1 bytes).
    Removing vm.o(.constdata), (1 bytes).
    Removing vm.o(.constdata), (1 bytes).
    Removing vm.o(.constdata), (1 bytes).
    Removing vm.o(.constdata), (1 bytes).
    Removing vm.o(.constdata), (1 bytes).
    Removing vm.o(.constdata), (1 bytes).
    Removing vm.o(.constdata), (1 bytes).
    Removing vm.o(.constdata), (1 bytes).
    Removing vm.o(.constdata), (1 bytes).
    Removing vm.o(.constdata), (1 bytes).
    Removing vm.o(.constdata), (1 bytes).
    Removing vm.o(.constdata), (1 bytes).
    Removing vm.o(.constdata), (1 bytes).
    Removing vm.o(.constdata), (1 bytes).
    Removing vm.o(.constdata), (1 bytes).
    Removing vm.o(.constdata), (1 bytes).
    Removing vm.o(.constdata), (1 bytes).
    Removing vm.o(.constdata), (1 bytes).
    Removing vm.o(.constdata), (1 bytes).
    Removing vm.o(.constdata), (1 bytes).
    Removing vm.o(.constdata), (1 bytes).
    Removing vm.o(.constdata), (1 bytes).
    Removing vm.o(.constdata), (1 bytes).
    Removing vm.o(.constdata), (1 bytes).
    Removing vm.o(.constdata), (1 bytes).
    Removing vm.o(.constdata), (1 bytes).
    Removing vm.o(.constdata), (1 bytes).
    Removing vm.o(.constdata), (1 bytes).
    Removing vm.o(.constdata), (1 bytes).
    Removing vm.o(.constdata), (1 bytes).
    Removing vm.o(.constdata), (1 bytes).
    Removing vm.o(.constdata), (1 bytes).
    Removing vm.o(.constdata), (1 bytes).
    Removing vm.o(.constdata), (1 bytes).
    Removing vm.o(.constdata), (1 bytes).
    Removing vm.o(.constdata), (1 bytes).
    Removing vm.o(.constdata), (1 bytes).
    Removing vm.o(.constdata), (1 bytes).
    Removing vm.o(.constdata), (1 bytes).
    Removing vm.o(.constdata), (1 bytes).
    Removing vm.o(.constdata), (1 bytes).
    Removing vm.o(.constdata), (1 bytes).
    Removing vm.o(.constdata), (1 bytes).
    Removing vm.o(.constdata), (1 bytes).
    Removing vm.o(.constdata), (1 bytes).
    Removing vm.o(.constdata), (1 bytes).
    Removing vm.o(.constdata), (1 bytes).
    Removing vm.o(.constdata), (1 bytes).
    Removing vm.o(.constdata), (1 bytes).
    Removing vm.o(.constdata), (1 bytes).
    Removing vm.o(.constdata), (1 bytes).
    Removing vm.o(.constdata), (1 bytes).
    Removing vm.o(.constdata), (1 bytes).
    Removing vm.o(.constdata), (1 bytes).
    Removing vm.o(.constdata), (1 bytes).
    Removing vm.o(.constdata), (1 bytes).
    Removing vm.o(.constdata), (1 bytes).
    Removing vm.o(.constdata), (1 bytes).
    Removing vm.o(.constdata), (1 bytes).
    Removing vm.o(.constdata), (1 bytes).
    Removing vm.o(.constdata), (1 bytes).
    Removing vm.o(.constdata), (1 bytes).
    Removing vm.o(.constdata), (1 bytes).
    Removing vm.o(.constdata), (1 bytes).
    Removing vm.o(.constdata), (1 bytes).
    Removing vm.o(.constdata), (1 bytes).
    Removing vm.o(.constdata), (1 bytes).
    Removing vm.o(.constdata), (1 bytes).
    Removing vm.o(.constdata), (1 bytes).
    Removing vm.o(.constdata), (1 bytes).
    Removing vm.o(.constdata), (1 bytes).
    Removing vm.o(.constdata), (1 bytes).
    Removing vm.o(.constdata), (1 bytes).
    Removing vm.o(.constdata), (1 bytes).
    Removing vm.o(.constdata), (1 bytes).
    Removing vm.o(.constdata), (1 bytes).
    Removing vm.o(.constdata), (1 bytes).
    Removing vm.o(.constdata), (1 bytes).
    Removing vm.o(.constdata), (1 bytes).
    Removing vm.o(.constdata), (1 bytes).
    Removing vm.o(.constdata), (1 bytes).
    Removing vm.o(.constdata), (1 bytes).
    Removing vm.o(.constdata), (1 bytes).
    Removing vm.o(.constdata), (1 bytes).
    Removing vm.o(.constdata), (1 bytes).
    Removing vm.o(.constdata), (1 bytes).
    Removing vm.o(.constdata), (1 bytes).
    Removing io.o(.rev16_text), (4 bytes).
    Removing io.o(.revsh_text), (4 bytes).
    Removing io.o(.rrx_text), (6 bytes).
    Removing io.o(i.IO_Close), (2 bytes).
    Removing los_misc.o(i.LOS_Msleep), (40 bytes).
    Removing los_membox.o(i.LOS_MemboxAlloc), (48 bytes).
    Removing los_membox.o(i.LOS_MemboxClr), (22 bytes).
    Removing los_memory.o(i.LOS_MemRealloc), (264 bytes).
    Removing los_memstat.o(i.osTaskMemUsage), (20 bytes).
    Removing los_event.o(i.LOS_EventClear), (36 bytes).
    Removing los_event.o(i.LOS_EventDestory), (20 bytes).
    Removing los_event.o(i.LOS_EventInit), (24 bytes).
    Removing los_event.o(i.LOS_EventPoll), (70 bytes).
    Removing los_event.o(i.LOS_EventRead), (284 bytes).
    Removing los_event.o(i.LOS_EventWrite), (192 bytes).
    Removing los_mux.o(i.LOS_ListDelete), (20 bytes).
    Removing los_mux.o(i.LOS_ListEmpty), (14 bytes).
    Removing los_mux.o(i.LOS_MuxCreate), (96 bytes).
    Removing los_mux.o(i.LOS_MuxDelete), (100 bytes).
    Removing los_mux.o(i.LOS_MuxPend), (280 bytes).
    Removing los_mux.o(i.LOS_MuxPost), (220 bytes).
    Removing los_queue.o(i.LOS_QueueDelete), (132 bytes).
    Removing los_queue.o(i.LOS_QueueWrite), (288 bytes).
    Removing los_queue.o(i.osQueueMailAlloc), (140 bytes).
    Removing los_queue.o(i.osQueueMailFree), (132 bytes).
    Removing los_sem.o(i.LOS_SemCreate), (108 bytes).
    Removing los_sem.o(i.LOS_SemDelete), (92 bytes).
    Removing los_sem.o(i.LOS_SemPend), (224 bytes).
    Removing los_priqueue.o(i.LOS_PriqueueSize), (32 bytes).
    Removing los_priqueue.o(i.LOS_PriqueueTotalSize), (24 bytes).
    Removing los_swtmr.o(i.LOS_SwtmrCreate), (124 bytes).
    Removing los_swtmr.o(i.LOS_SwtmrDelete), (112 bytes).
    Removing los_swtmr.o(i.LOS_SwtmrStart), (112 bytes).
    Removing los_swtmr.o(i.LOS_SwtmrStop), (108 bytes).
    Removing los_swtmr.o(i.osSwTmrAdjust), (28 bytes).
    Removing los_swtmr.o(i.osSwTmrGetNextTimeout), (20 bytes).
    Removing los_swtmr.o(i.osSwTmrStart), (80 bytes).
    Removing los_swtmr.o(i.osSwTmrTimeoutHandle), (116 bytes).
    Removing los_swtmr.o(i.osSwtmrDelete), (20 bytes).
    Removing los_swtmr.o(i.osSwtmrScan), (28 bytes).
    Removing los_swtmr.o(i.osSwtmrStop), (56 bytes).
    Removing los_sys.o(i.LOS_CyclePerTickGet), (8 bytes).
    Removing los_sys.o(i.LOS_MS2Tick), (28 bytes).
    Removing los_sys.o(i.LOS_Reboot), (6 bytes).
    Removing los_sys.o(i.LOS_Tick2MS), (18 bytes).
    Removing los_sys.o(i.LOS_TickCountGet), (12 bytes).
    Removing los_sys.o(i.get_jiffies_64), (4 bytes).
    Removing los_sys.o(i.jiffies_to_msecs), (4 bytes).
    Removing los_sys.o(i.osCpuTick2MS), (60 bytes).
    Removing los_sys.o(i.osCpuTick2US), (60 bytes).
    Removing los_task.o(i.LOS_CurTaskIDGet), (24 bytes).
    Removing los_task.o(i.LOS_CurTaskPriSet), (16 bytes).
    Removing los_task.o(i.LOS_TaskDelay), (112 bytes).
    Removing los_task.o(i.LOS_TaskDelete), (296 bytes).
    Removing los_task.o(i.LOS_TaskPriGet), (64 bytes).
    Removing los_task.o(i.LOS_TaskPriSet), (144 bytes).
    Removing los_task.o(i.LOS_TaskResume), (140 bytes).
    Removing los_task.o(i.LOS_TaskSuspend), (180 bytes).
    Removing los_task.o(i.LOS_TaskYield), (104 bytes).
    Removing los_task.o(i.osTaskPriModify), (48 bytes).
    Removing los_task.o(i.osTaskScan), (180 bytes).
    Removing los_task.o(.data), (4 bytes).
    Removing los_tick.o(i.SysTick_Handler1), (40 bytes).
    Removing los_tick.o(.data), (4 bytes).
    Removing los_tick.o(.data), (4 bytes).
    Removing los_timeslice.o(i.osTimesliceCheck), (56 bytes).
    Removing los_config.o(i.LOS_AppInit), (4 bytes).
    Removing los_config.o(i.osBackTrace), (2 bytes).
    Removing los_config.o(i.osEnableFPU), (16 bytes).
    Removing los_hw_tick.o(i.LOS_GetCpuCycle), (92 bytes).
    Removing los_hwi.o(i.LOS_HwiCreate), (136 bytes).
    Removing los_hwi.o(i.LOS_HwiDelete), (68 bytes).
    Removing ddiv.o(.text), (222 bytes).
    Removing dfltul.o(.text), (24 bytes).
    Removing dfixul.o(.text), (48 bytes).
    Removing depilogue.o(.text), (186 bytes).

400 unused section(s) (total 9378 bytes) removed from the image.

==============================================================================

Image Symbol Table

    Local Symbols

    Symbol Name                              Value     Ov Type        Size  Object(Section)

    ../clib/../cmprslib/zerorunl2.c          0x00000000   Number         0  __dczerorl2.o ABSOLUTE
    ../clib/microlib/division.c              0x00000000   Number         0  uldiv.o ABSOLUTE
    ../clib/microlib/init/entry.s            0x00000000   Number         0  entry11b.o ABSOLUTE
    ../clib/microlib/init/entry.s            0x00000000   Number         0  entry9a.o ABSOLUTE
    ../clib/microlib/init/entry.s            0x00000000   Number         0  entry9b.o ABSOLUTE
    ../clib/microlib/init/entry.s            0x00000000   Number         0  entry2.o ABSOLUTE
    ../clib/microlib/init/entry.s            0x00000000   Number         0  entry.o ABSOLUTE
    ../clib/microlib/init/entry.s            0x00000000   Number         0  entry5.o ABSOLUTE
    ../clib/microlib/init/entry.s            0x00000000   Number         0  entry7a.o ABSOLUTE
    ../clib/microlib/init/entry.s            0x00000000   Number         0  entry11a.o ABSOLUTE
    ../clib/microlib/init/entry.s            0x00000000   Number         0  entry10b.o ABSOLUTE
    ../clib/microlib/init/entry.s            0x00000000   Number         0  entry8a.o ABSOLUTE
    ../clib/microlib/init/entry.s            0x00000000   Number         0  entry10a.o ABSOLUTE
    ../clib/microlib/init/entry.s            0x00000000   Number         0  entry7b.o ABSOLUTE
    ../clib/microlib/init/entry.s            0x00000000   Number         0  entry8b.o ABSOLUTE
    ../clib/microlib/longlong.c              0x00000000   Number         0  llushr.o ABSOLUTE
    ../clib/microlib/longlong.c              0x00000000   Number         0  llshl.o ABSOLUTE
    ../clib/microlib/string/memcpy.c         0x00000000   Number         0  memcpyb.o ABSOLUTE
    ../clib/microlib/string/memcpy.c         0x00000000   Number         0  memcpya.o ABSOLUTE
    ../clib/microlib/string/memset.c         0x00000000   Number         0  memseta.o ABSOLUTE
    ../clib/microlib/stubs.s                 0x00000000   Number         0  useno.o ABSOLUTE
    ../clib/microlib/stubs.s                 0x00000000   Number         0  iusefp.o ABSOLUTE
    ../fplib/microlib/fpdiv.c                0x00000000   Number         0  ddiv.o ABSOLUTE
    ../fplib/microlib/fpepilogue.c           0x00000000   Number         0  depilogue.o ABSOLUTE
    ../fplib/microlib/fpfix.c                0x00000000   Number         0  dfixul.o ABSOLUTE
    ../fplib/microlib/fpflt.c                0x00000000   Number         0  dfltul.o ABSOLUTE
    ..\CMSIS\system_stm32f4xx.c              0x00000000   Number         0  system_stm32f4xx.o ABSOLUTE
    ..\Huawei_LiteOS\kernel\base\core\los_priqueue.c 0x00000000   Number         0  los_priqueue.o ABSOLUTE
    ..\Huawei_LiteOS\kernel\base\core\los_swtmr.c 0x00000000   Number         0  los_swtmr.o ABSOLUTE
    ..\Huawei_LiteOS\kernel\base\core\los_sys.c 0x00000000   Number         0  los_sys.o ABSOLUTE
    ..\Huawei_LiteOS\kernel\base\core\los_task.c 0x00000000   Number         0  los_task.o ABSOLUTE
    ..\Huawei_LiteOS\kernel\base\core\los_tick.c 0x00000000   Number         0  los_tick.o ABSOLUTE
    ..\Huawei_LiteOS\kernel\base\core\los_timeslice.c 0x00000000   Number         0  los_timeslice.o ABSOLUTE
    ..\Huawei_LiteOS\kernel\base\ipc\los_event.c 0x00000000   Number         0  los_event.o ABSOLUTE
    ..\Huawei_LiteOS\kernel\base\ipc\los_mux.c 0x00000000   Number         0  los_mux.o ABSOLUTE
    ..\Huawei_LiteOS\kernel\base\ipc\los_queue.c 0x00000000   Number         0  los_queue.o ABSOLUTE
    ..\Huawei_LiteOS\kernel\base\ipc\los_sem.c 0x00000000   Number         0  los_sem.o ABSOLUTE
    ..\Huawei_LiteOS\kernel\base\mem\los_membox.c 0x00000000   Number         0  los_membox.o ABSOLUTE
    ..\Huawei_LiteOS\kernel\base\mem\los_memory.c 0x00000000   Number         0  los_memory.o ABSOLUTE
    ..\Huawei_LiteOS\kernel\base\mem\los_memstat.c 0x00000000   Number         0  los_memstat.o ABSOLUTE
    ..\Huawei_LiteOS\kernel\base\mem\los_multipledlinkhead.c 0x00000000   Number         0  los_multipledlinkhead.o ABSOLUTE
    ..\Huawei_LiteOS\kernel\base\misc\los_misc.c 0x00000000   Number         0  los_misc.o ABSOLUTE
    ..\Huawei_LiteOS\platform\bsp\sample\config\los_config.c 0x00000000   Number         0  los_config.o ABSOLUTE
    ..\Huawei_LiteOS\platform\cpu\arm\cortex-m4\los_dispatch.s 0x00000000   Number         0  los_dispatch.o ABSOLUTE
    ..\Huawei_LiteOS\platform\cpu\arm\cortex-m4\los_hw.c 0x00000000   Number         0  los_hw.o ABSOLUTE
    ..\Huawei_LiteOS\platform\cpu\arm\cortex-m4\los_hw_tick.c 0x00000000   Number         0  los_hw_tick.o ABSOLUTE
    ..\Huawei_LiteOS\platform\cpu\arm\cortex-m4\los_hwi.c 0x00000000   Number         0  los_hwi.o ABSOLUTE
    ..\STM_Lib\src\misc.c                    0x00000000   Number         0  misc.o ABSOLUTE
    ..\STM_Lib\src\stm32f4xx_gpio.c          0x00000000   Number         0  stm32f4xx_gpio.o ABSOLUTE
    ..\STM_Lib\src\stm32f4xx_rcc.c           0x00000000   Number         0  stm32f4xx_rcc.o ABSOLUTE
    ..\STM_Lib\src\stm32f4xx_usart.c         0x00000000   Number         0  stm32f4xx_usart.o ABSOLUTE
    ..\StartUp\startup_stm32f411xe.s         0x00000000   Number         0  startup_stm32f411xe.o ABSOLUTE
    ..\USER\CODE_LIST.c                      0x00000000   Number         0  code_list.o ABSOLUTE
    ..\USER\ERROR_TYPE.c                     0x00000000   Number         0  error_type.o ABSOLUTE
    ..\USER\IO.c                             0x00000000   Number         0  io.o ABSOLUTE
    ..\USER\Mem.c                            0x00000000   Number         0  mem.o ABSOLUTE
    ..\USER\VM.c                             0x00000000   Number         0  vm.o ABSOLUTE
    ..\USER\delay.c                          0x00000000   Number         0  delay.o ABSOLUTE
    ..\USER\main.c                           0x00000000   Number         0  main.o ABSOLUTE
    ..\USER\proto.c                          0x00000000   Number         0  proto.o ABSOLUTE
    ..\USER\stm32f4xx_it.c                   0x00000000   Number         0  stm32f4xx_it.o ABSOLUTE
    ..\USER\usart.c                          0x00000000   Number         0  usart.o ABSOLUTE
    ..\\CMSIS\\system_stm32f4xx.c            0x00000000   Number         0  system_stm32f4xx.o ABSOLUTE
    ..\\Huawei_LiteOS\\platform\\cpu\\arm\\cortex-m4\\los_hwi.c 0x00000000   Number         0  los_hwi.o ABSOLUTE
    ..\\STM_Lib\\src\\misc.c                 0x00000000   Number         0  misc.o ABSOLUTE
    ..\\STM_Lib\\src\\stm32f4xx_gpio.c       0x00000000   Number         0  stm32f4xx_gpio.o ABSOLUTE
    ..\\STM_Lib\\src\\stm32f4xx_rcc.c        0x00000000   Number         0  stm32f4xx_rcc.o ABSOLUTE
    ..\\STM_Lib\\src\\stm32f4xx_usart.c      0x00000000   Number         0  stm32f4xx_usart.o ABSOLUTE
    ..\\USER\\IO.c                           0x00000000   Number         0  io.o ABSOLUTE
    ..\\USER\\delay.c                        0x00000000   Number         0  delay.o ABSOLUTE
    ..\\USER\\main.c                         0x00000000   Number         0  main.o ABSOLUTE
    ..\\USER\\proto.c                        0x00000000   Number         0  proto.o ABSOLUTE
    ..\\USER\\stm32f4xx_it.c                 0x00000000   Number         0  stm32f4xx_it.o ABSOLUTE
    ..\\USER\\usart.c                        0x00000000   Number         0  usart.o ABSOLUTE
    dc.s                                     0x00000000   Number         0  dc.o ABSOLUTE
    handlers.s                               0x00000000   Number         0  handlers.o ABSOLUTE
    init.s                                   0x00000000   Number         0  init.o ABSOLUTE
    RESET                                    0x08000000   Section      408  startup_stm32f411xe.o(RESET)
    .ARM.Collect$$$$00000000                 0x08000198   Section        0  entry.o(.ARM.Collect$$$$00000000)
    .ARM.Collect$$$$00000001                 0x08000198   Section        4  entry2.o(.ARM.Collect$$$$00000001)
    .ARM.Collect$$$$00000004                 0x0800019c   Section        4  entry5.o(.ARM.Collect$$$$00000004)
    .ARM.Collect$$$$00000008                 0x080001a0   Section        0  entry7b.o(.ARM.Collect$$$$00000008)
    .ARM.Collect$$$$0000000A                 0x080001a0   Section        0  entry8b.o(.ARM.Collect$$$$0000000A)
    .ARM.Collect$$$$0000000B                 0x080001a0   Section        8  entry9a.o(.ARM.Collect$$$$0000000B)
    .ARM.Collect$$$$0000000D                 0x080001a8   Section        0  entry10a.o(.ARM.Collect$$$$0000000D)
    .ARM.Collect$$$$0000000F                 0x080001a8   Section        0  entry11a.o(.ARM.Collect$$$$0000000F)
    .ARM.Collect$$$$00002712                 0x080001a8   Section        4  entry2.o(.ARM.Collect$$$$00002712)
    __lit__00000000                          0x080001a8   Data           4  entry2.o(.ARM.Collect$$$$00002712)
    .emb_text                                0x080001ac   Section        6  los_hwi.o(.emb_text)
    $v0                                      0x080001ac   Number         0  los_hwi.o(.emb_text)
    .text                                    0x080001b4   Section       36  startup_stm32f411xe.o(.text)
    $v0                                      0x080001b4   Number         0  startup_stm32f411xe.o(.text)
    .text                                    0x080001d8   Section        0  memseta.o(.text)
    .text                                    0x080001d8   Section        0  los_dispatch.o(.text)
    .text                                    0x080001fc   Section       36  init.o(.text)
    .text                                    0x08000220   Section        0  __dczerorl2.o(.text)
    i.BusFault_Handler                       0x08000276   Section        0  stm32f4xx_it.o(i.BusFault_Handler)
    i.CODE_AddIns                            0x08000278   Section        0  code_list.o(i.CODE_AddIns)
    i.CODE_Load                              0x08000290   Section        0  code_list.o(i.CODE_Load)
    i.CODE_ReadIns                           0x08000294   Section        0  code_list.o(i.CODE_ReadIns)
    i.CODE_Save                              0x080002a0   Section        0  code_list.o(i.CODE_Save)
    i.CODE_Start                             0x080002a4   Section        0  code_list.o(i.CODE_Start)
    i.Check                                  0x080002b0   Section        0  proto.o(i.Check)
    i.Deal                                   0x080002d4   Section        0  proto.o(i.Deal)
    i.DealInterface                          0x0800033c   Section        0  vm.o(i.DealInterface)
    i.DebugMon_Handler                       0x08000398   Section        0  stm32f4xx_it.o(i.DebugMon_Handler)
    i.Error                                  0x0800039a   Section        0  proto.o(i.Error)
    i.GPIO_Init                              0x080003b6   Section        0  stm32f4xx_gpio.o(i.GPIO_Init)
    i.GPIO_PinAFConfig                       0x0800042e   Section        0  stm32f4xx_gpio.o(i.GPIO_PinAFConfig)
    i.GPIO_ReadInputDataBit                  0x0800044e   Section        0  stm32f4xx_gpio.o(i.GPIO_ReadInputDataBit)
    i.GPIO_ReadOutputDataBit                 0x0800045c   Section        0  stm32f4xx_gpio.o(i.GPIO_ReadOutputDataBit)
    i.GPIO_ResetBits                         0x0800046a   Section        0  stm32f4xx_gpio.o(i.GPIO_ResetBits)
    i.GPIO_SetBits                           0x0800046e   Section        0  stm32f4xx_gpio.o(i.GPIO_SetBits)
    i.HardFault_Handler                      0x08000472   Section        0  stm32f4xx_it.o(i.HardFault_Handler)
    i.IO_AnalogOpen                          0x08000474   Section        0  io.o(i.IO_AnalogOpen)
    i.IO_AnalogRead                          0x08000476   Section        0  io.o(i.IO_AnalogRead)
    i.IO_DirWrite                            0x0800047c   Section        0  io.o(i.IO_DirWrite)
    i.IO_InRead                              0x080004a4   Section        0  io.o(i.IO_InRead)
    i.IO_Init                                0x080004bc   Section        0  io.o(i.IO_Init)
    i.IO_OutRead                             0x08000590   Section        0  io.o(i.IO_OutRead)
    i.IO_OutWrite                            0x080005a8   Section        0  io.o(i.IO_OutWrite)
    i.IO_PullWrite                           0x080005c8   Section        0  io.o(i.IO_PullWrite)
    i.LOS_Align                              0x080005ca   Section        0  los_misc.o(i.LOS_Align)
    i.LOS_DLnkInitMultiHead                  0x080005de   Section        0  los_multipledlinkhead.o(i.LOS_DLnkInitMultiHead)
    i.LOS_DLnkMultiHead                      0x080005ee   Section        0  los_multipledlinkhead.o(i.LOS_DLnkMultiHead)
    i.LOS_ListAdd                            0x0800060e   Section        0  los_memory.o(i.LOS_ListAdd)
    LOS_ListAdd                              0x0800060f   Thumb Code    14  los_memory.o(i.LOS_ListAdd)
    i.LOS_ListAdd                            0x0800061c   Section        0  los_mux.o(i.LOS_ListAdd)
    LOS_ListAdd                              0x0800061d   Thumb Code    14  los_mux.o(i.LOS_ListAdd)
    i.LOS_ListAdd                            0x0800062a   Section        0  los_queue.o(i.LOS_ListAdd)
    LOS_ListAdd                              0x0800062b   Thumb Code    14  los_queue.o(i.LOS_ListAdd)
    i.LOS_ListAdd                            0x08000638   Section        0  los_sem.o(i.LOS_ListAdd)
    LOS_ListAdd                              0x08000639   Thumb Code    14  los_sem.o(i.LOS_ListAdd)
    i.LOS_ListAdd                            0x08000646   Section        0  los_task.o(i.LOS_ListAdd)
    LOS_ListAdd                              0x08000647   Thumb Code    14  los_task.o(i.LOS_ListAdd)
    i.LOS_ListDelete                         0x08000654   Section        0  los_memory.o(i.LOS_ListDelete)
    LOS_ListDelete                           0x08000655   Thumb Code    20  los_memory.o(i.LOS_ListDelete)
    i.LOS_ListDelete                         0x08000668   Section        0  los_sem.o(i.LOS_ListDelete)
    LOS_ListDelete                           0x08000669   Thumb Code    20  los_sem.o(i.LOS_ListDelete)
    i.LOS_ListDelete                         0x0800067c   Section        0  los_task.o(i.LOS_ListDelete)
    LOS_ListDelete                           0x0800067d   Thumb Code    20  los_task.o(i.LOS_ListDelete)
    i.LOS_ListEmpty                          0x08000690   Section        0  los_queue.o(i.LOS_ListEmpty)
    LOS_ListEmpty                            0x08000691   Thumb Code    14  los_queue.o(i.LOS_ListEmpty)
    i.LOS_ListEmpty                          0x0800069e   Section        0  los_sem.o(i.LOS_ListEmpty)
    LOS_ListEmpty                            0x0800069f   Thumb Code    14  los_sem.o(i.LOS_ListEmpty)
    i.LOS_ListEmpty                          0x080006ac   Section        0  los_task.o(i.LOS_ListEmpty)
    LOS_ListEmpty                            0x080006ad   Thumb Code    14  los_task.o(i.LOS_ListEmpty)
    i.LOS_ListTailInsert                     0x080006ba   Section        0  los_task.o(i.LOS_ListTailInsert)
    LOS_ListTailInsert                       0x080006bb   Thumb Code     6  los_task.o(i.LOS_ListTailInsert)
    i.LOS_Log2                               0x080006c0   Section        0  los_multipledlinkhead.o(i.LOS_Log2)
    LOS_Log2                                 0x080006c1   Thumb Code   282  los_multipledlinkhead.o(i.LOS_Log2)
    i.LOS_MemAlloc                           0x080007e0   Section        0  los_memory.o(i.LOS_MemAlloc)
    i.LOS_MemAllocAlign                      0x0800080c   Section        0  los_memory.o(i.LOS_MemAllocAlign)
    i.LOS_MemFree                            0x08000854   Section        0  los_memory.o(i.LOS_MemFree)
    i.LOS_MemInit                            0x08000898   Section        0  los_memory.o(i.LOS_MemInit)
    i.LOS_MemboxFree                         0x0800090c   Section        0  los_membox.o(i.LOS_MemboxFree)
    i.LOS_MemboxInit                         0x0800096c   Section        0  los_membox.o(i.LOS_MemboxInit)
    i.LOS_PriqueueDequeue                    0x080009ca   Section        0  los_priqueue.o(i.LOS_PriqueueDequeue)
    i.LOS_PriqueueEnqueue                    0x080009e0   Section        0  los_priqueue.o(i.LOS_PriqueueEnqueue)
    i.LOS_PriqueueTop                        0x080009fc   Section        0  los_priqueue.o(i.LOS_PriqueueTop)
    i.LOS_QueueCreate                        0x08000a24   Section        0  los_queue.o(i.LOS_QueueCreate)
    i.LOS_QueueRead                          0x08000a98   Section        0  los_queue.o(i.LOS_QueueRead)
    i.LOS_Schedule                           0x08000bb0   Section        0  los_hw.o(i.LOS_Schedule)
    i.LOS_SemPost                            0x08000bf0   Section        0  los_sem.o(i.LOS_SemPost)
    i.LOS_Start                              0x08000c98   Section        0  los_config.o(i.LOS_Start)
    i.LOS_TaskCreate                         0x08000cac   Section        0  los_task.o(i.LOS_TaskCreate)
    i.LOS_TaskCreateOnly                     0x08000d1c   Section        0  los_task.o(i.LOS_TaskCreateOnly)
    i.LOS_TaskLock                           0x08000e78   Section        0  los_task.o(i.LOS_TaskLock)
    i.LOS_TaskUnlock                         0x08000e94   Section        0  los_task.o(i.LOS_TaskUnlock)
    i.LoadAndRun                             0x08000ec4   Section        0  proto.o(i.LoadAndRun)
    i.MemManage_Handler                      0x08000ee0   Section        0  stm32f4xx_it.o(i.MemManage_Handler)
    i.Mem_Clear                              0x08000ee4   Section        0  mem.o(i.Mem_Clear)
    i.Mem_GetCode_uint16                     0x08000f00   Section        0  mem.o(i.Mem_GetCode_uint16)
    i.Mem_GetCode_uint32                     0x08000f20   Section        0  mem.o(i.Mem_GetCode_uint32)
    i.Mem_GetCode_uint8                      0x08000f50   Section        0  mem.o(i.Mem_GetCode_uint8)
    i.Mem_Get_int16                          0x08000f54   Section        0  mem.o(i.Mem_Get_int16)
    i.Mem_Get_int32                          0x08000f70   Section        0  mem.o(i.Mem_Get_int32)
    i.Mem_Get_int8                           0x08000f90   Section        0  mem.o(i.Mem_Get_int8)
    i.Mem_Get_uint16                         0x08000f9c   Section        0  mem.o(i.Mem_Get_uint16)
    i.Mem_Get_uint24                         0x08000fb8   Section        0  mem.o(i.Mem_Get_uint24)
    i.Mem_Get_uint32                         0x08000fd0   Section        0  mem.o(i.Mem_Get_uint32)
    i.Mem_Get_uint8                          0x08000ff0   Section        0  mem.o(i.Mem_Get_uint8)
    i.Mem_Set_int16                          0x08000ffc   Section        0  mem.o(i.Mem_Set_int16)
    i.Mem_Set_int32                          0x0800100c   Section        0  mem.o(i.Mem_Set_int32)
    i.Mem_Set_int8                           0x08001024   Section        0  mem.o(i.Mem_Set_int8)
    i.Mem_Set_uint16                         0x08001030   Section        0  mem.o(i.Mem_Set_uint16)
    i.Mem_Set_uint32                         0x08001040   Section        0  mem.o(i.Mem_Set_uint32)
    i.Mem_Set_uint8                          0x08001058   Section        0  mem.o(i.Mem_Set_uint8)
    i.NMI_Handler                            0x08001064   Section        0  stm32f4xx_it.o(i.NMI_Handler)
    i.NVIC_Init                              0x08001068   Section        0  misc.o(i.NVIC_Init)
    i.PendSV_Handler                         0x080010cc   Section        0  stm32f4xx_it.o(i.PendSV_Handler)
    i.RCC_AHB1PeriphClockCmd                 0x080010d0   Section        0  stm32f4xx_rcc.o(i.RCC_AHB1PeriphClockCmd)
    i.RCC_APB1PeriphClockCmd                 0x080010e8   Section        0  stm32f4xx_rcc.o(i.RCC_APB1PeriphClockCmd)
    i.RCC_GetClocksFreq                      0x08001100   Section        0  stm32f4xx_rcc.o(i.RCC_GetClocksFreq)
    i.REMO_DataChannelRead                   0x08001190   Section        0  vm.o(i.REMO_DataChannelRead)
    i.REMO_DataChannelWrite                  0x080011d0   Section        0  vm.o(i.REMO_DataChannelWrite)
    i.Read                                   0x08001214   Section        0  proto.o(i.Read)
    i.ReadConstValue                         0x08001254   Section        0  vm.o(i.ReadConstValue)
    i.ReadInsAddrValue                       0x08001288   Section        0  vm.o(i.ReadInsAddrValue)
    i.ReadInterfaceValue                     0x080012bc   Section        0  vm.o(i.ReadInterfaceValue)
    i.ReadSubValueValue                      0x080012f0   Section        0  vm.o(i.ReadSubValueValue)
    i.ReadSys_int16                          0x08001324   Section        0  vm.o(i.ReadSys_int16)
    i.ReadSys_int8                           0x0800133c   Section        0  vm.o(i.ReadSys_int8)
    i.ReadVarAddrValue                       0x08001354   Section        0  vm.o(i.ReadVarAddrValue)
    i.RunIns                                 0x08001388   Section        0  proto.o(i.RunIns)
    i.SVC_Handler                            0x0800143c   Section        0  stm32f4xx_it.o(i.SVC_Handler)
    i.Serial_Init                            0x08001440   Section        0  usart.o(i.Serial_Init)
    i.Serial_write                           0x080014fc   Section        0  usart.o(i.Serial_write)
    i.SetAddr                                0x0800151c   Section        0  proto.o(i.SetAddr)
    i.SetSysClock                            0x08001550   Section        0  system_stm32f4xx.o(i.SetSysClock)
    SetSysClock                              0x08001551   Thumb Code    98  system_stm32f4xx.o(i.SetSysClock)
    i.Store                                  0x080015c4   Section        0  proto.o(i.Store)
    i.SysTick_Config                         0x08001628   Section        0  delay.o(i.SysTick_Config)
    SysTick_Config                           0x08001629   Thumb Code    38  delay.o(i.SysTick_Config)
    i.SysTick_Handler                        0x08001654   Section        0  stm32f4xx_it.o(i.SysTick_Handler)
    i.SystemInit                             0x08001664   Section        0  system_stm32f4xx.o(i.SystemInit)
    i.Timer_Init                             0x080016c0   Section        0  delay.o(i.Timer_Init)
    i.Timer_SetTimeMs                        0x080016cc   Section        0  delay.o(i.Timer_SetTimeMs)
    i.Timer_delay_ms                         0x080016e0   Section        0  delay.o(i.Timer_delay_ms)
    i.Timer_isTimeOut                        0x08001704   Section        0  delay.o(i.Timer_isTimeOut)
    i.USART2_IRQHandler                      0x08001718   Section        0  usart.o(i.USART2_IRQHandler)
    i.USART_ClearFlag                        0x08001754   Section        0  stm32f4xx_usart.o(i.USART_ClearFlag)
    i.USART_Cmd                              0x0800175a   Section        0  stm32f4xx_usart.o(i.USART_Cmd)
    i.USART_GetFlagStatus                    0x0800176e   Section        0  stm32f4xx_usart.o(i.USART_GetFlagStatus)
    i.USART_GetITStatus                      0x0800177c   Section        0  stm32f4xx_usart.o(i.USART_GetITStatus)
    i.USART_ITConfig                         0x080017ba   Section        0  stm32f4xx_usart.o(i.USART_ITConfig)
    i.USART_Init                             0x080017ec   Section        0  stm32f4xx_usart.o(i.USART_Init)
    i.USART_ReceiveData                      0x08001898   Section        0  stm32f4xx_usart.o(i.USART_ReceiveData)
    i.UsageFault_Handler                     0x080018a0   Section        0  stm32f4xx_it.o(i.UsageFault_Handler)
    i.VM_AddInterruptEvent                   0x080018a4   Section        0  vm.o(i.VM_AddInterruptEvent)
    i.VM_ClearSysValue                       0x080018c8   Section        0  vm.o(i.VM_ClearSysValue)
    i.VM_Reset                               0x080018d4   Section        0  vm.o(i.VM_Reset)
    i.VM_Run                                 0x08001928   Section        0  vm.o(i.VM_Run)
    i.__scatterload_copy                     0x08002470   Section       14  handlers.o(i.__scatterload_copy)
    i.__scatterload_null                     0x0800247e   Section        2  handlers.o(i.__scatterload_null)
    i.__scatterload_zeroinit                 0x08002480   Section       14  handlers.o(i.__scatterload_zeroinit)
    i.loop                                   0x08002490   Section        0  proto.o(i.loop)
    i.main                                   0x080024c0   Section        0  los_config.o(i.main)
    i.myTask                                 0x080024d8   Section        0  main.o(i.myTask)
    i.osHwiDefaultHandler                    0x08002518   Section        0  los_hwi.o(i.osHwiDefaultHandler)
    i.osHwiInit                              0x08002520   Section        0  los_hwi.o(i.osHwiInit)
    i.osIdleTask                             0x08002550   Section        0  los_task.o(i.osIdleTask)
    i.osIdleTaskCreate                       0x08002554   Section        0  los_task.o(i.osIdleTaskCreate)
    i.osInterrupt                            0x08002594   Section        0  los_hwi.o(i.osInterrupt)
    i.osMain                                 0x080025d0   Section        0  los_config.o(i.osMain)
    i.osMemAllocWithCheck                    0x08002618   Section        0  los_memory.o(i.osMemAllocWithCheck)
    osMemAllocWithCheck                      0x08002619   Thumb Code   120  los_memory.o(i.osMemAllocWithCheck)
    i.osMemCheckUsedNode                     0x08002690   Section        0  los_memory.o(i.osMemCheckUsedNode)
    osMemCheckUsedNode                       0x08002691   Thumb Code   120  los_memory.o(i.osMemCheckUsedNode)
    i.osMemFreeNode                          0x08002708   Section        0  los_memory.o(i.osMemFreeNode)
    osMemFreeNode                            0x08002709   Thumb Code   134  los_memory.o(i.osMemFreeNode)
    i.osMemIsNodeValid                       0x0800278e   Section        0  los_memory.o(i.osMemIsNodeValid)
    osMemIsNodeValid                         0x0800278f   Thumb Code    46  los_memory.o(i.osMemIsNodeValid)
    i.osMemMergeNode                         0x080027bc   Section        0  los_memory.o(i.osMemMergeNode)
    osMemMergeNode                           0x080027bd   Thumb Code    28  los_memory.o(i.osMemMergeNode)
    i.osMemSetMagicNumAndTaskid              0x080027d8   Section        0  los_memory.o(i.osMemSetMagicNumAndTaskid)
    osMemSetMagicNumAndTaskid                0x080027d9   Thumb Code    22  los_memory.o(i.osMemSetMagicNumAndTaskid)
    i.osMemSpitNode                          0x080027f4   Section        0  los_memory.o(i.osMemSpitNode)
    osMemSpitNode                            0x080027f5   Thumb Code    70  los_memory.o(i.osMemSpitNode)
    i.osMemSystemInit                        0x0800283c   Section        0  los_memory.o(i.osMemSystemInit)
    i.osMuxInit                              0x08002854   Section        0  los_mux.o(i.osMuxInit)
    i.osPriqueueInit                         0x080028a8   Section        0  los_priqueue.o(i.osPriqueueInit)
    i.osQueueCreate                          0x080028dc   Section        0  los_queue.o(i.osQueueCreate)
    i.osQueueInit                            0x08002940   Section        0  los_queue.o(i.osQueueInit)
    i.osQueuePend                            0x08002970   Section        0  los_queue.o(i.osQueuePend)
    osQueuePend                              0x08002971   Thumb Code   104  los_queue.o(i.osQueuePend)
    i.osQueueWakeUp                          0x080029d8   Section        0  los_queue.o(i.osQueueWakeUp)
    osQueueWakeUp                            0x080029d9   Thumb Code    80  los_queue.o(i.osQueueWakeUp)
    i.osRegister                             0x08002a28   Section        0  los_config.o(i.osRegister)
    i.osSchedule                             0x08002a44   Section        0  los_hw.o(i.osSchedule)
    i.osSemInit                              0x08002a48   Section        0  los_sem.o(i.osSemInit)
    i.osSwTmrInit                            0x08002a98   Section        0  los_swtmr.o(i.osSwTmrInit)
    i.osSwTmrTask                            0x08002b20   Section        0  los_swtmr.o(i.osSwTmrTask)
    i.osSwTmrTaskCreate                      0x08002b5c   Section        0  los_swtmr.o(i.osSwTmrTaskCreate)
    i.osTaskAdd2TimerList                    0x08002ba0   Section        0  los_task.o(i.osTaskAdd2TimerList)
    i.osTaskEntry                            0x08002c24   Section        0  los_task.o(i.osTaskEntry)
    i.osTaskExit                             0x08002cb8   Section        0  los_hw.o(i.osTaskExit)
    i.osTaskInit                             0x08002cbc   Section        0  los_task.o(i.osTaskInit)
    i.osTaskMemUsedDec                       0x08002d90   Section        0  los_memstat.o(i.osTaskMemUsedDec)
    i.osTaskMemUsedInc                       0x08002dbc   Section        0  los_memstat.o(i.osTaskMemUsedInc)
    i.osTaskSelfDelete                       0x08002dec   Section        0  los_task.o(i.osTaskSelfDelete)
    i.osTickStart                            0x08002ec4   Section        0  los_hw_tick.o(i.osTickStart)
    i.osTimerListDelete                      0x08002f1c   Section        0  los_task.o(i.osTimerListDelete)
    i.osTimesliceInit                        0x08002f50   Section        0  los_timeslice.o(i.osTimesliceInit)
    i.osTskStackInit                         0x08002f60   Section        0  los_hw.o(i.osTskStackInit)
    i.setup                                  0x08003094   Section        0  proto.o(i.setup)
    .constdata                               0x080030a8   Section        4  error_type.o(.constdata)
    .constdata                               0x080030ac   Section        4  error_type.o(.constdata)
    .constdata                               0x080030b0   Section        4  error_type.o(.constdata)
    .constdata                               0x080030b4   Section        4  error_type.o(.constdata)
    .data                                    0x20000000   Section       16  stm32f4xx_rcc.o(.data)
    APBAHBPrescTable                         0x20000000   Data          16  stm32f4xx_rcc.o(.data)
    .data                                    0x20000010   Section        2  usart.o(.data)
    .data                                    0x20000012   Section        2  delay.o(.data)
    .data                                    0x20000014   Section       20  proto.o(.data)
    .data                                    0x20000028   Section        2  code_list.o(.data)
    .data                                    0x2000002c   Section       84  vm.o(.data)
    .data                                    0x20000080   Section        8  io.o(.data)
    .data                                    0x20000088   Section       12  los_mux.o(.data)
    .data                                    0x20000094   Section        4  los_queue.o(.data)
    .data                                    0x20000098   Section       12  los_sem.o(.data)
    .data                                    0x200000a4   Section        4  los_priqueue.o(.data)
    .data                                    0x200000a8   Section       16  los_swtmr.o(.data)
    .data                                    0x200000b8   Section       64  los_task.o(.data)
    .data                                    0x200000f8   Section        8  los_tick.o(.data)
    .data                                    0x20000100   Section        8  los_timeslice.o(.data)
    .data                                    0x20000108   Section        4  los_config.o(.data)
    .data                                    0x2000010c   Section        4  los_config.o(.data)
    .data                                    0x20000110   Section        4  los_hw_tick.o(.data)
    .data                                    0x20000114   Section        4  los_hwi.o(.data)
    .vector.bss                              0x20000118   Section     1024  los_hwi.o(.vector.bss)
    .bss                                     0x20000518   Section      356  proto.o(.bss)
    .bss                                     0x2000067c   Section    30000  code_list.o(.bss)
    .bss                                     0x20007bac   Section       20  vm.o(.bss)
    .bss                                     0x20007bc0   Section     3000  mem.o(.bss)
    .bss                                     0x20008778   Section      120  io.o(.bss)
    .bss                                     0x200087f0   Section    32768  los_memory.o(.bss)
    .bss                                     0x200107f0   Section       64  los_memstat.o(.bss)
    .bss                                     0x20010830   Section      208  los_swtmr.o(.bss)
    .bss                                     0x20010900   Section     1024  los_hwi.o(.bss)
    STACK                                    0x20010d00   Section     1024  startup_stm32f411xe.o(STACK)

    Global Symbols

    Symbol Name                              Value     Ov Type        Size  Object(Section)

    BuildAttributes$$THM_ISAv4$E$P$D$K$B$S$7EM$VFPi3$EXTD16$VFPS$VFMA$PE$A:L22UL41UL21$X:L11$S22US41US21$IEEE1$IW$USESV6$~STKCKD$USESV7$~SHL$OSPACE$ROPI$EBA8$MICROLIB$REQ8$PRES8$EABIv2 0x00000000   Number         0  anon$$obj.o ABSOLUTE
    __ARM_use_no_argv                        0x00000000   Number         0  los_config.o ABSOLUTE
    __use_no_errno                           0x00000000   Number         0  useno.o ABSOLUTE
    __use_no_exception_handling              0x00000000   Number         0  useno.o ABSOLUTE
    __use_no_fp                              0x00000000   Number         0  useno.o ABSOLUTE
    __use_no_heap                            0x00000000   Number         0  useno.o ABSOLUTE
    __use_no_heap_region                     0x00000000   Number         0  useno.o ABSOLUTE
    __use_no_semihosting                     0x00000000   Number         0  useno.o ABSOLUTE
    __use_no_semihosting_swi                 0x00000000   Number         0  useno.o ABSOLUTE
    __use_no_signal_handling                 0x00000000   Number         0  useno.o ABSOLUTE
    __cpp_initialize__aeabi_                  - Undefined Weak Reference
    __cxa_finalize                            - Undefined Weak Reference
    _clock_init                               - Undefined Weak Reference
    _microlib_exit                            - Undefined Weak Reference
    __Vectors_Size                           0x00000198   Number         0  startup_stm32f411xe.o ABSOLUTE
    __Vectors                                0x08000000   Data           4  startup_stm32f411xe.o(RESET)
    __Vectors_End                            0x08000198   Data           0  startup_stm32f411xe.o(RESET)
    __main                                   0x08000199   Thumb Code     0  entry.o(.ARM.Collect$$$$00000000)
    _main_stk                                0x08000199   Thumb Code     0  entry2.o(.ARM.Collect$$$$00000001)
    _main_scatterload                        0x0800019d   Thumb Code     0  entry5.o(.ARM.Collect$$$$00000004)
    __main_after_scatterload                 0x080001a1   Thumb Code     0  entry5.o(.ARM.Collect$$$$00000004)
    _main_clock                              0x080001a1   Thumb Code     0  entry7b.o(.ARM.Collect$$$$00000008)
    _main_cpp_init                           0x080001a1   Thumb Code     0  entry8b.o(.ARM.Collect$$$$0000000A)
    _main_init                               0x080001a1   Thumb Code     0  entry9a.o(.ARM.Collect$$$$0000000B)
    __rt_final_cpp                           0x080001a9   Thumb Code     0  entry10a.o(.ARM.Collect$$$$0000000D)
    __rt_final_exit                          0x080001a9   Thumb Code     0  entry11a.o(.ARM.Collect$$$$0000000F)
    osIntNumGet                              0x080001ad   Thumb Code     6  los_hwi.o(.emb_text)
    Reset_Handler                            0x080001b5   Thumb Code     8  startup_stm32f411xe.o(.text)
    ADC_IRQHandler                           0x080001cf   Thumb Code     0  startup_stm32f411xe.o(.text)
    DMA1_Stream0_IRQHandler                  0x080001cf   Thumb Code     0  startup_stm32f411xe.o(.text)
    DMA1_Stream1_IRQHandler                  0x080001cf   Thumb Code     0  startup_stm32f411xe.o(.text)
    DMA1_Stream2_IRQHandler                  0x080001cf   Thumb Code     0  startup_stm32f411xe.o(.text)
    DMA1_Stream3_IRQHandler                  0x080001cf   Thumb Code     0  startup_stm32f411xe.o(.text)
    DMA1_Stream4_IRQHandler                  0x080001cf   Thumb Code     0  startup_stm32f411xe.o(.text)
    DMA1_Stream5_IRQHandler                  0x080001cf   Thumb Code     0  startup_stm32f411xe.o(.text)
    DMA1_Stream6_IRQHandler                  0x080001cf   Thumb Code     0  startup_stm32f411xe.o(.text)
    DMA1_Stream7_IRQHandler                  0x080001cf   Thumb Code     0  startup_stm32f411xe.o(.text)
    DMA2_Stream0_IRQHandler                  0x080001cf   Thumb Code     0  startup_stm32f411xe.o(.text)
    DMA2_Stream1_IRQHandler                  0x080001cf   Thumb Code     0  startup_stm32f411xe.o(.text)
    DMA2_Stream2_IRQHandler                  0x080001cf   Thumb Code     0  startup_stm32f411xe.o(.text)
    DMA2_Stream3_IRQHandler                  0x080001cf   Thumb Code     0  startup_stm32f411xe.o(.text)
    DMA2_Stream4_IRQHandler                  0x080001cf   Thumb Code     0  startup_stm32f411xe.o(.text)
    DMA2_Stream5_IRQHandler                  0x080001cf   Thumb Code     0  startup_stm32f411xe.o(.text)
    DMA2_Stream6_IRQHandler                  0x080001cf   Thumb Code     0  startup_stm32f411xe.o(.text)
    DMA2_Stream7_IRQHandler                  0x080001cf   Thumb Code     0  startup_stm32f411xe.o(.text)
    EXTI0_IRQHandler                         0x080001cf   Thumb Code     0  startup_stm32f411xe.o(.text)
    EXTI15_10_IRQHandler                     0x080001cf   Thumb Code     0  startup_stm32f411xe.o(.text)
    EXTI1_IRQHandler                         0x080001cf   Thumb Code     0  startup_stm32f411xe.o(.text)
    EXTI2_IRQHandler                         0x080001cf   Thumb Code     0  startup_stm32f411xe.o(.text)
    EXTI3_IRQHandler                         0x080001cf   Thumb Code     0  startup_stm32f411xe.o(.text)
    EXTI4_IRQHandler                         0x080001cf   Thumb Code     0  startup_stm32f411xe.o(.text)
    EXTI9_5_IRQHandler                       0x080001cf   Thumb Code     0  startup_stm32f411xe.o(.text)
    FLASH_IRQHandler                         0x080001cf   Thumb Code     0  startup_stm32f411xe.o(.text)
    FPU_IRQHandler                           0x080001cf   Thumb Code     0  startup_stm32f411xe.o(.text)
    I2C1_ER_IRQHandler                       0x080001cf   Thumb Code     0  startup_stm32f411xe.o(.text)
    I2C1_EV_IRQHandler                       0x080001cf   Thumb Code     0  startup_stm32f411xe.o(.text)
    I2C2_ER_IRQHandler                       0x080001cf   Thumb Code     0  startup_stm32f411xe.o(.text)
    I2C2_EV_IRQHandler                       0x080001cf   Thumb Code     0  startup_stm32f411xe.o(.text)
    I2C3_ER_IRQHandler                       0x080001cf   Thumb Code     0  startup_stm32f411xe.o(.text)
    I2C3_EV_IRQHandler                       0x080001cf   Thumb Code     0  startup_stm32f411xe.o(.text)
    OTG_FS_IRQHandler                        0x080001cf   Thumb Code     0  startup_stm32f411xe.o(.text)
    OTG_FS_WKUP_IRQHandler                   0x080001cf   Thumb Code     0  startup_stm32f411xe.o(.text)
    PVD_IRQHandler                           0x080001cf   Thumb Code     0  startup_stm32f411xe.o(.text)
    RCC_IRQHandler                           0x080001cf   Thumb Code     0  startup_stm32f411xe.o(.text)
    RTC_Alarm_IRQHandler                     0x080001cf   Thumb Code     0  startup_stm32f411xe.o(.text)
    RTC_WKUP_IRQHandler                      0x080001cf   Thumb Code     0  startup_stm32f411xe.o(.text)
    SDIO_IRQHandler                          0x080001cf   Thumb Code     0  startup_stm32f411xe.o(.text)
    SPI1_IRQHandler                          0x080001cf   Thumb Code     0  startup_stm32f411xe.o(.text)
    SPI2_IRQHandler                          0x080001cf   Thumb Code     0  startup_stm32f411xe.o(.text)
    SPI3_IRQHandler                          0x080001cf   Thumb Code     0  startup_stm32f411xe.o(.text)
    SPI4_IRQHandler                          0x080001cf   Thumb Code     0  startup_stm32f411xe.o(.text)
    SPI5_IRQHandler                          0x080001cf   Thumb Code     0  startup_stm32f411xe.o(.text)
    TAMP_STAMP_IRQHandler                    0x080001cf   Thumb Code     0  startup_stm32f411xe.o(.text)
    TIM1_BRK_TIM9_IRQHandler                 0x080001cf   Thumb Code     0  startup_stm32f411xe.o(.text)
    TIM1_CC_IRQHandler                       0x080001cf   Thumb Code     0  startup_stm32f411xe.o(.text)
    TIM1_TRG_COM_TIM11_IRQHandler            0x080001cf   Thumb Code     0  startup_stm32f411xe.o(.text)
    TIM1_UP_TIM10_IRQHandler                 0x080001cf   Thumb Code     0  startup_stm32f411xe.o(.text)
    TIM2_IRQHandler                          0x080001cf   Thumb Code     0  startup_stm32f411xe.o(.text)
    TIM3_IRQHandler                          0x080001cf   Thumb Code     0  startup_stm32f411xe.o(.text)
    TIM4_IRQHandler                          0x080001cf   Thumb Code     0  startup_stm32f411xe.o(.text)
    TIM5_IRQHandler                          0x080001cf   Thumb Code     0  startup_stm32f411xe.o(.text)
    USART1_IRQHandler                        0x080001cf   Thumb Code     0  startup_stm32f411xe.o(.text)
    USART6_IRQHandler                        0x080001cf   Thumb Code     0  startup_stm32f411xe.o(.text)
    WWDG_IRQHandler                          0x080001cf   Thumb Code     0  startup_stm32f411xe.o(.text)
    LOS_IntLock                              0x080001d9   Thumb Code     0  los_dispatch.o(.text)
    LOS_IntRestore                           0x080001d9   Thumb Code     0  los_dispatch.o(.text)
    LOS_IntUnLock                            0x080001d9   Thumb Code     0  los_dispatch.o(.text)
    LOS_StartToRun                           0x080001d9   Thumb Code     0  los_dispatch.o(.text)
    PendSV_Handler1                          0x080001d9   Thumb Code     0  los_dispatch.o(.text)
    __aeabi_memset                           0x080001d9   Thumb Code    14  memseta.o(.text)
    __aeabi_memset4                          0x080001d9   Thumb Code     0  memseta.o(.text)
    __aeabi_memset8                          0x080001d9   Thumb Code     0  memseta.o(.text)
    osTaskSchedule                           0x080001d9   Thumb Code     0  los_dispatch.o(.text)
    __aeabi_memclr                           0x080001e7   Thumb Code     4  memseta.o(.text)
    __aeabi_memclr4                          0x080001e7   Thumb Code     0  memseta.o(.text)
    __aeabi_memclr8                          0x080001e7   Thumb Code     0  memseta.o(.text)
    _memset$wrapper                          0x080001eb   Thumb Code    18  memseta.o(.text)
    __scatterload                            0x080001fd   Thumb Code    28  init.o(.text)
    __scatterload_rt2                        0x080001fd   Thumb Code     0  init.o(.text)
    __decompress                             0x08000221   Thumb Code     0  __dczerorl2.o(.text)
    __decompress1                            0x08000221   Thumb Code    86  __dczerorl2.o(.text)
    BusFault_Handler                         0x08000277   Thumb Code     2  stm32f4xx_it.o(i.BusFault_Handler)
    CODE_AddIns                              0x08000279   Thumb Code    14  code_list.o(i.CODE_AddIns)
    CODE_Load                                0x08000291   Thumb Code     2  code_list.o(i.CODE_Load)
    CODE_ReadIns                             0x08000295   Thumb Code     6  code_list.o(i.CODE_ReadIns)
    CODE_Save                                0x080002a1   Thumb Code     2  code_list.o(i.CODE_Save)
    CODE_Start                               0x080002a5   Thumb Code     8  code_list.o(i.CODE_Start)
    Check                                    0x080002b1   Thumb Code    32  proto.o(i.Check)
    Deal                                     0x080002d5   Thumb Code    94  proto.o(i.Deal)
    DealInterface                            0x0800033d   Thumb Code    82  vm.o(i.DealInterface)
    DebugMon_Handler                         0x08000399   Thumb Code     2  stm32f4xx_it.o(i.DebugMon_Handler)
    Error                                    0x0800039b   Thumb Code    28  proto.o(i.Error)
    GPIO_Init                                0x080003b7   Thumb Code   120  stm32f4xx_gpio.o(i.GPIO_Init)
    GPIO_PinAFConfig                         0x0800042f   Thumb Code    32  stm32f4xx_gpio.o(i.GPIO_PinAFConfig)
    GPIO_ReadInputDataBit                    0x0800044f   Thumb Code    14  stm32f4xx_gpio.o(i.GPIO_ReadInputDataBit)
    GPIO_ReadOutputDataBit                   0x0800045d   Thumb Code    14  stm32f4xx_gpio.o(i.GPIO_ReadOutputDataBit)
    GPIO_ResetBits                           0x0800046b   Thumb Code     4  stm32f4xx_gpio.o(i.GPIO_ResetBits)
    GPIO_SetBits                             0x0800046f   Thumb Code     4  stm32f4xx_gpio.o(i.GPIO_SetBits)
    HardFault_Handler                        0x08000473   Thumb Code     2  stm32f4xx_it.o(i.HardFault_Handler)
    IO_AnalogOpen                            0x08000475   Thumb Code     2  io.o(i.IO_AnalogOpen)
    IO_AnalogRead                            0x08000477   Thumb Code     4  io.o(i.IO_AnalogRead)
    IO_DirWrite                              0x0800047d   Thumb Code    30  io.o(i.IO_DirWrite)
    IO_InRead                                0x080004a5   Thumb Code    18  io.o(i.IO_InRead)
    IO_Init                                  0x080004bd   Thumb Code   192  io.o(i.IO_Init)
    IO_OutRead                               0x08000591   Thumb Code    18  io.o(i.IO_OutRead)
    IO_OutWrite                              0x080005a9   Thumb Code    28  io.o(i.IO_OutWrite)
    IO_PullWrite                             0x080005c9   Thumb Code     2  io.o(i.IO_PullWrite)
    LOS_Align                                0x080005cb   Thumb Code    20  los_misc.o(i.LOS_Align)
    LOS_DLnkInitMultiHead                    0x080005df   Thumb Code    16  los_multipledlinkhead.o(i.LOS_DLnkInitMultiHead)
    LOS_DLnkMultiHead                        0x080005ef   Thumb Code    32  los_multipledlinkhead.o(i.LOS_DLnkMultiHead)
    LOS_MemAlloc                             0x080007e1   Thumb Code    44  los_memory.o(i.LOS_MemAlloc)
    LOS_MemAllocAlign                        0x0800080d   Thumb Code    72  los_memory.o(i.LOS_MemAllocAlign)
    LOS_MemFree                              0x08000855   Thumb Code    68  los_memory.o(i.LOS_MemFree)
    LOS_MemInit                              0x08000899   Thumb Code   112  los_memory.o(i.LOS_MemInit)
    LOS_MemboxFree                           0x0800090d   Thumb Code    90  los_membox.o(i.LOS_MemboxFree)
    LOS_MemboxInit                           0x0800096d   Thumb Code    94  los_membox.o(i.LOS_MemboxInit)
    LOS_PriqueueDequeue                      0x080009cb   Thumb Code    20  los_priqueue.o(i.LOS_PriqueueDequeue)
    LOS_PriqueueEnqueue                      0x080009e1   Thumb Code    22  los_priqueue.o(i.LOS_PriqueueEnqueue)
    LOS_PriqueueTop                          0x080009fd   Thumb Code    34  los_priqueue.o(i.LOS_PriqueueTop)
    LOS_QueueCreate                          0x08000a25   Thumb Code   110  los_queue.o(i.LOS_QueueCreate)
    LOS_QueueRead                            0x08000a99   Thumb Code   258  los_queue.o(i.LOS_QueueRead)
    LOS_Schedule                             0x08000bb1   Thumb Code    54  los_hw.o(i.LOS_Schedule)
    LOS_SemPost                              0x08000bf1   Thumb Code   160  los_sem.o(i.LOS_SemPost)
    LOS_Start                                0x08000c99   Thumb Code    18  los_config.o(i.LOS_Start)
    LOS_TaskCreate                           0x08000cad   Thumb Code   106  los_task.o(i.LOS_TaskCreate)
    LOS_TaskCreateOnly                       0x08000d1d   Thumb Code   332  los_task.o(i.LOS_TaskCreateOnly)
    LOS_TaskLock                             0x08000e79   Thumb Code    22  los_task.o(i.LOS_TaskLock)
    LOS_TaskUnlock                           0x08000e95   Thumb Code    42  los_task.o(i.LOS_TaskUnlock)
    LoadAndRun                               0x08000ec5   Thumb Code    24  proto.o(i.LoadAndRun)
    MemManage_Handler                        0x08000ee1   Thumb Code     2  stm32f4xx_it.o(i.MemManage_Handler)
    Mem_Clear                                0x08000ee5   Thumb Code    22  mem.o(i.Mem_Clear)
    Mem_GetCode_uint16                       0x08000f01   Thumb Code    32  mem.o(i.Mem_GetCode_uint16)
    Mem_GetCode_uint32                       0x08000f21   Thumb Code    48  mem.o(i.Mem_GetCode_uint32)
    Mem_GetCode_uint8                        0x08000f51   Thumb Code     4  mem.o(i.Mem_GetCode_uint8)
    Mem_Get_int16                            0x08000f55   Thumb Code    22  mem.o(i.Mem_Get_int16)
    Mem_Get_int32                            0x08000f71   Thumb Code    28  mem.o(i.Mem_Get_int32)
    Mem_Get_int8                             0x08000f91   Thumb Code     6  mem.o(i.Mem_Get_int8)
    Mem_Get_uint16                           0x08000f9d   Thumb Code    22  mem.o(i.Mem_Get_uint16)
    Mem_Get_uint24                           0x08000fb9   Thumb Code    20  mem.o(i.Mem_Get_uint24)
    Mem_Get_uint32                           0x08000fd1   Thumb Code    28  mem.o(i.Mem_Get_uint32)
    Mem_Get_uint8                            0x08000ff1   Thumb Code     6  mem.o(i.Mem_Get_uint8)
    Mem_Set_int16                            0x08000ffd   Thumb Code    12  mem.o(i.Mem_Set_int16)
    Mem_Set_int32                            0x0800100d   Thumb Code    20  mem.o(i.Mem_Set_int32)
    Mem_Set_int8                             0x08001025   Thumb Code     6  mem.o(i.Mem_Set_int8)
    Mem_Set_uint16                           0x08001031   Thumb Code    12  mem.o(i.Mem_Set_uint16)
    Mem_Set_uint32                           0x08001041   Thumb Code    20  mem.o(i.Mem_Set_uint32)
    Mem_Set_uint8                            0x08001059   Thumb Code     6  mem.o(i.Mem_Set_uint8)
    NMI_Handler                              0x08001065   Thumb Code     2  stm32f4xx_it.o(i.NMI_Handler)
    NVIC_Init                                0x08001069   Thumb Code    96  misc.o(i.NVIC_Init)
    PendSV_Handler                           0x080010cd   Thumb Code     2  stm32f4xx_it.o(i.PendSV_Handler)
    RCC_AHB1PeriphClockCmd                   0x080010d1   Thumb Code    18  stm32f4xx_rcc.o(i.RCC_AHB1PeriphClockCmd)
    RCC_APB1PeriphClockCmd                   0x080010e9   Thumb Code    18  stm32f4xx_rcc.o(i.RCC_APB1PeriphClockCmd)
    RCC_GetClocksFreq                        0x08001101   Thumb Code   132  stm32f4xx_rcc.o(i.RCC_GetClocksFreq)
    REMO_DataChannelRead                     0x08001191   Thumb Code    60  vm.o(i.REMO_DataChannelRead)
    REMO_DataChannelWrite                    0x080011d1   Thumb Code    64  vm.o(i.REMO_DataChannelWrite)
    Read                                     0x08001215   Thumb Code    60  proto.o(i.Read)
    ReadConstValue                           0x08001255   Thumb Code    46  vm.o(i.ReadConstValue)
    ReadInsAddrValue                         0x08001289   Thumb Code    46  vm.o(i.ReadInsAddrValue)
    ReadInterfaceValue                       0x080012bd   Thumb Code    46  vm.o(i.ReadInterfaceValue)
    ReadSubValueValue                        0x080012f1   Thumb Code    46  vm.o(i.ReadSubValueValue)
    ReadSys_int16                            0x08001325   Thumb Code    20  vm.o(i.ReadSys_int16)
    ReadSys_int8                             0x0800133d   Thumb Code    18  vm.o(i.ReadSys_int8)
    ReadVarAddrValue                         0x08001355   Thumb Code    46  vm.o(i.ReadVarAddrValue)
    RunIns                                   0x08001389   Thumb Code   158  proto.o(i.RunIns)
    SVC_Handler                              0x0800143d   Thumb Code     2  stm32f4xx_it.o(i.SVC_Handler)
    Serial_Init                              0x08001441   Thumb Code   176  usart.o(i.Serial_Init)
    Serial_write                             0x080014fd   Thumb Code    26  usart.o(i.Serial_write)
    SetAddr                                  0x0800151d   Thumb Code    48  proto.o(i.SetAddr)
    Store                                    0x080015c5   Thumb Code    90  proto.o(i.Store)
    SysTick_Handler                          0x08001655   Thumb Code    10  stm32f4xx_it.o(i.SysTick_Handler)
    SystemInit                               0x08001665   Thumb Code    74  system_stm32f4xx.o(i.SystemInit)
    Timer_Init                               0x080016c1   Thumb Code     8  delay.o(i.Timer_Init)
    Timer_SetTimeMs                          0x080016cd   Thumb Code    10  delay.o(i.Timer_SetTimeMs)
    Timer_delay_ms                           0x080016e1   Thumb Code    26  delay.o(i.Timer_delay_ms)
    Timer_isTimeOut                          0x08001705   Thumb Code    14  delay.o(i.Timer_isTimeOut)
    USART2_IRQHandler                        0x08001719   Thumb Code    52  usart.o(i.USART2_IRQHandler)
    USART_ClearFlag                          0x08001755   Thumb Code     6  stm32f4xx_usart.o(i.USART_ClearFlag)
    USART_Cmd                                0x0800175b   Thumb Code    20  stm32f4xx_usart.o(i.USART_Cmd)
    USART_GetFlagStatus                      0x0800176f   Thumb Code    14  stm32f4xx_usart.o(i.USART_GetFlagStatus)
    USART_GetITStatus                        0x0800177d   Thumb Code    62  stm32f4xx_usart.o(i.USART_GetITStatus)
    USART_ITConfig                           0x080017bb   Thumb Code    48  stm32f4xx_usart.o(i.USART_ITConfig)
    USART_Init                               0x080017ed   Thumb Code   164  stm32f4xx_usart.o(i.USART_Init)
    USART_ReceiveData                        0x08001899   Thumb Code     8  stm32f4xx_usart.o(i.USART_ReceiveData)
    UsageFault_Handler                       0x080018a1   Thumb Code     2  stm32f4xx_it.o(i.UsageFault_Handler)
    VM_AddInterruptEvent                     0x080018a5   Thumb Code    26  vm.o(i.VM_AddInterruptEvent)
    VM_ClearSysValue                         0x080018c9   Thumb Code     8  vm.o(i.VM_ClearSysValue)
    VM_Reset                                 0x080018d5   Thumb Code    80  vm.o(i.VM_Reset)
    VM_Run                                   0x08001929   Thumb Code  2876  vm.o(i.VM_Run)
    __scatterload_copy                       0x08002471   Thumb Code    14  handlers.o(i.__scatterload_copy)
    __scatterload_null                       0x0800247f   Thumb Code     2  handlers.o(i.__scatterload_null)
    __scatterload_zeroinit                   0x08002481   Thumb Code    14  handlers.o(i.__scatterload_zeroinit)
    loop                                     0x08002491   Thumb Code    44  proto.o(i.loop)
    main                                     0x080024c1   Thumb Code    22  los_config.o(i.main)
    myTask                                   0x080024d9   Thumb Code    60  main.o(i.myTask)
    osHwiDefaultHandler                      0x08002519   Thumb Code     6  los_hwi.o(i.osHwiDefaultHandler)
    osHwiInit                                0x08002521   Thumb Code    30  los_hwi.o(i.osHwiInit)
    osIdleTask                               0x08002551   Thumb Code     2  los_task.o(i.osIdleTask)
    osIdleTaskCreate                         0x08002555   Thumb Code    44  los_task.o(i.osIdleTaskCreate)
    osInterrupt                              0x08002595   Thumb Code    50  los_hwi.o(i.osInterrupt)
    osMain                                   0x080025d1   Thumb Code    72  los_config.o(i.osMain)
    osMemSystemInit                          0x0800283d   Thumb Code    14  los_memory.o(i.osMemSystemInit)
    osMuxInit                                0x08002855   Thumb Code    72  los_mux.o(i.osMuxInit)
    osPriqueueInit                           0x080028a9   Thumb Code    42  los_priqueue.o(i.osPriqueueInit)
    osQueueCreate                            0x080028dd   Thumb Code    88  los_queue.o(i.osQueueCreate)
    osQueueInit                              0x08002941   Thumb Code    36  los_queue.o(i.osQueueInit)
    osRegister                               0x08002a29   Thumb Code    14  los_config.o(i.osRegister)
    osSchedule                               0x08002a45   Thumb Code     4  los_hw.o(i.osSchedule)
    osSemInit                                0x08002a49   Thumb Code    68  los_sem.o(i.osSemInit)
    osSwTmrInit                              0x08002a99   Thumb Code   120  los_swtmr.o(i.osSwTmrInit)
    osSwTmrTask                              0x08002b21   Thumb Code    52  los_swtmr.o(i.osSwTmrTask)
    osSwTmrTaskCreate                        0x08002b5d   Thumb Code    48  los_swtmr.o(i.osSwTmrTaskCreate)
    osTaskAdd2TimerList                      0x08002ba1   Thumb Code   126  los_task.o(i.osTaskAdd2TimerList)
    osTaskEntry                              0x08002c25   Thumb Code   144  los_task.o(i.osTaskEntry)
    osTaskExit                               0x08002cb9   Thumb Code     4  los_hw.o(i.osTaskExit)
    osTaskInit                               0x08002cbd   Thumb Code   198  los_task.o(i.osTaskInit)
    osTaskMemUsedDec                         0x08002d91   Thumb Code    32  los_memstat.o(i.osTaskMemUsedDec)
    osTaskMemUsedInc                         0x08002dbd   Thumb Code    36  los_memstat.o(i.osTaskMemUsedInc)
    osTaskSelfDelete                         0x08002ded   Thumb Code   210  los_task.o(i.osTaskSelfDelete)
    osTickStart                              0x08002ec5   Thumb Code    54  los_hw_tick.o(i.osTickStart)
    osTimerListDelete                        0x08002f1d   Thumb Code    48  los_task.o(i.osTimerListDelete)
    osTimesliceInit                          0x08002f51   Thumb Code    12  los_timeslice.o(i.osTimesliceInit)
    osTskStackInit                           0x08002f61   Thumb Code   294  los_hw.o(i.osTskStackInit)
    setup                                    0x08003095   Thumb Code    14  proto.o(i.setup)
    E_ProError                               0x080030a8   Data           4  error_type.o(.constdata)
    E_VM_InsError                            0x080030ac   Data           4  error_type.o(.constdata)
    E_VM_InterfaceError                      0x080030b0   Data           4  error_type.o(.constdata)
    E_RunError                               0x080030b4   Data           4  error_type.o(.constdata)
    Region$$Table$$Base                      0x080030b8   Number         0  anon$$obj.o(Region$$Table)
    Region$$Table$$Limit                     0x080030d8   Number         0  anon$$obj.o(Region$$Table)
    Serial_OK                                0x20000010   Data           1  usart.o(.data)
    Serial_Data                              0x20000011   Data           1  usart.o(.data)
    ntime                                    0x20000012   Data           2  delay.o(.data)
    Running                                  0x20000014   Data           1  proto.o(.data)
    vm_status                                0x20000015   Data           1  proto.o(.data)
    CheckSum                                 0x20000016   Data           1  proto.o(.data)
    AddrH                                    0x20000018   Data           2  proto.o(.data)
    ProIndex                                 0x2000001c   Data           4  proto.o(.data)
    Number                                   0x20000020   Data           4  proto.o(.data)
    CIndex                                   0x20000024   Data           4  proto.o(.data)
    InsDisc_CurrentIndex                     0x20000028   Data           2  code_list.o(.data)
    A_s8                                     0x2000002c   Data           1  vm.o(.data)
    A_u8                                     0x2000002d   Data           1  vm.o(.data)
    B_s8                                     0x2000002e   Data           1  vm.o(.data)
    B_u8                                     0x2000002f   Data           1  vm.o(.data)
    EA                                       0x20000030   Data           1  vm.o(.data)
    isInterrupt                              0x20000031   Data           1  vm.o(.data)
    AVMParamNumber                           0x20000032   Data           1  vm.o(.data)
    InterruptAddIndex                        0x20000033   Data           1  vm.o(.data)
    InterruptReadIndex                       0x20000034   Data           1  vm.o(.data)
    VarInterruptIndex                        0x20000035   Data           1  vm.o(.data)
    WriteNotRead                             0x20000036   Data           1  vm.o(.data)
    I_DP                                     0x20000038   Data           2  vm.o(.data)
    I_TDP                                    0x2000003a   Data           2  vm.o(.data)
    I_TTDP                                   0x2000003c   Data           2  vm.o(.data)
    DP                                       0x2000003e   Data           2  vm.o(.data)
    TDP                                      0x20000040   Data           2  vm.o(.data)
    TTDP                                     0x20000042   Data           2  vm.o(.data)
    VSP                                      0x20000044   Data           2  vm.o(.data)
    A_s16                                    0x20000046   Data           2  vm.o(.data)
    A_u16                                    0x20000048   Data           2  vm.o(.data)
    B_s16                                    0x2000004a   Data           2  vm.o(.data)
    B_u16                                    0x2000004c   Data           2  vm.o(.data)
    I_A                                      0x20000050   Data           4  vm.o(.data)
    I_B                                      0x20000054   Data           4  vm.o(.data)
    PC                                       0x20000058   Data           4  vm.o(.data)
    A_s32                                    0x2000005c   Data           4  vm.o(.data)
    A_u32                                    0x20000060   Data           4  vm.o(.data)
    B_s32                                    0x20000064   Data           4  vm.o(.data)
    B_u32                                    0x20000068   Data           4  vm.o(.data)
    A                                        0x2000006c   Data           4  vm.o(.data)
    B                                        0x20000070   Data           4  vm.o(.data)
    AU                                       0x20000074   Data           4  vm.o(.data)
    BU                                       0x20000078   Data           4  vm.o(.data)
    ReadData                                 0x2000007c   Data           4  vm.o(.data)
    GPIO_InitStructure                       0x20000080   Data           8  io.o(.data)
    g_pstAllMux                              0x20000088   Data           4  los_mux.o(.data)
    g_stUnusedMuxList                        0x2000008c   Data           8  los_mux.o(.data)
    g_pstAllQueue                            0x20000094   Data           4  los_queue.o(.data)
    g_pstAllSem                              0x20000098   Data           4  los_sem.o(.data)
    g_stUnusedSemList                        0x2000009c   Data           8  los_sem.o(.data)
    g_pstLosPriorityQueueList                0x200000a4   Data           4  los_priqueue.o(.data)
    m_uwSwTmrHandlerQueue                    0x200000a8   Data           4  los_swtmr.o(.data)
    m_pstSwtmrCBArray                        0x200000ac   Data           4  los_swtmr.o(.data)
    m_pstSwtmrFreeList                       0x200000b0   Data           4  los_swtmr.o(.data)
    m_pstSwtmrSortList                       0x200000b4   Data           4  los_swtmr.o(.data)
    g_usLosTaskLock                          0x200000b8   Data           2  los_task.o(.data)
    g_pstTaskCBArray                         0x200000bc   Data           4  los_task.o(.data)
    g_uwTskMaxNum                            0x200000c0   Data           4  los_task.o(.data)
    g_uwIdleTaskID                           0x200000c4   Data           4  los_task.o(.data)
    g_uwSwtmrTaskID                          0x200000c8   Data           4  los_task.o(.data)
    g_bTaskScheduled                         0x200000cc   Data           4  los_task.o(.data)
    g_stLosTask                              0x200000d0   Data           8  los_task.o(.data)
    g_stTaskTimerList                        0x200000d8   Data           8  los_task.o(.data)
    g_stLosFreeTask                          0x200000e0   Data           8  los_task.o(.data)
    g_stTskRecyleList                        0x200000e8   Data           8  los_task.o(.data)
    g_stTskSortLink                          0x200000f0   Data           8  los_task.o(.data)
    g_ullTickCount                           0x200000f8   Data           8  los_tick.o(.data)
    g_stTaskTimeSlice                        0x20000100   Data           8  los_timeslice.o(.data)
    g_sys_mem_addr_end                       0x20000108   Data           4  los_config.o(.data)
    m_aucSysMem0                             0x2000010c   Data           4  los_config.o(.data)
    g_uwCyclesPerTick                        0x20000110   Data           4  los_hw_tick.o(.data)
    g_vuwIntCount                            0x20000114   Data           4  los_hwi.o(.data)
    m_pstHwiForm                             0x20000118   Data        1024  los_hwi.o(.vector.bss)
    rBuffer                                  0x20000518   Data         100  proto.o(.bss)
    ByteCodeBuffer                           0x2000057c   Data         256  proto.o(.bss)
    ByteCodeList                             0x2000067c   Data       30000  code_list.o(.bss)
    InterruptList                            0x20007bac   Data          20  vm.o(.bss)
    BASE                                     0x20007bc0   Data        3000  mem.o(.bss)
    GPIO_LIST                                0x20008778   Data          40  io.o(.bss)
    GPION_LIST                               0x200087a0   Data          80  io.o(.bss)
    g_ucMemStart                             0x200087f0   Data       32768  los_memory.o(.bss)
    g_TskMemUsedInfo                         0x200107f0   Data          64  los_memstat.o(.bss)
    m_aucSwTmrHandlerPool                    0x20010830   Data         208  los_swtmr.o(.bss)
    m_pstHwiSlaveForm                        0x20010900   Data        1024  los_hwi.o(.bss)
    __initial_sp                             0x20011100   Data           0  startup_stm32f411xe.o(STACK)



==============================================================================

Memory Map of the image

  Image Entry point : 0x08000199

  Load Region LR_IROM1 (Base: 0x08000000, Size: 0x000035f0, Max: 0x00080000, ABSOLUTE, COMPRESSED[0x00003100])

    Execution Region ER_IROM1 (Base: 0x08000000, Size: 0x000030d8, Max: 0x00080000, ABSOLUTE)

    Base Addr    Size         Type   Attr      Idx    E Section Name        Object

    0x08000000   0x00000198   Data   RO            3    RESET               startup_stm32f411xe.o
    0x08000198   0x00000000   Code   RO         2930  * .ARM.Collect$$$$00000000  mc_w.l(entry.o)
    0x08000198   0x00000004   Code   RO         2947    .ARM.Collect$$$$00000001  mc_w.l(entry2.o)
    0x0800019c   0x00000004   Code   RO         2950    .ARM.Collect$$$$00000004  mc_w.l(entry5.o)
    0x080001a0   0x00000000   Code   RO         2952    .ARM.Collect$$$$00000008  mc_w.l(entry7b.o)
    0x080001a0   0x00000000   Code   RO         2954    .ARM.Collect$$$$0000000A  mc_w.l(entry8b.o)
    0x080001a0   0x00000008   Code   RO         2955    .ARM.Collect$$$$0000000B  mc_w.l(entry9a.o)
    0x080001a8   0x00000000   Code   RO         2957    .ARM.Collect$$$$0000000D  mc_w.l(entry10a.o)
    0x080001a8   0x00000000   Code   RO         2959    .ARM.Collect$$$$0000000F  mc_w.l(entry11a.o)
    0x080001a8   0x00000004   Code   RO         2948    .ARM.Collect$$$$00002712  mc_w.l(entry2.o)
    0x080001ac   0x00000006   Code   RO         2880    .emb_text           los_hwi.o
    0x080001b2   0x00000002   PAD
    0x080001b4   0x00000024   Code   RO            4    .text               startup_stm32f411xe.o
    0x080001d8   0x00000000   Code   RO         2929    .text               los_dispatch.o
    0x080001d8   0x00000024   Code   RO         2937    .text               mc_w.l(memseta.o)
    0x080001fc   0x00000024   Code   RO         2968    .text               mc_w.l(init.o)
    0x08000220   0x00000056   Code   RO         2978    .text               mc_w.l(__dczerorl2.o)
    0x08000276   0x00000002   Code   RO          903    i.BusFault_Handler  stm32f4xx_it.o
    0x08000278   0x00000018   Code   RO         1209    i.CODE_AddIns       code_list.o
    0x08000290   0x00000002   Code   RO         1210    i.CODE_Load         code_list.o
    0x08000292   0x00000002   PAD
    0x08000294   0x0000000c   Code   RO         1211    i.CODE_ReadIns      code_list.o
    0x080002a0   0x00000002   Code   RO         1212    i.CODE_Save         code_list.o
    0x080002a2   0x00000002   PAD
    0x080002a4   0x0000000c   Code   RO         1213    i.CODE_Start        code_list.o
    0x080002b0   0x00000024   Code   RO         1104    i.Check             proto.o
    0x080002d4   0x00000068   Code   RO         1105    i.Deal              proto.o
    0x0800033c   0x0000005c   Code   RO         1249    i.DealInterface     vm.o
    0x08000398   0x00000002   Code   RO          904    i.DebugMon_Handler  stm32f4xx_it.o
    0x0800039a   0x0000001c   Code   RO         1106    i.Error             proto.o
    0x080003b6   0x00000078   Code   RO          187    i.GPIO_Init         stm32f4xx_gpio.o
    0x0800042e   0x00000020   Code   RO          188    i.GPIO_PinAFConfig  stm32f4xx_gpio.o
    0x0800044e   0x0000000e   Code   RO          191    i.GPIO_ReadInputDataBit  stm32f4xx_gpio.o
    0x0800045c   0x0000000e   Code   RO          193    i.GPIO_ReadOutputDataBit  stm32f4xx_gpio.o
    0x0800046a   0x00000004   Code   RO          194    i.GPIO_ResetBits    stm32f4xx_gpio.o
    0x0800046e   0x00000004   Code   RO          195    i.GPIO_SetBits      stm32f4xx_gpio.o
    0x08000472   0x00000002   Code   RO          905    i.HardFault_Handler  stm32f4xx_it.o
    0x08000474   0x00000002   Code   RO         1676    i.IO_AnalogOpen     io.o
    0x08000476   0x00000004   Code   RO         1677    i.IO_AnalogRead     io.o
    0x0800047a   0x00000002   PAD
    0x0800047c   0x00000028   Code   RO         1679    i.IO_DirWrite       io.o
    0x080004a4   0x00000018   Code   RO         1680    i.IO_InRead         io.o
    0x080004bc   0x000000d4   Code   RO         1681    i.IO_Init           io.o
    0x08000590   0x00000018   Code   RO         1682    i.IO_OutRead        io.o
    0x080005a8   0x00000020   Code   RO         1683    i.IO_OutWrite       io.o
    0x080005c8   0x00000002   Code   RO         1684    i.IO_PullWrite      io.o
    0x080005ca   0x00000014   Code   RO         1749    i.LOS_Align         los_misc.o
    0x080005de   0x00000010   Code   RO         1999    i.LOS_DLnkInitMultiHead  los_multipledlinkhead.o
    0x080005ee   0x00000020   Code   RO         2000    i.LOS_DLnkMultiHead  los_multipledlinkhead.o
    0x0800060e   0x0000000e   Code   RO         1847    i.LOS_ListAdd       los_memory.o
    0x0800061c   0x0000000e   Code   RO         2102    i.LOS_ListAdd       los_mux.o
    0x0800062a   0x0000000e   Code   RO         2168    i.LOS_ListAdd       los_queue.o
    0x08000638   0x0000000e   Code   RO         2254    i.LOS_ListAdd       los_sem.o
    0x08000646   0x0000000e   Code   RO         2541    i.LOS_ListAdd       los_task.o
    0x08000654   0x00000014   Code   RO         1848    i.LOS_ListDelete    los_memory.o
    0x08000668   0x00000014   Code   RO         2255    i.LOS_ListDelete    los_sem.o
    0x0800067c   0x00000014   Code   RO         2542    i.LOS_ListDelete    los_task.o
    0x08000690   0x0000000e   Code   RO         2169    i.LOS_ListEmpty     los_queue.o
    0x0800069e   0x0000000e   Code   RO         2256    i.LOS_ListEmpty     los_sem.o
    0x080006ac   0x0000000e   Code   RO         2543    i.LOS_ListEmpty     los_task.o
    0x080006ba   0x00000006   Code   RO         2544    i.LOS_ListTailInsert  los_task.o
    0x080006c0   0x00000120   Code   RO         2001    i.LOS_Log2          los_multipledlinkhead.o
    0x080007e0   0x0000002c   Code   RO         1849    i.LOS_MemAlloc      los_memory.o
    0x0800080c   0x00000048   Code   RO         1850    i.LOS_MemAllocAlign  los_memory.o
    0x08000854   0x00000044   Code   RO         1851    i.LOS_MemFree       los_memory.o
    0x08000898   0x00000074   Code   RO         1852    i.LOS_MemInit       los_memory.o
    0x0800090c   0x00000060   Code   RO         1807    i.LOS_MemboxFree    los_membox.o
    0x0800096c   0x0000005e   Code   RO         1808    i.LOS_MemboxInit    los_membox.o
    0x080009ca   0x00000014   Code   RO         2317    i.LOS_PriqueueDequeue  los_priqueue.o
    0x080009de   0x00000002   PAD
    0x080009e0   0x0000001c   Code   RO         2318    i.LOS_PriqueueEnqueue  los_priqueue.o
    0x080009fc   0x00000028   Code   RO         2320    i.LOS_PriqueueTop   los_priqueue.o
    0x08000a24   0x00000074   Code   RO         2170    i.LOS_QueueCreate   los_queue.o
    0x08000a98   0x00000118   Code   RO         2172    i.LOS_QueueRead     los_queue.o
    0x08000bb0   0x00000040   Code   RO         2829    i.LOS_Schedule      los_hw.o
    0x08000bf0   0x000000a8   Code   RO         2260    i.LOS_SemPost       los_sem.o
    0x08000c98   0x00000012   Code   RO         2770    i.LOS_Start         los_config.o
    0x08000caa   0x00000002   PAD
    0x08000cac   0x00000070   Code   RO         2545    i.LOS_TaskCreate    los_task.o
    0x08000d1c   0x0000015c   Code   RO         2546    i.LOS_TaskCreateOnly  los_task.o
    0x08000e78   0x0000001c   Code   RO         2549    i.LOS_TaskLock      los_task.o
    0x08000e94   0x00000030   Code   RO         2554    i.LOS_TaskUnlock    los_task.o
    0x08000ec4   0x0000001c   Code   RO         1107    i.LoadAndRun        proto.o
    0x08000ee0   0x00000002   Code   RO          906    i.MemManage_Handler  stm32f4xx_it.o
    0x08000ee2   0x00000002   PAD
    0x08000ee4   0x0000001c   Code   RO         1547    i.Mem_Clear         mem.o
    0x08000f00   0x00000020   Code   RO         1548    i.Mem_GetCode_uint16  mem.o
    0x08000f20   0x00000030   Code   RO         1549    i.Mem_GetCode_uint32  mem.o
    0x08000f50   0x00000004   Code   RO         1550    i.Mem_GetCode_uint8  mem.o
    0x08000f54   0x0000001c   Code   RO         1551    i.Mem_Get_int16     mem.o
    0x08000f70   0x00000020   Code   RO         1552    i.Mem_Get_int32     mem.o
    0x08000f90   0x0000000c   Code   RO         1553    i.Mem_Get_int8      mem.o
    0x08000f9c   0x0000001c   Code   RO         1554    i.Mem_Get_uint16    mem.o
    0x08000fb8   0x00000018   Code   RO         1555    i.Mem_Get_uint24    mem.o
    0x08000fd0   0x00000020   Code   RO         1556    i.Mem_Get_uint32    mem.o
    0x08000ff0   0x0000000c   Code   RO         1557    i.Mem_Get_uint8     mem.o
    0x08000ffc   0x00000010   Code   RO         1558    i.Mem_Set_int16     mem.o
    0x0800100c   0x00000018   Code   RO         1559    i.Mem_Set_int32     mem.o
    0x08001024   0x0000000c   Code   RO         1560    i.Mem_Set_int8      mem.o
    0x08001030   0x00000010   Code   RO         1561    i.Mem_Set_uint16    mem.o
    0x08001040   0x00000018   Code   RO         1562    i.Mem_Set_uint32    mem.o
    0x08001058   0x0000000c   Code   RO         1563    i.Mem_Set_uint8     mem.o
    0x08001064   0x00000002   Code   RO          907    i.NMI_Handler       stm32f4xx_it.o
    0x08001066   0x00000002   PAD
    0x08001068   0x00000064   Code   RO          134    i.NVIC_Init         misc.o
    0x080010cc   0x00000002   Code   RO          908    i.PendSV_Handler    stm32f4xx_it.o
    0x080010ce   0x00000002   PAD
    0x080010d0   0x00000018   Code   RO          288    i.RCC_AHB1PeriphClockCmd  stm32f4xx_rcc.o
    0x080010e8   0x00000018   Code   RO          297    i.RCC_APB1PeriphClockCmd  stm32f4xx_rcc.o
    0x08001100   0x00000090   Code   RO          309    i.RCC_GetClocksFreq  stm32f4xx_rcc.o
    0x08001190   0x00000040   Code   RO         1250    i.REMO_DataChannelRead  vm.o
    0x080011d0   0x00000044   Code   RO         1251    i.REMO_DataChannelWrite  vm.o
    0x08001214   0x00000040   Code   RO         1109    i.Read              proto.o
    0x08001254   0x00000034   Code   RO         1252    i.ReadConstValue    vm.o
    0x08001288   0x00000034   Code   RO         1253    i.ReadInsAddrValue  vm.o
    0x080012bc   0x00000034   Code   RO         1254    i.ReadInterfaceValue  vm.o
    0x080012f0   0x00000034   Code   RO         1255    i.ReadSubValueValue  vm.o
    0x08001324   0x00000018   Code   RO         1256    i.ReadSys_int16     vm.o
    0x0800133c   0x00000018   Code   RO         1258    i.ReadSys_int8      vm.o
    0x08001354   0x00000034   Code   RO         1259    i.ReadVarAddrValue  vm.o
    0x08001388   0x000000b4   Code   RO         1110    i.RunIns            proto.o
    0x0800143c   0x00000002   Code   RO          909    i.SVC_Handler       stm32f4xx_it.o
    0x0800143e   0x00000002   PAD
    0x08001440   0x000000bc   Code   RO          979    i.Serial_Init       usart.o
    0x080014fc   0x00000020   Code   RO          981    i.Serial_write      usart.o
    0x0800151c   0x00000034   Code   RO         1112    i.SetAddr           proto.o
    0x08001550   0x00000074   Code   RO           13    i.SetSysClock       system_stm32f4xx.o
    0x080015c4   0x00000064   Code   RO         1113    i.Store             proto.o
    0x08001628   0x0000002c   Code   RO         1044    i.SysTick_Config    delay.o
    0x08001654   0x00000010   Code   RO          910    i.SysTick_Handler   stm32f4xx_it.o
    0x08001664   0x0000005c   Code   RO           15    i.SystemInit        system_stm32f4xx.o
    0x080016c0   0x0000000c   Code   RO         1045    i.Timer_Init        delay.o
    0x080016cc   0x00000014   Code   RO         1046    i.Timer_SetTimeMs   delay.o
    0x080016e0   0x00000024   Code   RO         1047    i.Timer_delay_ms    delay.o
    0x08001704   0x00000014   Code   RO         1049    i.Timer_isTimeOut   delay.o
    0x08001718   0x0000003c   Code   RO          982    i.USART2_IRQHandler  usart.o
    0x08001754   0x00000006   Code   RO          626    i.USART_ClearFlag   stm32f4xx_usart.o
    0x0800175a   0x00000014   Code   RO          630    i.USART_Cmd         stm32f4xx_usart.o
    0x0800176e   0x0000000e   Code   RO          633    i.USART_GetFlagStatus  stm32f4xx_usart.o
    0x0800177c   0x0000003e   Code   RO          634    i.USART_GetITStatus  stm32f4xx_usart.o
    0x080017ba   0x00000030   Code   RO          636    i.USART_ITConfig    stm32f4xx_usart.o
    0x080017ea   0x00000002   PAD
    0x080017ec   0x000000ac   Code   RO          637    i.USART_Init        stm32f4xx_usart.o
    0x08001898   0x00000008   Code   RO          644    i.USART_ReceiveData  stm32f4xx_usart.o
    0x080018a0   0x00000002   Code   RO          911    i.UsageFault_Handler  stm32f4xx_it.o
    0x080018a2   0x00000002   PAD
    0x080018a4   0x00000024   Code   RO         1260    i.VM_AddInterruptEvent  vm.o
    0x080018c8   0x0000000c   Code   RO         1261    i.VM_ClearSysValue  vm.o
    0x080018d4   0x00000054   Code   RO         1262    i.VM_Reset          vm.o
    0x08001928   0x00000b48   Code   RO         1263    i.VM_Run            vm.o
    0x08002470   0x0000000e   Code   RO         2972    i.__scatterload_copy  mc_w.l(handlers.o)
    0x0800247e   0x00000002   Code   RO         2973    i.__scatterload_null  mc_w.l(handlers.o)
    0x08002480   0x0000000e   Code   RO         2974    i.__scatterload_zeroinit  mc_w.l(handlers.o)
    0x0800248e   0x00000002   PAD
    0x08002490   0x00000030   Code   RO         1114    i.loop              proto.o
    0x080024c0   0x00000016   Code   RO         2771    i.main              los_config.o
    0x080024d6   0x00000002   PAD
    0x080024d8   0x00000040   Code   RO          818    i.myTask            main.o
    0x08002518   0x00000006   Code   RO         2883    i.osHwiDefaultHandler  los_hwi.o
    0x0800251e   0x00000002   PAD
    0x08002520   0x00000030   Code   RO         2884    i.osHwiInit         los_hwi.o
    0x08002550   0x00000002   Code   RO         2556    i.osIdleTask        los_task.o
    0x08002552   0x00000002   PAD
    0x08002554   0x00000040   Code   RO         2557    i.osIdleTaskCreate  los_task.o
    0x08002594   0x0000003c   Code   RO         2885    i.osInterrupt       los_hwi.o
    0x080025d0   0x00000048   Code   RO         2774    i.osMain            los_config.o
    0x08002618   0x00000078   Code   RO         1854    i.osMemAllocWithCheck  los_memory.o
    0x08002690   0x00000078   Code   RO         1855    i.osMemCheckUsedNode  los_memory.o
    0x08002708   0x00000086   Code   RO         1856    i.osMemFreeNode     los_memory.o
    0x0800278e   0x0000002e   Code   RO         1857    i.osMemIsNodeValid  los_memory.o
    0x080027bc   0x0000001c   Code   RO         1858    i.osMemMergeNode    los_memory.o
    0x080027d8   0x0000001c   Code   RO         1859    i.osMemSetMagicNumAndTaskid  los_memory.o
    0x080027f4   0x00000046   Code   RO         1860    i.osMemSpitNode     los_memory.o
    0x0800283a   0x00000002   PAD
    0x0800283c   0x00000018   Code   RO         1861    i.osMemSystemInit   los_memory.o
    0x08002854   0x00000054   Code   RO         2109    i.osMuxInit         los_mux.o
    0x080028a8   0x00000034   Code   RO         2322    i.osPriqueueInit    los_priqueue.o
    0x080028dc   0x00000064   Code   RO         2174    i.osQueueCreate     los_queue.o
    0x08002940   0x00000030   Code   RO         2175    i.osQueueInit       los_queue.o
    0x08002970   0x00000068   Code   RO         2178    i.osQueuePend       los_queue.o
    0x080029d8   0x00000050   Code   RO         2179    i.osQueueWakeUp     los_queue.o
    0x08002a28   0x0000001c   Code   RO         2775    i.osRegister        los_config.o
    0x08002a44   0x00000004   Code   RO         2830    i.osSchedule        los_hw.o
    0x08002a48   0x00000050   Code   RO         2261    i.osSemInit         los_sem.o
    0x08002a98   0x00000088   Code   RO         2371    i.osSwTmrInit       los_swtmr.o
    0x08002b20   0x0000003c   Code   RO         2373    i.osSwTmrTask       los_swtmr.o
    0x08002b5c   0x00000044   Code   RO         2374    i.osSwTmrTaskCreate  los_swtmr.o
    0x08002ba0   0x00000084   Code   RO         2558    i.osTaskAdd2TimerList  los_task.o
    0x08002c24   0x00000094   Code   RO         2559    i.osTaskEntry       los_task.o
    0x08002cb8   0x00000004   Code   RO         2831    i.osTaskExit        los_hw.o
    0x08002cbc   0x000000d4   Code   RO         2560    i.osTaskInit        los_task.o
    0x08002d90   0x0000002c   Code   RO         1970    i.osTaskMemUsedDec  los_memstat.o
    0x08002dbc   0x00000030   Code   RO         1971    i.osTaskMemUsedInc  los_memstat.o
    0x08002dec   0x000000d8   Code   RO         2563    i.osTaskSelfDelete  los_task.o
    0x08002ec4   0x00000058   Code   RO         2860    i.osTickStart       los_hw_tick.o
    0x08002f1c   0x00000034   Code   RO         2564    i.osTimerListDelete  los_task.o
    0x08002f50   0x00000010   Code   RO         2746    i.osTimesliceInit   los_timeslice.o
    0x08002f60   0x00000134   Code   RO         2832    i.osTskStackInit    los_hw.o
    0x08003094   0x00000014   Code   RO         1115    i.setup             proto.o
    0x080030a8   0x00000004   Data   RO         1661    .constdata          error_type.o
    0x080030ac   0x00000004   Data   RO         1662    .constdata          error_type.o
    0x080030b0   0x00000004   Data   RO         1663    .constdata          error_type.o
    0x080030b4   0x00000004   Data   RO         1664    .constdata          error_type.o
    0x080030b8   0x00000020   Data   RO         2970    Region$$Table       anon$$obj.o


    Execution Region RW_IRAM1 (Base: 0x20000000, Size: 0x00011100, Max: 0x00020000, ABSOLUTE, COMPRESSED[0x00000028])

    Base Addr    Size         Type   Attr      Idx    E Section Name        Object

    0x20000000   0x00000010   Data   RW          341    .data               stm32f4xx_rcc.o
    0x20000010   0x00000002   Data   RW          985    .data               usart.o
    0x20000012   0x00000002   Data   RW         1050    .data               delay.o
    0x20000014   0x00000014   Data   RW         1122    .data               proto.o
    0x20000028   0x00000002   Data   RW         1215    .data               code_list.o
    0x2000002a   0x00000002   PAD
    0x2000002c   0x00000054   Data   RW         1458    .data               vm.o
    0x20000080   0x00000008   Data   RW         1686    .data               io.o
    0x20000088   0x0000000c   Data   RW         2110    .data               los_mux.o
    0x20000094   0x00000004   Data   RW         2180    .data               los_queue.o
    0x20000098   0x0000000c   Data   RW         2262    .data               los_sem.o
    0x200000a4   0x00000004   Data   RW         2323    .data               los_priqueue.o
    0x200000a8   0x00000010   Data   RW         2380    .data               los_swtmr.o
    0x200000b8   0x00000040   Data   RW         2566    .data               los_task.o
    0x200000f8   0x00000008   Data   RW         2716    .data               los_tick.o
    0x20000100   0x00000008   Data   RW         2747    .data               los_timeslice.o
    0x20000108   0x00000004   Data   RW         2776    .data               los_config.o
    0x2000010c   0x00000004   Data   RW         2777    .data               los_config.o
    0x20000110   0x00000004   Data   RW         2861    .data               los_hw_tick.o
    0x20000114   0x00000004   Data   RW         2887    .data               los_hwi.o
    0x20000118   0x00000400   Data   RW         2888    .vector.bss         los_hwi.o
    0x20000518   0x00000164   Zero   RW         1116    .bss                proto.o
    0x2000067c   0x00007530   Zero   RW         1214    .bss                code_list.o
    0x20007bac   0x00000014   Zero   RW         1264    .bss                vm.o
    0x20007bc0   0x00000bb8   Zero   RW         1564    .bss                mem.o
    0x20008778   0x00000078   Zero   RW         1685    .bss                io.o
    0x200087f0   0x00008000   Zero   RW         1862    .bss                los_memory.o
    0x200107f0   0x00000040   Zero   RW         1972    .bss                los_memstat.o
    0x20010830   0x000000d0   Zero   RW         2379    .bss                los_swtmr.o
    0x20010900   0x00000400   Zero   RW         2886    .bss                los_hwi.o
    0x20010d00   0x00000400   Zero   RW            1    STACK               startup_stm32f411xe.o


==============================================================================

Image component sizes


      Code (inc. data)   RO Data    RW Data    ZI Data      Debug   Object Name

        52         20          0          2      30000       3006   code_list.o
       132         36          0          2          0      29469   delay.o
         0          0         16          0          0        666   error_type.o
       340         46          0          8        120       4704   io.o
       140         14          0          8          0       3530   los_config.o
         0          0          0          0          0          0   los_dispatch.o
         0          0          0          0          0       9768   los_event.o
       380         24          0          0          0       3170   los_hw.o
        88         34          0          4          0        894   los_hw_tick.o
       120         28          0       1028       1024       5854   los_hwi.o
       190          6          0          0          0       3602   los_membox.o
       904         20          0          0      32768      14488   los_memory.o
        92         24          0          0         64       2017   los_memstat.o
        20          0          0          0          0      10276   los_misc.o
       336          6          0          0          0       5620   los_multipledlinkhead.o
        98         12          0         12          0       2784   los_mux.o
       140         22          0          4          0       3758   los_priqueue.o
       756         52          0          4          0       7976   los_queue.o
       296         20          0         12          0       4718   los_sem.o
       264         44          0         16        208       5982   los_swtmr.o
      1416         88          0         64          0      15382   los_task.o
         0          0          0          8          0        369   los_tick.o
        16          4          0          8          0        822   los_timeslice.o
        64          4          0          0          0       2065   main.o
       384         70          0          0       3000       9372   mem.o
       100          4          0          0          0        968   misc.o
       660         68          0         20        356       7151   proto.o
        36          8        408          0       1024        880   startup_stm32f411xe.o
       188          0          0          0          0       3952   stm32f4xx_gpio.o
        32          6          0          0          0       4342   stm32f4xx_it.o
       192         24          0         16          0       4042   stm32f4xx_rcc.o
       330          8          0          0          0       5162   stm32f4xx_usart.o
       208         36          0          0          0     231549   system_stm32f4xx.o
       280         26          0          2          0       3765   usart.o
      3552        988          0         84         20      23125   vm.o

    ----------------------------------------------------------------------
     11838       1742        456       1304      68584     435228   Object Totals
         0          0         32          0          0          0   (incl. Generated)
        32          0          0          2          0          0   (incl. Padding)

    ----------------------------------------------------------------------

      Code (inc. data)   RO Data    RW Data    ZI Data      Debug   Library Member Name

        86          0          0          0          0          0   __dczerorl2.o
         0          0          0          0          0          0   entry.o
         0          0          0          0          0          0   entry10a.o
         0          0          0          0          0          0   entry11a.o
         8          4          0          0          0          0   entry2.o
         4          0          0          0          0          0   entry5.o
         0          0          0          0          0          0   entry7b.o
         0          0          0          0          0          0   entry8b.o
         8          4          0          0          0          0   entry9a.o
        30          0          0          0          0          0   handlers.o
        36          8          0          0          0         68   init.o
        36          0          0          0          0        108   memseta.o

    ----------------------------------------------------------------------
       210         16          0          0          0        176   Library Totals
         2          0          0          0          0          0   (incl. Padding)

    ----------------------------------------------------------------------

      Code (inc. data)   RO Data    RW Data    ZI Data      Debug   Library Name

       208         16          0          0          0        176   mc_w.l

    ----------------------------------------------------------------------
       210         16          0          0          0        176   Library Totals

    ----------------------------------------------------------------------

==============================================================================


      Code (inc. data)   RO Data    RW Data    ZI Data      Debug   

     12048       1758        456       1304      68584     419988   Grand Totals
     12048       1758        456         40      68584     419988   ELF Image Totals (compressed)
     12048       1758        456         40          0          0   ROM Totals

==============================================================================

    Total RO  Size (Code + RO Data)                12504 (  12.21kB)
    Total RW  Size (RW Data + ZI Data)             69888 (  68.25kB)
    Total ROM Size (Code + RO Data + RW Data)      12544 (  12.25kB)

==============================================================================

