Component: ARM Compiler 5.06 update 4 (build 422) Tool: armlink [4d35d2]

==============================================================================

Section Cross References

    startup_stm32f10x_md.o(RESET) refers to startup_stm32f10x_md.o(STACK) for __initial_sp
    startup_stm32f10x_md.o(RESET) refers to startup_stm32f10x_md.o(.text) for Reset_Handler
    startup_stm32f10x_md.o(RESET) refers to stm32f10x_it.o(i.NMI_Handler) for NMI_Handler
    startup_stm32f10x_md.o(RESET) refers to stm32f10x_it.o(i.HardFault_Handler) for HardFault_Handler
    startup_stm32f10x_md.o(RESET) refers to stm32f10x_it.o(i.MemManage_Handler) for MemManage_Handler
    startup_stm32f10x_md.o(RESET) refers to stm32f10x_it.o(i.BusFault_Handler) for BusFault_Handler
    startup_stm32f10x_md.o(RESET) refers to stm32f10x_it.o(i.UsageFault_Handler) for UsageFault_Handler
    startup_stm32f10x_md.o(RESET) refers to stm32f10x_it.o(i.SVC_Handler) for SVC_Handler
    startup_stm32f10x_md.o(RESET) refers to stm32f10x_it.o(i.DebugMon_Handler) for DebugMon_Handler
    startup_stm32f10x_md.o(RESET) refers to los_dispatch.o(KERNEL) for PendSV_Handler
    startup_stm32f10x_md.o(RESET) refers to los_tick.o(i.SysTick_Handler) for SysTick_Handler
    startup_stm32f10x_md.o(RESET) refers to usart.o(i.USART1_IRQHandler) for USART1_IRQHandler
    startup_stm32f10x_md.o(RESET) refers to usart2.o(i.USART2_IRQHandler) for USART2_IRQHandler
    startup_stm32f10x_md.o(.text) refers to system_stm32f10x.o(i.SystemInit) for SystemInit
    startup_stm32f10x_md.o(.text) refers to entry.o(.ARM.Collect$$$$00000000) for __main
    system_stm32f10x.o(i.SetSysClock) refers to system_stm32f10x.o(i.SetSysClockTo72) for SetSysClockTo72
    system_stm32f10x.o(i.SystemCoreClockUpdate) refers to system_stm32f10x.o(.data) for SystemCoreClock
    system_stm32f10x.o(i.SystemInit) refers to system_stm32f10x.o(i.SetSysClock) for SetSysClock
    stm32f10x_adc.o(i.ADC_DeInit) refers to stm32f10x_rcc.o(i.RCC_APB2PeriphResetCmd) for RCC_APB2PeriphResetCmd
    stm32f10x_bkp.o(i.BKP_DeInit) refers to stm32f10x_rcc.o(i.RCC_BackupResetCmd) for RCC_BackupResetCmd
    stm32f10x_can.o(i.CAN_DeInit) refers to stm32f10x_rcc.o(i.RCC_APB1PeriphResetCmd) for RCC_APB1PeriphResetCmd
    stm32f10x_can.o(i.CAN_GetITStatus) refers to stm32f10x_can.o(i.CheckITStatus) for CheckITStatus
    stm32f10x_cec.o(i.CEC_DeInit) refers to stm32f10x_rcc.o(i.RCC_APB1PeriphResetCmd) for RCC_APB1PeriphResetCmd
    stm32f10x_dac.o(i.DAC_DeInit) refers to stm32f10x_rcc.o(i.RCC_APB1PeriphResetCmd) for RCC_APB1PeriphResetCmd
    stm32f10x_flash.o(i.FLASH_EnableWriteProtection) refers to stm32f10x_flash.o(i.FLASH_WaitForLastOperation) for FLASH_WaitForLastOperation
    stm32f10x_flash.o(i.FLASH_EraseAllBank1Pages) refers to stm32f10x_flash.o(i.FLASH_WaitForLastBank1Operation) for FLASH_WaitForLastBank1Operation
    stm32f10x_flash.o(i.FLASH_EraseAllPages) refers to stm32f10x_flash.o(i.FLASH_WaitForLastOperation) for FLASH_WaitForLastOperation
    stm32f10x_flash.o(i.FLASH_EraseOptionBytes) refers to stm32f10x_flash.o(i.FLASH_GetReadOutProtectionStatus) for FLASH_GetReadOutProtectionStatus
    stm32f10x_flash.o(i.FLASH_EraseOptionBytes) refers to stm32f10x_flash.o(i.FLASH_WaitForLastOperation) for FLASH_WaitForLastOperation
    stm32f10x_flash.o(i.FLASH_ErasePage) refers to stm32f10x_flash.o(i.FLASH_WaitForLastOperation) for FLASH_WaitForLastOperation
    stm32f10x_flash.o(i.FLASH_ProgramHalfWord) refers to stm32f10x_flash.o(i.FLASH_WaitForLastOperation) for FLASH_WaitForLastOperation
    stm32f10x_flash.o(i.FLASH_ProgramOptionByteData) refers to stm32f10x_flash.o(i.FLASH_WaitForLastOperation) for FLASH_WaitForLastOperation
    stm32f10x_flash.o(i.FLASH_ProgramWord) refers to stm32f10x_flash.o(i.FLASH_WaitForLastOperation) for FLASH_WaitForLastOperation
    stm32f10x_flash.o(i.FLASH_ReadOutProtection) refers to stm32f10x_flash.o(i.FLASH_WaitForLastOperation) for FLASH_WaitForLastOperation
    stm32f10x_flash.o(i.FLASH_UserOptionByteConfig) refers to stm32f10x_flash.o(i.FLASH_WaitForLastOperation) for FLASH_WaitForLastOperation
    stm32f10x_flash.o(i.FLASH_WaitForLastBank1Operation) refers to stm32f10x_flash.o(i.FLASH_GetBank1Status) for FLASH_GetBank1Status
    stm32f10x_flash.o(i.FLASH_WaitForLastOperation) refers to stm32f10x_flash.o(i.FLASH_GetBank1Status) for FLASH_GetBank1Status
    stm32f10x_gpio.o(i.GPIO_AFIODeInit) refers to stm32f10x_rcc.o(i.RCC_APB2PeriphResetCmd) for RCC_APB2PeriphResetCmd
    stm32f10x_gpio.o(i.GPIO_DeInit) refers to stm32f10x_rcc.o(i.RCC_APB2PeriphResetCmd) for RCC_APB2PeriphResetCmd
    stm32f10x_i2c.o(i.I2C_DeInit) refers to stm32f10x_rcc.o(i.RCC_APB1PeriphResetCmd) for RCC_APB1PeriphResetCmd
    stm32f10x_i2c.o(i.I2C_Init) refers to stm32f10x_rcc.o(i.RCC_GetClocksFreq) for RCC_GetClocksFreq
    stm32f10x_pwr.o(i.PWR_DeInit) refers to stm32f10x_rcc.o(i.RCC_APB1PeriphResetCmd) for RCC_APB1PeriphResetCmd
    stm32f10x_rcc.o(i.RCC_GetClocksFreq) refers to stm32f10x_rcc.o(.data) for APBAHBPrescTable
    stm32f10x_rcc.o(i.RCC_WaitForHSEStartUp) refers to stm32f10x_rcc.o(i.RCC_GetFlagStatus) for RCC_GetFlagStatus
    stm32f10x_rtc.o(i.RTC_SetAlarm) refers to stm32f10x_rtc.o(i.RTC_EnterConfigMode) for RTC_EnterConfigMode
    stm32f10x_rtc.o(i.RTC_SetAlarm) refers to stm32f10x_rtc.o(i.RTC_ExitConfigMode) for RTC_ExitConfigMode
    stm32f10x_rtc.o(i.RTC_SetCounter) refers to stm32f10x_rtc.o(i.RTC_EnterConfigMode) for RTC_EnterConfigMode
    stm32f10x_rtc.o(i.RTC_SetCounter) refers to stm32f10x_rtc.o(i.RTC_ExitConfigMode) for RTC_ExitConfigMode
    stm32f10x_rtc.o(i.RTC_SetPrescaler) refers to stm32f10x_rtc.o(i.RTC_EnterConfigMode) for RTC_EnterConfigMode
    stm32f10x_rtc.o(i.RTC_SetPrescaler) refers to stm32f10x_rtc.o(i.RTC_ExitConfigMode) for RTC_ExitConfigMode
    stm32f10x_spi.o(i.I2S_Init) refers to stm32f10x_rcc.o(i.RCC_GetClocksFreq) for RCC_GetClocksFreq
    stm32f10x_spi.o(i.SPI_I2S_DeInit) refers to stm32f10x_rcc.o(i.RCC_APB2PeriphResetCmd) for RCC_APB2PeriphResetCmd
    stm32f10x_spi.o(i.SPI_I2S_DeInit) refers to stm32f10x_rcc.o(i.RCC_APB1PeriphResetCmd) for RCC_APB1PeriphResetCmd
    stm32f10x_tim.o(i.TIM_DeInit) refers to stm32f10x_rcc.o(i.RCC_APB2PeriphResetCmd) for RCC_APB2PeriphResetCmd
    stm32f10x_tim.o(i.TIM_DeInit) refers to stm32f10x_rcc.o(i.RCC_APB1PeriphResetCmd) for RCC_APB1PeriphResetCmd
    stm32f10x_tim.o(i.TIM_ETRClockMode1Config) refers to stm32f10x_tim.o(i.TIM_ETRConfig) for TIM_ETRConfig
    stm32f10x_tim.o(i.TIM_ETRClockMode2Config) refers to stm32f10x_tim.o(i.TIM_ETRConfig) for TIM_ETRConfig
    stm32f10x_tim.o(i.TIM_ICInit) refers to stm32f10x_tim.o(i.TI1_Config) for TI1_Config
    stm32f10x_tim.o(i.TIM_ICInit) refers to stm32f10x_tim.o(i.TIM_SetIC1Prescaler) for TIM_SetIC1Prescaler
    stm32f10x_tim.o(i.TIM_ICInit) refers to stm32f10x_tim.o(i.TI2_Config) for TI2_Config
    stm32f10x_tim.o(i.TIM_ICInit) refers to stm32f10x_tim.o(i.TIM_SetIC2Prescaler) for TIM_SetIC2Prescaler
    stm32f10x_tim.o(i.TIM_ICInit) refers to stm32f10x_tim.o(i.TI3_Config) for TI3_Config
    stm32f10x_tim.o(i.TIM_ICInit) refers to stm32f10x_tim.o(i.TIM_SetIC3Prescaler) for TIM_SetIC3Prescaler
    stm32f10x_tim.o(i.TIM_ICInit) refers to stm32f10x_tim.o(i.TI4_Config) for TI4_Config
    stm32f10x_tim.o(i.TIM_ICInit) refers to stm32f10x_tim.o(i.TIM_SetIC4Prescaler) for TIM_SetIC4Prescaler
    stm32f10x_tim.o(i.TIM_ITRxExternalClockConfig) refers to stm32f10x_tim.o(i.TIM_SelectInputTrigger) for TIM_SelectInputTrigger
    stm32f10x_tim.o(i.TIM_PWMIConfig) refers to stm32f10x_tim.o(i.TI1_Config) for TI1_Config
    stm32f10x_tim.o(i.TIM_PWMIConfig) refers to stm32f10x_tim.o(i.TIM_SetIC1Prescaler) for TIM_SetIC1Prescaler
    stm32f10x_tim.o(i.TIM_PWMIConfig) refers to stm32f10x_tim.o(i.TI2_Config) for TI2_Config
    stm32f10x_tim.o(i.TIM_PWMIConfig) refers to stm32f10x_tim.o(i.TIM_SetIC2Prescaler) for TIM_SetIC2Prescaler
    stm32f10x_tim.o(i.TIM_TIxExternalClockConfig) refers to stm32f10x_tim.o(i.TI2_Config) for TI2_Config
    stm32f10x_tim.o(i.TIM_TIxExternalClockConfig) refers to stm32f10x_tim.o(i.TI1_Config) for TI1_Config
    stm32f10x_tim.o(i.TIM_TIxExternalClockConfig) refers to stm32f10x_tim.o(i.TIM_SelectInputTrigger) for TIM_SelectInputTrigger
    stm32f10x_usart.o(i.USART_DeInit) refers to stm32f10x_rcc.o(i.RCC_APB2PeriphResetCmd) for RCC_APB2PeriphResetCmd
    stm32f10x_usart.o(i.USART_DeInit) refers to stm32f10x_rcc.o(i.RCC_APB1PeriphResetCmd) for RCC_APB1PeriphResetCmd
    stm32f10x_usart.o(i.USART_Init) refers to stm32f10x_rcc.o(i.RCC_GetClocksFreq) for RCC_GetClocksFreq
    stm32f10x_wwdg.o(i.WWDG_DeInit) refers to stm32f10x_rcc.o(i.RCC_APB1PeriphResetCmd) for RCC_APB1PeriphResetCmd
    main.o(i.hardware_init) refers to mcu_init.o(i.RCC_Configuration) for RCC_Configuration
    main.o(i.hardware_init) refers to mcu_init.o(i.NVIC_Configuration) for NVIC_Configuration
    main.o(i.hardware_init) refers to ult.o(i.Systick_Init) for Systick_Init
    main.o(i.hardware_init) refers to usart2.o(i.usart2_init) for usart2_init
    main.o(i.hardware_init) refers to usart.o(i.usart1_init) for usart1_init
    main.o(i.hardware_init) refers to sht10.o(i.sht10_init) for sht10_init
    main.o(i.osAppInit) refers to main.o(i.hardware_init) for hardware_init
    main.o(i.osAppInit) refers to mqtt_task.o(i.usr_umqtt_init) for usr_umqtt_init
    main.o(i.osAppInit) refers to main.o(i.Delay) for Delay
    main.o(i.osAppInit) refers to mqtt_task.o(i.creat_task_mqtt) for creat_task_mqtt
    main.o(i.osAppInit) refers to task.o(i.creat_task_get_air_temp_humi) for creat_task_get_air_temp_humi
    main.o(i.osAppInit) refers to task.o(i.creat_task_get_lux) for creat_task_get_lux
    main.o(i.osAppInit) refers to task.o(i.creat_task_test) for creat_task_test
    los_priqueue.o(i.LOS_PriqueueEnqueue) refers to los_priqueue.o(.data) for g_pstLosPriorityQueueList
    los_priqueue.o(i.LOS_PriqueueSize) refers to los_priqueue.o(.data) for g_pstLosPriorityQueueList
    los_priqueue.o(i.LOS_PriqueueTop) refers to los_priqueue.o(.data) for g_pstLosPriorityQueueList
    los_priqueue.o(i.LOS_PriqueueTotalSize) refers to los_priqueue.o(i.LOS_PriqueueSize) for LOS_PriqueueSize
    los_priqueue.o(i.osPriqueueInit) refers to los_memory.o(i.LOS_MemAlloc) for LOS_MemAlloc
    los_priqueue.o(i.osPriqueueInit) refers to los_config.o(.data) for m_aucSysMem0
    los_priqueue.o(i.osPriqueueInit) refers to los_priqueue.o(.data) for g_pstLosPriorityQueueList
    los_swtmr.o(i.LOS_SwtmrCreate) refers to los_dispatch.o(KERNEL) for LOS_IntLock
    los_swtmr.o(i.LOS_SwtmrCreate) refers to los_swtmr.o(.data) for m_pstSwtmrFreeList
    los_swtmr.o(i.LOS_SwtmrDelete) refers to los_dispatch.o(KERNEL) for LOS_IntLock
    los_swtmr.o(i.LOS_SwtmrDelete) refers to los_swtmr.o(i.osSwtmrStop) for osSwtmrStop
    los_swtmr.o(i.LOS_SwtmrDelete) refers to los_swtmr.o(i.osSwtmrDelete) for osSwtmrDelete
    los_swtmr.o(i.LOS_SwtmrDelete) refers to los_swtmr.o(.data) for m_pstSwtmrCBArray
    los_swtmr.o(i.LOS_SwtmrStart) refers to los_dispatch.o(KERNEL) for LOS_IntLock
    los_swtmr.o(i.LOS_SwtmrStart) refers to los_swtmr.o(i.osSwtmrStop) for osSwtmrStop
    los_swtmr.o(i.LOS_SwtmrStart) refers to los_swtmr.o(i.osSwTmrStart) for osSwTmrStart
    los_swtmr.o(i.LOS_SwtmrStart) refers to los_swtmr.o(.data) for m_pstSwtmrCBArray
    los_swtmr.o(i.LOS_SwtmrStop) refers to los_dispatch.o(KERNEL) for LOS_IntLock
    los_swtmr.o(i.LOS_SwtmrStop) refers to los_swtmr.o(i.osSwtmrStop) for osSwtmrStop
    los_swtmr.o(i.LOS_SwtmrStop) refers to los_swtmr.o(.data) for m_pstSwtmrCBArray
    los_swtmr.o(i.osSwTmrAdjust) refers to los_swtmr.o(i.osSwTmrTimeoutHandle) for osSwTmrTimeoutHandle
    los_swtmr.o(i.osSwTmrAdjust) refers to los_swtmr.o(.data) for m_pstSwtmrSortList
    los_swtmr.o(i.osSwTmrGetNextTimeout) refers to los_swtmr.o(.data) for m_pstSwtmrSortList
    los_swtmr.o(i.osSwTmrInit) refers to los_memory.o(i.LOS_MemAlloc) for LOS_MemAlloc
    los_swtmr.o(i.osSwTmrInit) refers to memseta.o(.text) for __aeabi_memclr4
    los_swtmr.o(i.osSwTmrInit) refers to los_membox.o(i.LOS_MemboxInit) for LOS_MemboxInit
    los_swtmr.o(i.osSwTmrInit) refers to los_queue.o(i.LOS_QueueCreate) for LOS_QueueCreate
    los_swtmr.o(i.osSwTmrInit) refers to los_swtmr.o(i.osSwTmrTaskCreate) for osSwTmrTaskCreate
    los_swtmr.o(i.osSwTmrInit) refers to los_swtmr.o(.data) for m_pstSwtmrSortList
    los_swtmr.o(i.osSwTmrInit) refers to los_config.o(.data) for m_aucSysMem0
    los_swtmr.o(i.osSwTmrInit) refers to los_swtmr.o(.bss) for m_aucSwTmrHandlerPool
    los_swtmr.o(i.osSwTmrStart) refers to los_swtmr.o(.data) for m_pstSwtmrSortList
    los_swtmr.o(i.osSwTmrTask) refers to los_queue.o(i.LOS_QueueRead) for LOS_QueueRead
    los_swtmr.o(i.osSwTmrTask) refers to los_membox.o(i.LOS_MemboxFree) for LOS_MemboxFree
    los_swtmr.o(i.osSwTmrTask) refers to los_swtmr.o(.data) for m_uwSwTmrHandlerQueue
    los_swtmr.o(i.osSwTmrTask) refers to los_swtmr.o(.bss) for m_aucSwTmrHandlerPool
    los_swtmr.o(i.osSwTmrTaskCreate) refers to memseta.o(.text) for __aeabi_memclr4
    los_swtmr.o(i.osSwTmrTaskCreate) refers to los_task.o(i.LOS_TaskCreate) for LOS_TaskCreate
    los_swtmr.o(i.osSwTmrTaskCreate) refers to los_swtmr.o(i.osSwTmrTask) for osSwTmrTask
    los_swtmr.o(i.osSwTmrTaskCreate) refers to los_task.o(.data) for g_uwSwtmrTaskID
    los_swtmr.o(i.osSwTmrTimeoutHandle) refers to los_membox.o(i.LOS_MemboxAlloc) for LOS_MemboxAlloc
    los_swtmr.o(i.osSwTmrTimeoutHandle) refers to los_queue.o(i.LOS_QueueWrite) for LOS_QueueWrite
    los_swtmr.o(i.osSwTmrTimeoutHandle) refers to los_membox.o(i.LOS_MemboxFree) for LOS_MemboxFree
    los_swtmr.o(i.osSwTmrTimeoutHandle) refers to los_swtmr.o(i.osSwtmrDelete) for osSwtmrDelete
    los_swtmr.o(i.osSwTmrTimeoutHandle) refers to los_swtmr.o(i.osSwTmrStart) for osSwTmrStart
    los_swtmr.o(i.osSwTmrTimeoutHandle) refers to los_swtmr.o(.data) for m_pstSwtmrSortList
    los_swtmr.o(i.osSwTmrTimeoutHandle) refers to los_swtmr.o(.bss) for m_aucSwTmrHandlerPool
    los_swtmr.o(i.osSwtmrDelete) refers to los_swtmr.o(.data) for m_pstSwtmrFreeList
    los_swtmr.o(i.osSwtmrScan) refers to los_swtmr.o(i.osSwTmrTimeoutHandle) for osSwTmrTimeoutHandle
    los_swtmr.o(i.osSwtmrScan) refers to los_swtmr.o(.data) for m_pstSwtmrSortList
    los_swtmr.o(i.osSwtmrStop) refers to los_swtmr.o(.data) for m_pstSwtmrSortList
    los_sys.o(i.LOS_MS2Tick) refers to uldiv.o(.text) for __aeabi_uldivmod
    los_sys.o(i.LOS_Reboot) refers to los_dispatch.o(KERNEL) for LOS_IntLock
    los_sys.o(i.LOS_Tick2MS) refers to uldiv.o(.text) for __aeabi_uldivmod
    los_sys.o(i.LOS_TickCountGet) refers to los_tick.o(.data) for g_ullTickCount
    los_sys.o(i.get_jiffies_64) refers to los_sys.o(i.LOS_TickCountGet) for LOS_TickCountGet
    los_sys.o(i.jiffies_to_msecs) refers to los_sys.o(i.LOS_Tick2MS) for LOS_Tick2MS
    los_sys.o(i.osCpuTick2MS) refers to dfltul.o(.text) for __aeabi_ul2d
    los_sys.o(i.osCpuTick2MS) refers to ddiv.o(.text) for __aeabi_ddiv
    los_sys.o(i.osCpuTick2MS) refers to dfixul.o(.text) for __aeabi_d2ulz
    los_sys.o(i.osCpuTick2US) refers to dfltul.o(.text) for __aeabi_ul2d
    los_sys.o(i.osCpuTick2US) refers to ddiv.o(.text) for __aeabi_ddiv
    los_sys.o(i.osCpuTick2US) refers to dfixul.o(.text) for __aeabi_d2ulz
    los_task.o(i.LOS_CurTaskIDGet) refers to los_task.o(.data) for g_stLosTask
    los_task.o(i.LOS_CurTaskPriSet) refers to los_task.o(i.LOS_TaskPriSet) for LOS_TaskPriSet
    los_task.o(i.LOS_CurTaskPriSet) refers to los_task.o(.data) for g_stLosTask
    los_task.o(i.LOS_ListTailInsert) refers to los_task.o(i.LOS_ListAdd) for LOS_ListAdd
    los_task.o(i.LOS_TaskCreate) refers to los_task.o(i.LOS_TaskCreateOnly) for LOS_TaskCreateOnly
    los_task.o(i.LOS_TaskCreate) refers to los_dispatch.o(KERNEL) for LOS_IntLock
    los_task.o(i.LOS_TaskCreate) refers to los_priqueue.o(i.LOS_PriqueueEnqueue) for LOS_PriqueueEnqueue
    los_task.o(i.LOS_TaskCreate) refers to los_priqueue.o(i.LOS_PriqueueTop) for LOS_PriqueueTop
    los_task.o(i.LOS_TaskCreate) refers to los_hw.o(i.osSchedule) for osSchedule
    los_task.o(i.LOS_TaskCreate) refers to los_task.o(.data) for g_pstTaskCBArray
    los_task.o(i.LOS_TaskCreateOnly) refers to los_misc.o(i.LOS_Align) for LOS_Align
    los_task.o(i.LOS_TaskCreateOnly) refers to los_dispatch.o(KERNEL) for LOS_IntLock
    los_task.o(i.LOS_TaskCreateOnly) refers to los_task.o(i.LOS_ListDelete) for LOS_ListDelete
    los_task.o(i.LOS_TaskCreateOnly) refers to los_task.o(i.LOS_ListAdd) for LOS_ListAdd
    los_task.o(i.LOS_TaskCreateOnly) refers to los_memory.o(i.LOS_MemFree) for LOS_MemFree
    los_task.o(i.LOS_TaskCreateOnly) refers to los_task.o(i.LOS_ListEmpty) for LOS_ListEmpty
    los_task.o(i.LOS_TaskCreateOnly) refers to los_memory.o(i.LOS_MemAllocAlign) for LOS_MemAllocAlign
    los_task.o(i.LOS_TaskCreateOnly) refers to los_hw.o(i.osTskStackInit) for osTskStackInit
    los_task.o(i.LOS_TaskCreateOnly) refers to los_task.o(.data) for g_stTskRecyleList
    los_task.o(i.LOS_TaskCreateOnly) refers to los_config.o(.data) for m_aucSysMem0
    los_task.o(i.LOS_TaskDelay) refers to los_task.o(i.LOS_TaskYield) for LOS_TaskYield
    los_task.o(i.LOS_TaskDelay) refers to los_dispatch.o(KERNEL) for LOS_IntLock
    los_task.o(i.LOS_TaskDelay) refers to los_priqueue.o(i.LOS_PriqueueDequeue) for LOS_PriqueueDequeue
    los_task.o(i.LOS_TaskDelay) refers to los_task.o(i.osTaskAdd2TimerList) for osTaskAdd2TimerList
    los_task.o(i.LOS_TaskDelay) refers to los_hw.o(i.LOS_Schedule) for LOS_Schedule
    los_task.o(i.LOS_TaskDelay) refers to los_hwi.o(.data) for g_vuwIntCount
    los_task.o(i.LOS_TaskDelay) refers to los_task.o(.data) for g_usLosTaskLock
    los_task.o(i.LOS_TaskDelete) refers to los_dispatch.o(KERNEL) for LOS_IntLock
    los_task.o(i.LOS_TaskDelete) refers to los_priqueue.o(i.LOS_PriqueueDequeue) for LOS_PriqueueDequeue
    los_task.o(i.LOS_TaskDelete) refers to los_task.o(i.LOS_ListDelete) for LOS_ListDelete
    los_task.o(i.LOS_TaskDelete) refers to los_task.o(i.osTimerListDelete) for osTimerListDelete
    los_task.o(i.LOS_TaskDelete) refers to los_priqueue.o(i.LOS_PriqueueTop) for LOS_PriqueueTop
    los_task.o(i.LOS_TaskDelete) refers to los_task.o(i.LOS_ListTailInsert) for LOS_ListTailInsert
    los_task.o(i.LOS_TaskDelete) refers to los_hw.o(i.osSchedule) for osSchedule
    los_task.o(i.LOS_TaskDelete) refers to los_task.o(i.LOS_ListAdd) for LOS_ListAdd
    los_task.o(i.LOS_TaskDelete) refers to los_memory.o(i.LOS_MemFree) for LOS_MemFree
    los_task.o(i.LOS_TaskDelete) refers to los_task.o(.data) for g_uwIdleTaskID
    los_task.o(i.LOS_TaskDelete) refers to los_config.o(.data) for m_aucSysMem0
    los_task.o(i.LOS_TaskLock) refers to los_dispatch.o(KERNEL) for LOS_IntLock
    los_task.o(i.LOS_TaskLock) refers to los_task.o(.data) for g_usLosTaskLock
    los_task.o(i.LOS_TaskPriGet) refers to los_dispatch.o(KERNEL) for LOS_IntLock
    los_task.o(i.LOS_TaskPriGet) refers to los_task.o(.data) for g_uwTskMaxNum
    los_task.o(i.LOS_TaskPriSet) refers to los_dispatch.o(KERNEL) for LOS_IntLock
    los_task.o(i.LOS_TaskPriSet) refers to los_priqueue.o(i.LOS_PriqueueDequeue) for LOS_PriqueueDequeue
    los_task.o(i.LOS_TaskPriSet) refers to los_priqueue.o(i.LOS_PriqueueEnqueue) for LOS_PriqueueEnqueue
    los_task.o(i.LOS_TaskPriSet) refers to los_hw.o(i.LOS_Schedule) for LOS_Schedule
    los_task.o(i.LOS_TaskPriSet) refers to los_task.o(.data) for g_uwIdleTaskID
    los_task.o(i.LOS_TaskResume) refers to los_dispatch.o(KERNEL) for LOS_IntLock
    los_task.o(i.LOS_TaskResume) refers to los_priqueue.o(i.LOS_PriqueueEnqueue) for LOS_PriqueueEnqueue
    los_task.o(i.LOS_TaskResume) refers to los_hw.o(i.LOS_Schedule) for LOS_Schedule
    los_task.o(i.LOS_TaskResume) refers to los_priqueue.o(i.LOS_PriqueueTop) for LOS_PriqueueTop
    los_task.o(i.LOS_TaskResume) refers to los_task.o(.data) for g_pstTaskCBArray
    los_task.o(i.LOS_TaskSuspend) refers to los_dispatch.o(KERNEL) for LOS_IntLock
    los_task.o(i.LOS_TaskSuspend) refers to los_priqueue.o(i.LOS_PriqueueDequeue) for LOS_PriqueueDequeue
    los_task.o(i.LOS_TaskSuspend) refers to los_hw.o(i.LOS_Schedule) for LOS_Schedule
    los_task.o(i.LOS_TaskSuspend) refers to los_task.o(.data) for g_uwIdleTaskID
    los_task.o(i.LOS_TaskUnlock) refers to los_dispatch.o(KERNEL) for LOS_IntLock
    los_task.o(i.LOS_TaskUnlock) refers to los_hw.o(i.LOS_Schedule) for LOS_Schedule
    los_task.o(i.LOS_TaskUnlock) refers to los_task.o(.data) for g_usLosTaskLock
    los_task.o(i.LOS_TaskYield) refers to los_dispatch.o(KERNEL) for LOS_IntLock
    los_task.o(i.LOS_TaskYield) refers to los_priqueue.o(i.LOS_PriqueueSize) for LOS_PriqueueSize
    los_task.o(i.LOS_TaskYield) refers to los_task.o(i.LOS_ListDelete) for LOS_ListDelete
    los_task.o(i.LOS_TaskYield) refers to los_priqueue.o(i.LOS_PriqueueEnqueue) for LOS_PriqueueEnqueue
    los_task.o(i.LOS_TaskYield) refers to los_hw.o(i.LOS_Schedule) for LOS_Schedule
    los_task.o(i.LOS_TaskYield) refers to los_task.o(.data) for g_stLosTask
    los_task.o(i.osIdleTaskCreate) refers to memseta.o(.text) for __aeabi_memclr4
    los_task.o(i.osIdleTaskCreate) refers to los_task.o(i.LOS_TaskCreate) for LOS_TaskCreate
    los_task.o(i.osIdleTaskCreate) refers to los_task.o(i.osIdleTask) for osIdleTask
    los_task.o(i.osIdleTaskCreate) refers to los_task.o(.data) for g_uwIdleTaskID
    los_task.o(i.osTaskAdd2TimerList) refers to los_task.o(i.LOS_ListTailInsert) for LOS_ListTailInsert
    los_task.o(i.osTaskAdd2TimerList) refers to los_task.o(.data) for g_stTskSortLink
    los_task.o(i.osTaskEntry) refers to los_dispatch.o(KERNEL) for LOS_IntLock
    los_task.o(i.osTaskEntry) refers to los_task.o(i.osTaskSelfDelete) for osTaskSelfDelete
    los_task.o(i.osTaskEntry) refers to los_task.o(i.LOS_TaskLock) for LOS_TaskLock
    los_task.o(i.osTaskEntry) refers to los_sem.o(i.LOS_SemPost) for LOS_SemPost
    los_task.o(i.osTaskEntry) refers to los_priqueue.o(i.LOS_PriqueueDequeue) for LOS_PriqueueDequeue
    los_task.o(i.osTaskEntry) refers to los_task.o(i.LOS_TaskUnlock) for LOS_TaskUnlock
    los_task.o(i.osTaskEntry) refers to los_hw.o(i.LOS_Schedule) for LOS_Schedule
    los_task.o(i.osTaskEntry) refers to los_task.o(.data) for g_pstTaskCBArray
    los_task.o(i.osTaskInit) refers to los_memory.o(i.LOS_MemAlloc) for LOS_MemAlloc
    los_task.o(i.osTaskInit) refers to memseta.o(.text) for __aeabi_memclr4
    los_task.o(i.osTaskInit) refers to los_task.o(i.LOS_ListInit) for LOS_ListInit
    los_task.o(i.osTaskInit) refers to los_task.o(i.LOS_ListTailInsert) for LOS_ListTailInsert
    los_task.o(i.osTaskInit) refers to los_priqueue.o(i.osPriqueueInit) for osPriqueueInit
    los_task.o(i.osTaskInit) refers to los_task.o(.data) for g_uwTskMaxNum
    los_task.o(i.osTaskInit) refers to los_config.o(.data) for m_aucSysMem0
    los_task.o(i.osTaskPriModify) refers to los_priqueue.o(i.LOS_PriqueueDequeue) for LOS_PriqueueDequeue
    los_task.o(i.osTaskPriModify) refers to los_priqueue.o(i.LOS_PriqueueEnqueue) for LOS_PriqueueEnqueue
    los_task.o(i.osTaskScan) refers to los_task.o(i.LOS_ListDelete) for LOS_ListDelete
    los_task.o(i.osTaskScan) refers to los_priqueue.o(i.LOS_PriqueueEnqueue) for LOS_PriqueueEnqueue
    los_task.o(i.osTaskScan) refers to los_hw.o(i.LOS_Schedule) for LOS_Schedule
    los_task.o(i.osTaskScan) refers to los_task.o(.data) for g_stTskSortLink
    los_task.o(i.osTaskSelfDelete) refers to los_priqueue.o(i.LOS_PriqueueDequeue) for LOS_PriqueueDequeue
    los_task.o(i.osTaskSelfDelete) refers to los_task.o(i.LOS_ListDelete) for LOS_ListDelete
    los_task.o(i.osTaskSelfDelete) refers to los_task.o(i.osTimerListDelete) for osTimerListDelete
    los_task.o(i.osTaskSelfDelete) refers to los_priqueue.o(i.LOS_PriqueueTop) for LOS_PriqueueTop
    los_task.o(i.osTaskSelfDelete) refers to los_task.o(i.LOS_ListTailInsert) for LOS_ListTailInsert
    los_task.o(i.osTaskSelfDelete) refers to los_dispatch.o(KERNEL) for LOS_IntRestore
    los_task.o(i.osTaskSelfDelete) refers to los_hw.o(i.osSchedule) for osSchedule
    los_task.o(i.osTaskSelfDelete) refers to los_task.o(.data) for g_pstTaskCBArray
    los_task.o(i.osTimerListDelete) refers to los_task.o(i.LOS_ListDelete) for LOS_ListDelete
    los_task.o(i.osTimerListDelete) refers to los_task.o(.data) for g_stTskSortLink
    los_tick.o(i.SysTick_Handler) refers to los_timeslice.o(i.osTimesliceCheck) for osTimesliceCheck
    los_tick.o(i.SysTick_Handler) refers to los_task.o(i.osTaskScan) for osTaskScan
    los_tick.o(i.SysTick_Handler) refers to los_swtmr.o(i.osSwtmrScan) for osSwtmrScan
    los_tick.o(i.SysTick_Handler) refers to los_tick.o(.data) for g_ullTickCount
    los_timeslice.o(i.osTimesliceCheck) refers to los_task.o(i.LOS_TaskYield) for LOS_TaskYield
    los_timeslice.o(i.osTimesliceCheck) refers to los_timeslice.o(.data) for g_stTaskTimeSlice
    los_timeslice.o(i.osTimesliceCheck) refers to los_task.o(.data) for g_stLosTask
    los_timeslice.o(i.osTimesliceCheck) refers to los_tick.o(.data) for g_ullTickCount
    los_timeslice.o(i.osTimesliceInit) refers to los_timeslice.o(.data) for g_stTaskTimeSlice
    los_event.o(i.LOS_EventClear) refers to los_dispatch.o(KERNEL) for LOS_IntLock
    los_event.o(i.LOS_EventPoll) refers to los_dispatch.o(KERNEL) for LOS_IntLock
    los_event.o(i.LOS_EventRead) refers to los_dispatch.o(KERNEL) for LOS_IntLock
    los_event.o(i.LOS_EventRead) refers to los_event.o(i.LOS_EventPoll) for LOS_EventPoll
    los_event.o(i.LOS_EventRead) refers to los_priqueue.o(i.LOS_PriqueueDequeue) for LOS_PriqueueDequeue
    los_event.o(i.LOS_EventRead) refers to los_task.o(i.osTaskAdd2TimerList) for osTaskAdd2TimerList
    los_event.o(i.LOS_EventRead) refers to los_hw.o(i.LOS_Schedule) for LOS_Schedule
    los_event.o(i.LOS_EventRead) refers to los_hwi.o(.data) for g_vuwIntCount
    los_event.o(i.LOS_EventRead) refers to los_task.o(.data) for g_usLosTaskLock
    los_event.o(i.LOS_EventWrite) refers to los_dispatch.o(KERNEL) for LOS_IntLock
    los_event.o(i.LOS_EventWrite) refers to los_task.o(i.osTimerListDelete) for osTimerListDelete
    los_event.o(i.LOS_EventWrite) refers to los_priqueue.o(i.LOS_PriqueueEnqueue) for LOS_PriqueueEnqueue
    los_event.o(i.LOS_EventWrite) refers to los_hw.o(i.LOS_Schedule) for LOS_Schedule
    los_mux.o(i.LOS_ListTailInsert) refers to los_mux.o(i.LOS_ListAdd) for LOS_ListAdd
    los_mux.o(i.LOS_MuxCreate) refers to los_dispatch.o(KERNEL) for LOS_IntLock
    los_mux.o(i.LOS_MuxCreate) refers to los_mux.o(i.LOS_ListEmpty) for LOS_ListEmpty
    los_mux.o(i.LOS_MuxCreate) refers to los_mux.o(i.LOS_ListDelete) for LOS_ListDelete
    los_mux.o(i.LOS_MuxCreate) refers to los_mux.o(i.LOS_ListInit) for LOS_ListInit
    los_mux.o(i.LOS_MuxCreate) refers to los_mux.o(.data) for g_stUnusedMuxList
    los_mux.o(i.LOS_MuxDelete) refers to los_dispatch.o(KERNEL) for LOS_IntLock
    los_mux.o(i.LOS_MuxDelete) refers to los_mux.o(i.LOS_ListEmpty) for LOS_ListEmpty
    los_mux.o(i.LOS_MuxDelete) refers to los_mux.o(i.LOS_ListAdd) for LOS_ListAdd
    los_mux.o(i.LOS_MuxDelete) refers to los_mux.o(.data) for g_pstAllMux
    los_mux.o(i.LOS_MuxPend) refers to los_dispatch.o(KERNEL) for LOS_IntLock
    los_mux.o(i.LOS_MuxPend) refers to los_priqueue.o(i.LOS_PriqueueDequeue) for LOS_PriqueueDequeue
    los_mux.o(i.LOS_MuxPend) refers to los_task.o(i.osTaskPriModify) for osTaskPriModify
    los_mux.o(i.LOS_MuxPend) refers to los_mux.o(i.LOS_ListTailInsert) for LOS_ListTailInsert
    los_mux.o(i.LOS_MuxPend) refers to los_task.o(i.osTaskAdd2TimerList) for osTaskAdd2TimerList
    los_mux.o(i.LOS_MuxPend) refers to los_hw.o(i.LOS_Schedule) for LOS_Schedule
    los_mux.o(i.LOS_MuxPend) refers to los_mux.o(.data) for g_pstAllMux
    los_mux.o(i.LOS_MuxPend) refers to los_hwi.o(.data) for g_vuwIntCount
    los_mux.o(i.LOS_MuxPend) refers to los_task.o(.data) for g_stLosTask
    los_mux.o(i.LOS_MuxPost) refers to los_dispatch.o(KERNEL) for LOS_IntLock
    los_mux.o(i.LOS_MuxPost) refers to los_task.o(i.osTaskPriModify) for osTaskPriModify
    los_mux.o(i.LOS_MuxPost) refers to los_mux.o(i.LOS_ListEmpty) for LOS_ListEmpty
    los_mux.o(i.LOS_MuxPost) refers to los_mux.o(i.LOS_ListDelete) for LOS_ListDelete
    los_mux.o(i.LOS_MuxPost) refers to los_task.o(i.osTimerListDelete) for osTimerListDelete
    los_mux.o(i.LOS_MuxPost) refers to los_priqueue.o(i.LOS_PriqueueEnqueue) for LOS_PriqueueEnqueue
    los_mux.o(i.LOS_MuxPost) refers to los_hw.o(i.LOS_Schedule) for LOS_Schedule
    los_mux.o(i.LOS_MuxPost) refers to los_mux.o(.data) for g_pstAllMux
    los_mux.o(i.LOS_MuxPost) refers to los_hwi.o(.data) for g_vuwIntCount
    los_mux.o(i.LOS_MuxPost) refers to los_task.o(.data) for g_stLosTask
    los_mux.o(i.osMuxInit) refers to los_mux.o(i.LOS_ListInit) for LOS_ListInit
    los_mux.o(i.osMuxInit) refers to los_memory.o(i.LOS_MemAlloc) for LOS_MemAlloc
    los_mux.o(i.osMuxInit) refers to los_mux.o(i.LOS_ListTailInsert) for LOS_ListTailInsert
    los_mux.o(i.osMuxInit) refers to los_mux.o(.data) for g_stUnusedMuxList
    los_mux.o(i.osMuxInit) refers to los_config.o(.data) for m_aucSysMem0
    los_queue.o(i.LOS_QueueCreate) refers to los_dispatch.o(KERNEL) for LOS_IntLock
    los_queue.o(i.LOS_QueueCreate) refers to los_queue.o(i.osQueueCreate) for osQueueCreate
    los_queue.o(i.LOS_QueueCreate) refers to los_queue.o(i.LOS_ListInit) for LOS_ListInit
    los_queue.o(i.LOS_QueueDelete) refers to los_dispatch.o(KERNEL) for LOS_IntLock
    los_queue.o(i.LOS_QueueDelete) refers to los_queue.o(i.LOS_ListEmpty) for LOS_ListEmpty
    los_queue.o(i.LOS_QueueDelete) refers to los_memory.o(i.LOS_MemFree) for LOS_MemFree
    los_queue.o(i.LOS_QueueDelete) refers to los_queue.o(.data) for g_pstAllQueue
    los_queue.o(i.LOS_QueueDelete) refers to los_config.o(.data) for m_aucSysMem0
    los_queue.o(i.LOS_QueueRead) refers to los_dispatch.o(KERNEL) for LOS_IntLock
    los_queue.o(i.LOS_QueueRead) refers to los_queue.o(i.osQueuePend) for osQueuePend
    los_queue.o(i.LOS_QueueRead) refers to los_hw.o(i.LOS_Schedule) for LOS_Schedule
    los_queue.o(i.LOS_QueueRead) refers to los_queue.o(i.LOS_ListEmpty) for LOS_ListEmpty
    los_queue.o(i.LOS_QueueRead) refers to los_queue.o(i.osQueueWakeUp) for osQueueWakeUp
    los_queue.o(i.LOS_QueueRead) refers to los_hwi.o(.data) for g_vuwIntCount
    los_queue.o(i.LOS_QueueRead) refers to los_queue.o(.data) for g_pstAllQueue
    los_queue.o(i.LOS_QueueRead) refers to los_task.o(.data) for g_usLosTaskLock
    los_queue.o(i.LOS_QueueWrite) refers to los_dispatch.o(KERNEL) for LOS_IntLock
    los_queue.o(i.LOS_QueueWrite) refers to los_queue.o(i.osQueuePend) for osQueuePend
    los_queue.o(i.LOS_QueueWrite) refers to los_hw.o(i.LOS_Schedule) for LOS_Schedule
    los_queue.o(i.LOS_QueueWrite) refers to los_queue.o(i.LOS_ListEmpty) for LOS_ListEmpty
    los_queue.o(i.LOS_QueueWrite) refers to los_queue.o(i.osQueueWakeUp) for osQueueWakeUp
    los_queue.o(i.LOS_QueueWrite) refers to los_hwi.o(.data) for g_vuwIntCount
    los_queue.o(i.LOS_QueueWrite) refers to los_queue.o(.data) for g_pstAllQueue
    los_queue.o(i.LOS_QueueWrite) refers to los_task.o(.data) for g_usLosTaskLock
    los_queue.o(i.osQueueCreate) refers to memseta.o(.text) for __aeabi_memclr4
    los_queue.o(i.osQueueCreate) refers to los_memory.o(i.LOS_MemAlloc) for LOS_MemAlloc
    los_queue.o(i.osQueueCreate) refers to los_queue.o(.data) for g_pstAllQueue
    los_queue.o(i.osQueueCreate) refers to los_config.o(.data) for m_aucSysMem0
    los_queue.o(i.osQueueInit) refers to los_memory.o(i.LOS_MemAlloc) for LOS_MemAlloc
    los_queue.o(i.osQueueInit) refers to memseta.o(.text) for __aeabi_memclr4
    los_queue.o(i.osQueueInit) refers to los_config.o(.data) for m_aucSysMem0
    los_queue.o(i.osQueueInit) refers to los_queue.o(.data) for g_pstAllQueue
    los_queue.o(i.osQueueMailAlloc) refers to los_dispatch.o(KERNEL) for LOS_IntLock
    los_queue.o(i.osQueueMailAlloc) refers to los_membox.o(i.LOS_MemboxAlloc) for LOS_MemboxAlloc
    los_queue.o(i.osQueueMailAlloc) refers to los_queue.o(i.osQueuePend) for osQueuePend
    los_queue.o(i.osQueueMailAlloc) refers to los_hw.o(i.LOS_Schedule) for LOS_Schedule
    los_queue.o(i.osQueueMailAlloc) refers to los_hwi.o(.data) for g_vuwIntCount
    los_queue.o(i.osQueueMailAlloc) refers to los_queue.o(.data) for g_pstAllQueue
    los_queue.o(i.osQueueMailAlloc) refers to los_task.o(.data) for g_stLosTask
    los_queue.o(i.osQueueMailFree) refers to los_dispatch.o(KERNEL) for LOS_IntLock
    los_queue.o(i.osQueueMailFree) refers to los_membox.o(i.LOS_MemboxFree) for LOS_MemboxFree
    los_queue.o(i.osQueueMailFree) refers to los_queue.o(i.LOS_ListEmpty) for LOS_ListEmpty
    los_queue.o(i.osQueueMailFree) refers to los_queue.o(i.osQueueWakeUp) for osQueueWakeUp
    los_queue.o(i.osQueueMailFree) refers to los_membox.o(i.LOS_MemboxAlloc) for LOS_MemboxAlloc
    los_queue.o(i.osQueueMailFree) refers to los_hw.o(i.LOS_Schedule) for LOS_Schedule
    los_queue.o(i.osQueueMailFree) refers to los_queue.o(.data) for g_pstAllQueue
    los_queue.o(i.osQueuePend) refers to los_priqueue.o(i.LOS_PriqueueDequeue) for LOS_PriqueueDequeue
    los_queue.o(i.osQueuePend) refers to los_queue.o(i.LOS_ListEmpty) for LOS_ListEmpty
    los_queue.o(i.osQueuePend) refers to los_queue.o(i.LOS_ListAdd) for LOS_ListAdd
    los_queue.o(i.osQueuePend) refers to los_task.o(i.osTaskAdd2TimerList) for osTaskAdd2TimerList
    los_queue.o(i.osQueueWakeUp) refers to los_task.o(i.osTimerListDelete) for osTimerListDelete
    los_queue.o(i.osQueueWakeUp) refers to los_priqueue.o(i.LOS_PriqueueEnqueue) for LOS_PriqueueEnqueue
    los_sem.o(i.LOS_ListTailInsert) refers to los_sem.o(i.LOS_ListAdd) for LOS_ListAdd
    los_sem.o(i.LOS_SemCreate) refers to los_dispatch.o(KERNEL) for LOS_IntLock
    los_sem.o(i.LOS_SemCreate) refers to los_sem.o(i.LOS_ListEmpty) for LOS_ListEmpty
    los_sem.o(i.LOS_SemCreate) refers to los_sem.o(i.LOS_ListDelete) for LOS_ListDelete
    los_sem.o(i.LOS_SemCreate) refers to los_sem.o(i.LOS_ListInit) for LOS_ListInit
    los_sem.o(i.LOS_SemCreate) refers to los_sem.o(.data) for g_stUnusedSemList
    los_sem.o(i.LOS_SemDelete) refers to los_dispatch.o(KERNEL) for LOS_IntLock
    los_sem.o(i.LOS_SemDelete) refers to los_sem.o(i.LOS_ListEmpty) for LOS_ListEmpty
    los_sem.o(i.LOS_SemDelete) refers to los_sem.o(i.LOS_ListAdd) for LOS_ListAdd
    los_sem.o(i.LOS_SemDelete) refers to los_sem.o(.data) for g_pstAllSem
    los_sem.o(i.LOS_SemPend) refers to los_dispatch.o(KERNEL) for LOS_IntLock
    los_sem.o(i.LOS_SemPend) refers to los_priqueue.o(i.LOS_PriqueueDequeue) for LOS_PriqueueDequeue
    los_sem.o(i.LOS_SemPend) refers to los_sem.o(i.LOS_ListTailInsert) for LOS_ListTailInsert
    los_sem.o(i.LOS_SemPend) refers to los_task.o(i.osTaskAdd2TimerList) for osTaskAdd2TimerList
    los_sem.o(i.LOS_SemPend) refers to los_hw.o(i.LOS_Schedule) for LOS_Schedule
    los_sem.o(i.LOS_SemPend) refers to los_sem.o(.data) for g_pstAllSem
    los_sem.o(i.LOS_SemPend) refers to los_hwi.o(.data) for g_vuwIntCount
    los_sem.o(i.LOS_SemPend) refers to los_task.o(.data) for g_usLosTaskLock
    los_sem.o(i.LOS_SemPost) refers to los_dispatch.o(KERNEL) for LOS_IntLock
    los_sem.o(i.LOS_SemPost) refers to los_sem.o(i.LOS_ListEmpty) for LOS_ListEmpty
    los_sem.o(i.LOS_SemPost) refers to los_sem.o(i.LOS_ListDelete) for LOS_ListDelete
    los_sem.o(i.LOS_SemPost) refers to los_task.o(i.osTimerListDelete) for osTimerListDelete
    los_sem.o(i.LOS_SemPost) refers to los_priqueue.o(i.LOS_PriqueueEnqueue) for LOS_PriqueueEnqueue
    los_sem.o(i.LOS_SemPost) refers to los_hw.o(i.LOS_Schedule) for LOS_Schedule
    los_sem.o(i.LOS_SemPost) refers to los_sem.o(.data) for g_pstAllSem
    los_sem.o(i.osSemInit) refers to los_sem.o(i.LOS_ListInit) for LOS_ListInit
    los_sem.o(i.osSemInit) refers to los_memory.o(i.LOS_MemAlloc) for LOS_MemAlloc
    los_sem.o(i.osSemInit) refers to los_sem.o(i.LOS_ListTailInsert) for LOS_ListTailInsert
    los_sem.o(i.osSemInit) refers to los_sem.o(.data) for g_stUnusedSemList
    los_sem.o(i.osSemInit) refers to los_config.o(.data) for m_aucSysMem0
    los_membox.o(i.LOS_MemboxAlloc) refers to los_dispatch.o(KERNEL) for LOS_IntLock
    los_membox.o(i.LOS_MemboxClr) refers to memseta.o(.text) for __aeabi_memclr
    los_membox.o(i.LOS_MemboxFree) refers to los_dispatch.o(KERNEL) for LOS_IntLock
    los_membox.o(i.LOS_MemboxInit) refers to los_dispatch.o(KERNEL) for LOS_IntLock
    los_memory.o(i.LOS_MemAlloc) refers to los_dispatch.o(KERNEL) for LOS_IntLock
    los_memory.o(i.LOS_MemAlloc) refers to los_memory.o(i.osMemAllocWithCheck) for osMemAllocWithCheck
    los_memory.o(i.LOS_MemAllocAlign) refers to los_dispatch.o(KERNEL) for LOS_IntLock
    los_memory.o(i.LOS_MemAllocAlign) refers to los_memory.o(i.osMemAllocWithCheck) for osMemAllocWithCheck
    los_memory.o(i.LOS_MemFree) refers to los_dispatch.o(KERNEL) for LOS_IntLock
    los_memory.o(i.LOS_MemFree) refers to los_memory.o(i.osMemCheckUsedNode) for osMemCheckUsedNode
    los_memory.o(i.LOS_MemFree) refers to los_memory.o(i.osMemFreeNode) for osMemFreeNode
    los_memory.o(i.LOS_MemInit) refers to los_dispatch.o(KERNEL) for LOS_IntLock
    los_memory.o(i.LOS_MemInit) refers to los_multipledlinkhead.o(i.LOS_DLnkInitMultiHead) for LOS_DLnkInitMultiHead
    los_memory.o(i.LOS_MemInit) refers to los_multipledlinkhead.o(i.LOS_DLnkMultiHead) for LOS_DLnkMultiHead
    los_memory.o(i.LOS_MemInit) refers to los_memory.o(i.LOS_ListAdd) for LOS_ListAdd
    los_memory.o(i.LOS_MemInit) refers to los_memory.o(i.osMemSetMagicNumAndTaskid) for osMemSetMagicNumAndTaskid
    los_memory.o(i.LOS_MemRealloc) refers to los_dispatch.o(KERNEL) for LOS_IntLock
    los_memory.o(i.LOS_MemRealloc) refers to los_memory.o(i.LOS_MemAlloc) for LOS_MemAlloc
    los_memory.o(i.LOS_MemRealloc) refers to los_memory.o(i.LOS_MemFree) for LOS_MemFree
    los_memory.o(i.LOS_MemRealloc) refers to los_memory.o(i.osMemCheckUsedNode) for osMemCheckUsedNode
    los_memory.o(i.LOS_MemRealloc) refers to los_memory.o(i.osMemSpitNode) for osMemSpitNode
    los_memory.o(i.LOS_MemRealloc) refers to los_memstat.o(i.osTaskMemUsedDec) for osTaskMemUsedDec
    los_memory.o(i.LOS_MemRealloc) refers to los_memory.o(i.LOS_ListDelete) for LOS_ListDelete
    los_memory.o(i.LOS_MemRealloc) refers to los_memory.o(i.osMemMergeNode) for osMemMergeNode
    los_memory.o(i.LOS_MemRealloc) refers to los_memstat.o(i.osTaskMemUsedInc) for osTaskMemUsedInc
    los_memory.o(i.LOS_MemRealloc) refers to los_memory.o(i.osMemAllocWithCheck) for osMemAllocWithCheck
    los_memory.o(i.LOS_MemRealloc) refers to memcpya.o(.text) for __aeabi_memcpy
    los_memory.o(i.LOS_MemRealloc) refers to los_memory.o(i.osMemFreeNode) for osMemFreeNode
    los_memory.o(i.osMemAllocWithCheck) refers to los_memory.o(i.osMemFindSuitableFreeBlock) for osMemFindSuitableFreeBlock
    los_memory.o(i.osMemAllocWithCheck) refers to los_memory.o(i.osMemSpitNode) for osMemSpitNode
    los_memory.o(i.osMemAllocWithCheck) refers to los_memory.o(i.LOS_ListDelete) for LOS_ListDelete
    los_memory.o(i.osMemAllocWithCheck) refers to los_memory.o(i.osMemSetMagicNumAndTaskid) for osMemSetMagicNumAndTaskid
    los_memory.o(i.osMemAllocWithCheck) refers to los_memstat.o(i.osTaskMemUsedInc) for osTaskMemUsedInc
    los_memory.o(i.osMemCheckUsedNode) refers to los_memory.o(i.osMemIsNodeValid) for osMemIsNodeValid
    los_memory.o(i.osMemFindSuitableFreeBlock) refers to los_multipledlinkhead.o(i.LOS_DLnkMultiHead) for LOS_DLnkMultiHead
    los_memory.o(i.osMemFreeNode) refers to los_memstat.o(i.osTaskMemUsedDec) for osTaskMemUsedDec
    los_memory.o(i.osMemFreeNode) refers to los_memory.o(i.osMemMergeNode) for osMemMergeNode
    los_memory.o(i.osMemFreeNode) refers to los_memory.o(i.LOS_ListDelete) for LOS_ListDelete
    los_memory.o(i.osMemFreeNode) refers to los_multipledlinkhead.o(i.LOS_DLnkMultiHead) for LOS_DLnkMultiHead
    los_memory.o(i.osMemFreeNode) refers to los_memory.o(i.LOS_ListAdd) for LOS_ListAdd
    los_memory.o(i.osMemSetMagicNumAndTaskid) refers to los_task.o(.data) for g_stLosTask
    los_memory.o(i.osMemSpitNode) refers to los_memory.o(i.LOS_ListDelete) for LOS_ListDelete
    los_memory.o(i.osMemSpitNode) refers to los_memory.o(i.osMemMergeNode) for osMemMergeNode
    los_memory.o(i.osMemSpitNode) refers to los_multipledlinkhead.o(i.LOS_DLnkMultiHead) for LOS_DLnkMultiHead
    los_memory.o(i.osMemSpitNode) refers to los_memory.o(i.LOS_ListAdd) for LOS_ListAdd
    los_memory.o(i.osMemSystemInit) refers to los_memory.o(i.LOS_MemInit) for LOS_MemInit
    los_memory.o(i.osMemSystemInit) refers to los_memory.o(.bss) for g_ucMemStart
    los_memory.o(i.osMemSystemInit) refers to los_config.o(.data) for m_aucSysMem0
    los_memstat.o(i.osTaskMemUsage) refers to los_memstat.o(.bss) for g_TskMemUsedInfo
    los_memstat.o(i.osTaskMemUsedDec) refers to los_task.o(.data) for g_stLosTask
    los_memstat.o(i.osTaskMemUsedDec) refers to los_hwi.o(.data) for g_vuwIntCount
    los_memstat.o(i.osTaskMemUsedDec) refers to los_memstat.o(.bss) for g_TskMemUsedInfo
    los_memstat.o(i.osTaskMemUsedInc) refers to los_task.o(.data) for g_stLosTask
    los_memstat.o(i.osTaskMemUsedInc) refers to los_hwi.o(.data) for g_vuwIntCount
    los_memstat.o(i.osTaskMemUsedInc) refers to los_memstat.o(.bss) for g_TskMemUsedInfo
    los_multipledlinkhead.o(i.LOS_DLnkMultiHead) refers to los_multipledlinkhead.o(i.LOS_Log2) for LOS_Log2
    los_misc.o(i.LOS_Msleep) refers to los_sys.o(i.LOS_MS2Tick) for LOS_MS2Tick
    los_misc.o(i.LOS_Msleep) refers to los_task.o(i.LOS_TaskDelay) for LOS_TaskDelay
    los_misc.o(i.LOS_Msleep) refers to los_hwi.o(.data) for g_vuwIntCount
    los_config.o(i.LOS_Start) refers to los_hw_tick.o(i.osTickStart) for osTickStart
    los_config.o(i.LOS_Start) refers to los_dispatch.o(.text) for LOS_StartToRun
    los_config.o(i.main) refers to los_config.o(i.osMain) for osMain
    los_config.o(i.main) refers to main.o(i.osAppInit) for osAppInit
    los_config.o(i.main) refers to los_config.o(i.LOS_Start) for LOS_Start
    los_config.o(i.osMain) refers to los_config.o(i.osRegister) for osRegister
    los_config.o(i.osMain) refers to los_memory.o(i.osMemSystemInit) for osMemSystemInit
    los_config.o(i.osMain) refers to los_hwi.o(i.osHwiInit) for osHwiInit
    los_config.o(i.osMain) refers to los_task.o(i.osTaskInit) for osTaskInit
    los_config.o(i.osMain) refers to los_sem.o(i.osSemInit) for osSemInit
    los_config.o(i.osMain) refers to los_mux.o(i.osMuxInit) for osMuxInit
    los_config.o(i.osMain) refers to los_queue.o(i.osQueueInit) for osQueueInit
    los_config.o(i.osMain) refers to los_swtmr.o(i.osSwTmrInit) for osSwTmrInit
    los_config.o(i.osMain) refers to los_timeslice.o(i.osTimesliceInit) for osTimesliceInit
    los_config.o(i.osMain) refers to los_task.o(i.osIdleTaskCreate) for osIdleTaskCreate
    los_config.o(i.osRegister) refers to los_task.o(.data) for g_uwTskMaxNum
    los_config.o(i.osRegister) refers to los_memory.o(.bss) for g_ucMemStart
    los_config.o(i.osRegister) refers to los_config.o(.data) for g_sys_mem_addr_end
    los_hw.o(i.LOS_Schedule) refers to los_dispatch.o(KERNEL) for LOS_IntLock
    los_hw.o(i.LOS_Schedule) refers to los_priqueue.o(i.LOS_PriqueueTop) for LOS_PriqueueTop
    los_hw.o(i.LOS_Schedule) refers to los_task.o(.data) for g_stLosTask
    los_hw.o(i.osSchedule) refers to los_dispatch.o(KERNEL) for osTaskSchedule
    los_hw.o(i.osTskStackInit) refers to los_hw.o(i.osTaskExit) for osTaskExit
    los_hw.o(i.osTskStackInit) refers to los_task.o(i.osTaskEntry) for osTaskEntry
    los_hw_tick.o(i.LOS_GetCpuCycle) refers to los_dispatch.o(KERNEL) for LOS_IntLock
    los_hw_tick.o(i.LOS_GetCpuCycle) refers to los_tick.o(.data) for g_ullTickCount
    los_hw_tick.o(i.LOS_GetCpuCycle) refers to los_hw_tick.o(.data) for g_uwCyclesPerTick
    los_hw_tick.o(i.osTickStart) refers to los_hwi.o(i.osInterrupt) for osInterrupt
    los_hw_tick.o(i.osTickStart) refers to los_hwi.o(.vector.bss) for m_pstHwiForm
    los_hw_tick.o(i.osTickStart) refers to los_tick.o(i.SysTick_Handler) for SysTick_Handler
    los_hw_tick.o(i.osTickStart) refers to los_hwi.o(.bss) for m_pstHwiSlaveForm
    los_hw_tick.o(i.osTickStart) refers to los_hw_tick.o(.data) for g_uwCyclesPerTick
    los_hw_tick.o(i.osTickStart) refers to los_tick.o(.data) for g_ullTickCount
    los_hwi.o(i.LOS_HwiCreate) refers to los_dispatch.o(KERNEL) for LOS_IntLock
    los_hwi.o(i.LOS_HwiCreate) refers to los_hwi.o(.vector.bss) for m_pstHwiForm
    los_hwi.o(i.LOS_HwiCreate) refers to los_hwi.o(i.osHwiDefaultHandler) for osHwiDefaultHandler
    los_hwi.o(i.LOS_HwiCreate) refers to los_hwi.o(i.osInterrupt) for osInterrupt
    los_hwi.o(i.LOS_HwiCreate) refers to los_hwi.o(.bss) for m_pstHwiSlaveForm
    los_hwi.o(i.LOS_HwiDelete) refers to los_dispatch.o(KERNEL) for LOS_IntLock
    los_hwi.o(i.LOS_HwiDelete) refers to los_hwi.o(i.osHwiDefaultHandler) for osHwiDefaultHandler
    los_hwi.o(i.LOS_HwiDelete) refers to los_hwi.o(.vector.bss) for m_pstHwiForm
    los_hwi.o(i.osHwiDefaultHandler) refers to los_hwi.o(.emb_text) for osIntNumGet
    los_hwi.o(i.osHwiInit) refers to los_hwi.o(i.osHwiDefaultHandler) for osHwiDefaultHandler
    los_hwi.o(i.osHwiInit) refers to los_hwi.o(.vector.bss) for m_pstHwiForm
    los_hwi.o(i.osInterrupt) refers to los_dispatch.o(KERNEL) for LOS_IntLock
    los_hwi.o(i.osInterrupt) refers to los_hwi.o(.emb_text) for osIntNumGet
    los_hwi.o(i.osInterrupt) refers to los_hwi.o(.data) for g_vuwIntCount
    los_hwi.o(i.osInterrupt) refers to los_hwi.o(.bss) for m_pstHwiSlaveForm
    los_hwi.o(.vector.bss) refers to startup_stm32f10x_md.o(.text) for Reset_Handler
    los_hwi.o(.vector.bss) refers to los_hwi.o(i.osHwiDefaultHandler) for osHwiDefaultHandler
    los_hwi.o(.vector.bss) refers to los_dispatch.o(KERNEL) for PendSV_Handler
    los_dispatch.o(.text) refers to los_task.o(.data) for g_bTaskScheduled
    los_dispatch.o(KERNEL) refers to los_task.o(.data) for g_pfnTskSwitchHook
    mcu_init.o(i.NVIC_Configuration) refers to misc.o(i.NVIC_PriorityGroupConfig) for NVIC_PriorityGroupConfig
    mcu_init.o(i.NVIC_Configuration) refers to misc.o(i.NVIC_Init) for NVIC_Init
    mcu_init.o(i.NVIC_Configuration) refers to stm32f10x_gpio.o(i.GPIO_EXTILineConfig) for GPIO_EXTILineConfig
    mcu_init.o(i.NVIC_Configuration) refers to misc.o(i.NVIC_SetVectorTable) for NVIC_SetVectorTable
    mcu_init.o(i.RCC_Configuration) refers to stm32f10x_rcc.o(i.RCC_DeInit) for RCC_DeInit
    mcu_init.o(i.RCC_Configuration) refers to stm32f10x_rcc.o(i.RCC_HSEConfig) for RCC_HSEConfig
    mcu_init.o(i.RCC_Configuration) refers to stm32f10x_rcc.o(i.RCC_WaitForHSEStartUp) for RCC_WaitForHSEStartUp
    mcu_init.o(i.RCC_Configuration) refers to stm32f10x_flash.o(i.FLASH_PrefetchBufferCmd) for FLASH_PrefetchBufferCmd
    mcu_init.o(i.RCC_Configuration) refers to stm32f10x_flash.o(i.FLASH_SetLatency) for FLASH_SetLatency
    mcu_init.o(i.RCC_Configuration) refers to stm32f10x_rcc.o(i.RCC_HCLKConfig) for RCC_HCLKConfig
    mcu_init.o(i.RCC_Configuration) refers to stm32f10x_rcc.o(i.RCC_PCLK2Config) for RCC_PCLK2Config
    mcu_init.o(i.RCC_Configuration) refers to stm32f10x_rcc.o(i.RCC_PCLK1Config) for RCC_PCLK1Config
    mcu_init.o(i.RCC_Configuration) refers to stm32f10x_rcc.o(i.RCC_PLLConfig) for RCC_PLLConfig
    mcu_init.o(i.RCC_Configuration) refers to stm32f10x_rcc.o(i.RCC_PLLCmd) for RCC_PLLCmd
    mcu_init.o(i.RCC_Configuration) refers to stm32f10x_rcc.o(i.RCC_ADCCLKConfig) for RCC_ADCCLKConfig
    mcu_init.o(i.RCC_Configuration) refers to stm32f10x_rcc.o(i.RCC_GetFlagStatus) for RCC_GetFlagStatus
    mcu_init.o(i.RCC_Configuration) refers to stm32f10x_rcc.o(i.RCC_SYSCLKConfig) for RCC_SYSCLKConfig
    mcu_init.o(i.RCC_Configuration) refers to stm32f10x_rcc.o(i.RCC_GetSYSCLKSource) for RCC_GetSYSCLKSource
    mcu_init.o(i.RCC_Configuration) refers to stm32f10x_rcc.o(i.RCC_APB1PeriphClockCmd) for RCC_APB1PeriphClockCmd
    mcu_init.o(i.RCC_Configuration) refers to stm32f10x_rcc.o(i.RCC_APB2PeriphClockCmd) for RCC_APB2PeriphClockCmd
    ult.o(i.ATOI) refers to ult.o(i.C2D) for C2D
    ult.o(i.ATOI32) refers to ult.o(i.C2D) for C2D
    ult.o(i.ValidATOI) refers to ult.o(i.C2D) for C2D
    ult.o(i.ValidATOI) refers to ult.o(i.ATOI) for ATOI
    ult.o(i.delay_s) refers to ult.o(i.delay_ms) for delay_ms
    ult.o(i.inet_addr_) refers to strcpy.o(.text) for strcpy
    ult.o(i.inet_addr_) refers to strtok.o(.text) for strtok
    ult.o(i.inet_addr_) refers to ult.o(i.ATOI) for ATOI
    ult.o(i.itoa) refers to memseta.o(.text) for __aeabi_memset
    ult.o(i.mid) refers to strstr.o(.text) for strstr
    ult.o(i.mid) refers to strlen.o(.text) for strlen
    ult.o(i.mid) refers to strncpy.o(.text) for strncpy
    usart2.o(i.USART2_IRQHandler) refers to stm32f10x_usart.o(i.USART_GetITStatus) for USART_GetITStatus
    usart2.o(i.USART2_IRQHandler) refers to stm32f10x_usart.o(i.USART_ITConfig) for USART_ITConfig
    usart2.o(i.USART2_IRQHandler) refers to stm32f10x_usart.o(i.USART_SendData) for USART_SendData
    usart2.o(i.USART2_IRQHandler) refers to stm32f10x_usart.o(i.USART_GetFlagStatus) for USART_GetFlagStatus
    usart2.o(i.USART2_Putc) refers to stm32f10x_usart.o(i.USART_SendData) for USART_SendData
    usart2.o(i.USART2_Putc) refers to stm32f10x_usart.o(i.USART_GetFlagStatus) for USART_GetFlagStatus
    usart2.o(i.USART2_Puts) refers to stm32f10x_usart.o(i.USART_SendData) for USART_SendData
    usart2.o(i.USART2_Puts) refers to stm32f10x_usart.o(i.USART_GetFlagStatus) for USART_GetFlagStatus
    usart2.o(i.usart2_init) refers to stm32f10x_rcc.o(i.RCC_APB2PeriphClockCmd) for RCC_APB2PeriphClockCmd
    usart2.o(i.usart2_init) refers to stm32f10x_rcc.o(i.RCC_APB1PeriphClockCmd) for RCC_APB1PeriphClockCmd
    usart2.o(i.usart2_init) refers to stm32f10x_usart.o(i.USART_DeInit) for USART_DeInit
    usart2.o(i.usart2_init) refers to stm32f10x_gpio.o(i.GPIO_Init) for GPIO_Init
    usart2.o(i.usart2_init) refers to stm32f10x_usart.o(i.USART_ITConfig) for USART_ITConfig
    usart2.o(i.usart2_init) refers to stm32f10x_usart.o(i.USART_Init) for USART_Init
    usart2.o(i.usart2_init) refers to stm32f10x_usart.o(i.USART_Cmd) for USART_Cmd
    usart2.o(i.usart2_printf) refers to printfa.o(i.__0vsprintf) for vsprintf
    usart2.o(i.usart2_printf) refers to strlen.o(.text) for strlen
    usart2.o(i.usart2_printf) refers to stm32f10x_usart.o(i.USART_GetFlagStatus) for USART_GetFlagStatus
    usart2.o(i.usart2_printf) refers to stm32f10x_usart.o(i.USART_SendData) for USART_SendData
    usart2.o(i.usart2_printf) refers to usart2.o(.bss) for USART2_TX_BUF
    sht10.o(i.SHT10_Config) refers to stm32f10x_rcc.o(i.RCC_APB2PeriphClockCmd) for RCC_APB2PeriphClockCmd
    sht10.o(i.SHT10_Config) refers to stm32f10x_gpio.o(i.GPIO_Init) for GPIO_Init
    sht10.o(i.SHT10_Config) refers to sht10.o(i.sht10_conreset) for sht10_conreset
    sht10.o(i.SHT10_DATAIn) refers to stm32f10x_gpio.o(i.GPIO_Init) for GPIO_Init
    sht10.o(i.SHT10_DATAOut) refers to stm32f10x_gpio.o(i.GPIO_Init) for GPIO_Init
    sht10.o(i.SHT10_ReadByte) refers to sht10.o(i.SHT10_DATAIn) for SHT10_DATAIn
    sht10.o(i.SHT10_ReadByte) refers to sht10.o(i.SHT10_Dly) for SHT10_Dly
    sht10.o(i.SHT10_ReadByte) refers to stm32f10x_gpio.o(i.GPIO_SetBits) for GPIO_SetBits
    sht10.o(i.SHT10_ReadByte) refers to stm32f10x_gpio.o(i.GPIO_ReadInputDataBit) for GPIO_ReadInputDataBit
    sht10.o(i.SHT10_ReadByte) refers to stm32f10x_gpio.o(i.GPIO_ResetBits) for GPIO_ResetBits
    sht10.o(i.SHT10_ReadByte) refers to sht10.o(i.SHT10_DATAOut) for SHT10_DATAOut
    sht10.o(i.SHT10_ReadStatusReg) refers to sht10.o(i.SHT10_TransStart) for SHT10_TransStart
    sht10.o(i.SHT10_ReadStatusReg) refers to sht10.o(i.SHT10_WriteByte) for SHT10_WriteByte
    sht10.o(i.SHT10_ReadStatusReg) refers to sht10.o(i.SHT10_ReadByte) for SHT10_ReadByte
    sht10.o(i.SHT10_SoftReset) refers to sht10.o(i.sht10_conreset) for sht10_conreset
    sht10.o(i.SHT10_SoftReset) refers to sht10.o(i.SHT10_WriteByte) for SHT10_WriteByte
    sht10.o(i.SHT10_TransStart) refers to sht10.o(i.SHT10_DATAOut) for SHT10_DATAOut
    sht10.o(i.SHT10_TransStart) refers to stm32f10x_gpio.o(i.GPIO_SetBits) for GPIO_SetBits
    sht10.o(i.SHT10_TransStart) refers to stm32f10x_gpio.o(i.GPIO_ResetBits) for GPIO_ResetBits
    sht10.o(i.SHT10_TransStart) refers to sht10.o(i.SHT10_Dly) for SHT10_Dly
    sht10.o(i.SHT10_WriteByte) refers to sht10.o(i.SHT10_DATAOut) for SHT10_DATAOut
    sht10.o(i.SHT10_WriteByte) refers to stm32f10x_gpio.o(i.GPIO_SetBits) for GPIO_SetBits
    sht10.o(i.SHT10_WriteByte) refers to stm32f10x_gpio.o(i.GPIO_ResetBits) for GPIO_ResetBits
    sht10.o(i.SHT10_WriteByte) refers to sht10.o(i.SHT10_Dly) for SHT10_Dly
    sht10.o(i.SHT10_WriteByte) refers to sht10.o(i.SHT10_DATAIn) for SHT10_DATAIn
    sht10.o(i.SHT10_WriteByte) refers to stm32f10x_gpio.o(i.GPIO_ReadInputDataBit) for GPIO_ReadInputDataBit
    sht10.o(i.SHT10_WriteStatusReg) refers to sht10.o(i.SHT10_TransStart) for SHT10_TransStart
    sht10.o(i.SHT10_WriteStatusReg) refers to sht10.o(i.SHT10_WriteByte) for SHT10_WriteByte
    sht10.o(i.crc8_check) refers to sht10.o(.constdata) for crc8_code
    sht10.o(i.sht10_calcu_dewpoint) refers to f2d.o(.text) for __aeabi_f2d
    sht10.o(i.sht10_calcu_dewpoint) refers to log10.o(i.log10) for log10
    sht10.o(i.sht10_calcu_dewpoint) refers to dadd.o(.text) for __aeabi_dsub
    sht10.o(i.sht10_calcu_dewpoint) refers to dmul.o(.text) for __aeabi_dmul
    sht10.o(i.sht10_calcu_dewpoint) refers to ddiv.o(.text) for __aeabi_ddiv
    sht10.o(i.sht10_calcu_dewpoint) refers to d2f.o(.text) for __aeabi_d2f
    sht10.o(i.sht10_calculate) refers to ffltui.o(.text) for __aeabi_ui2f
    sht10.o(i.sht10_calculate) refers to fmul.o(.text) for __aeabi_fmul
    sht10.o(i.sht10_calculate) refers to fadd.o(.text) for __aeabi_fadd
    sht10.o(i.sht10_calculate) refers to cfrcmple.o(.text) for __aeabi_cfrcmple
    sht10.o(i.sht10_calculate) refers to f2d.o(.text) for __aeabi_f2d
    sht10.o(i.sht10_calculate) refers to cdcmple.o(.text) for __aeabi_cdcmple
    sht10.o(i.sht10_conreset) refers to sht10.o(i.SHT10_DATAOut) for SHT10_DATAOut
    sht10.o(i.sht10_conreset) refers to stm32f10x_gpio.o(i.GPIO_SetBits) for GPIO_SetBits
    sht10.o(i.sht10_conreset) refers to stm32f10x_gpio.o(i.GPIO_ResetBits) for GPIO_ResetBits
    sht10.o(i.sht10_conreset) refers to sht10.o(i.SHT10_Dly) for SHT10_Dly
    sht10.o(i.sht10_conreset) refers to sht10.o(i.SHT10_TransStart) for SHT10_TransStart
    sht10.o(i.sht10_init) refers to sht10.o(i.SHT10_Config) for SHT10_Config
    sht10.o(i.sht10_init) refers to sht10.o(i.SHT10_SoftReset) for SHT10_SoftReset
    sht10.o(i.sht10_init) refers to _xassert.o(i._xassert) for _xassert
    sht10.o(i.sht10_init) refers to ult.o(i.delay_ms) for delay_ms
    sht10.o(i.sht10_measure) refers to sht10.o(i.SHT10_TransStart) for SHT10_TransStart
    sht10.o(i.sht10_measure) refers to sht10.o(i.SHT10_WriteByte) for SHT10_WriteByte
    sht10.o(i.sht10_measure) refers to sht10.o(i.SHT10_DATAIn) for SHT10_DATAIn
    sht10.o(i.sht10_measure) refers to stm32f10x_gpio.o(i.GPIO_ReadInputDataBit) for GPIO_ReadInputDataBit
    sht10.o(i.sht10_measure) refers to _xassert.o(i._xassert) for _xassert
    sht10.o(i.sht10_measure) refers to sht10.o(i.SHT10_ReadByte) for SHT10_ReadByte
    sht10.o(i.sht10_measure) refers to sht10.o(i.crc8_check) for crc8_check
    sht10.o(i.sht10_measure) refers to sht10.o(i.reverse_bit) for reverse_bit
    bh1750_s.o(i.Cmd_Write_BH1750) refers to i2c_s.o(i.I2C_Start) for I2C_Start
    bh1750_s.o(i.Cmd_Write_BH1750) refers to i2c_s.o(i.I2C_Send_Byte) for I2C_Send_Byte
    bh1750_s.o(i.Cmd_Write_BH1750) refers to i2c_s.o(i.I2C_Wait_Ack) for I2C_Wait_Ack
    bh1750_s.o(i.Cmd_Write_BH1750) refers to i2c_s.o(i.I2C_Stop) for I2C_Stop
    bh1750_s.o(i.Cmd_Write_BH1750) refers to ult.o(i.delay_ms) for delay_ms
    bh1750_s.o(i.Convert_BH1750) refers to ffltui.o(.text) for __aeabi_ui2f
    bh1750_s.o(i.Convert_BH1750) refers to f2d.o(.text) for __aeabi_f2d
    bh1750_s.o(i.Convert_BH1750) refers to ddiv.o(.text) for __aeabi_ddiv
    bh1750_s.o(i.Convert_BH1750) refers to d2f.o(.text) for __aeabi_d2f
    bh1750_s.o(i.Convert_BH1750) refers to bh1750_s.o(.data) for BUF
    bh1750_s.o(i.Init_BH1750) refers to i2c_s.o(i.i2c_Port_Init) for i2c_Port_Init
    bh1750_s.o(i.Read_BH1750) refers to i2c_s.o(i.I2C_Start) for I2C_Start
    bh1750_s.o(i.Read_BH1750) refers to i2c_s.o(i.I2C_Send_Byte) for I2C_Send_Byte
    bh1750_s.o(i.Read_BH1750) refers to i2c_s.o(i.I2C_Wait_Ack) for I2C_Wait_Ack
    bh1750_s.o(i.Read_BH1750) refers to i2c_s.o(i.I2C_Read_Byte) for I2C_Read_Byte
    bh1750_s.o(i.Read_BH1750) refers to i2c_s.o(i.I2C_Stop) for I2C_Stop
    bh1750_s.o(i.Read_BH1750) refers to ult.o(i.delay_ms) for delay_ms
    bh1750_s.o(i.Read_BH1750) refers to bh1750_s.o(.data) for BUF
    bh1750_s.o(i.Start_BH1750) refers to bh1750_s.o(i.Cmd_Write_BH1750) for Cmd_Write_BH1750
    bh1750_s.o(i.get_lux_val) refers to bh1750_s.o(i.Init_BH1750) for Init_BH1750
    bh1750_s.o(i.get_lux_val) refers to bh1750_s.o(i.Start_BH1750) for Start_BH1750
    bh1750_s.o(i.get_lux_val) refers to los_task.o(i.LOS_TaskDelay) for LOS_TaskDelay
    bh1750_s.o(i.get_lux_val) refers to bh1750_s.o(i.Read_BH1750) for Read_BH1750
    bh1750_s.o(i.get_lux_val) refers to bh1750_s.o(i.Convert_BH1750) for Convert_BH1750
    bh1750_s.o(i.get_lux_val) refers to ffixui.o(.text) for __aeabi_f2uiz
    bh1750_s.o(i.get_lux_val) refers to bh1750_s.o(.data) for result_lx
    i2c_s.o(i.I2C_Ack) refers to i2c_s.o(i.SDA_OUT) for SDA_OUT
    i2c_s.o(i.I2C_Ack) refers to ult.o(i.delay_us) for delay_us
    i2c_s.o(i.I2C_NAck) refers to i2c_s.o(i.SDA_OUT) for SDA_OUT
    i2c_s.o(i.I2C_NAck) refers to ult.o(i.delay_us) for delay_us
    i2c_s.o(i.I2C_Read_Byte) refers to i2c_s.o(i.SDA_IN) for SDA_IN
    i2c_s.o(i.I2C_Read_Byte) refers to ult.o(i.delay_us) for delay_us
    i2c_s.o(i.I2C_Read_Byte) refers to i2c_s.o(i.I2C_NAck) for I2C_NAck
    i2c_s.o(i.I2C_Read_Byte) refers to i2c_s.o(i.I2C_Ack) for I2C_Ack
    i2c_s.o(i.I2C_Send_Byte) refers to i2c_s.o(i.SDA_OUT) for SDA_OUT
    i2c_s.o(i.I2C_Send_Byte) refers to ult.o(i.delay_us) for delay_us
    i2c_s.o(i.I2C_Start) refers to i2c_s.o(i.SDA_OUT) for SDA_OUT
    i2c_s.o(i.I2C_Start) refers to ult.o(i.delay_us) for delay_us
    i2c_s.o(i.I2C_Stop) refers to i2c_s.o(i.SDA_OUT) for SDA_OUT
    i2c_s.o(i.I2C_Stop) refers to ult.o(i.delay_us) for delay_us
    i2c_s.o(i.I2C_Wait_Ack) refers to ult.o(i.delay_us) for delay_us
    i2c_s.o(i.I2C_Wait_Ack) refers to i2c_s.o(i.SDA_IN) for SDA_IN
    i2c_s.o(i.I2C_Wait_Ack) refers to i2c_s.o(i.I2C_Stop) for I2C_Stop
    i2c_s.o(i.SDA_IN) refers to stm32f10x_gpio.o(i.GPIO_Init) for GPIO_Init
    i2c_s.o(i.SDA_OUT) refers to stm32f10x_gpio.o(i.GPIO_Init) for GPIO_Init
    i2c_s.o(i.i2c_Port_Init) refers to stm32f10x_rcc.o(i.RCC_APB2PeriphClockCmd) for RCC_APB2PeriphClockCmd
    i2c_s.o(i.i2c_Port_Init) refers to stm32f10x_gpio.o(i.GPIO_Init) for GPIO_Init
    usart.o(i.USART1_IRQHandler) refers to stm32f10x_usart.o(i.USART_GetITStatus) for USART_GetITStatus
    usart.o(i.USART1_IRQHandler) refers to stm32f10x_usart.o(i.USART_ITConfig) for USART_ITConfig
    usart.o(i.USART1_IRQHandler) refers to stm32f10x_usart.o(i.USART_ReceiveData) for USART_ReceiveData
    usart.o(i.USART1_IRQHandler) refers to stm32f10x_usart.o(i.USART_SendData) for USART_SendData
    usart.o(i.USART1_IRQHandler) refers to stm32f10x_usart.o(i.USART_GetFlagStatus) for USART_GetFlagStatus
    usart.o(i.USART1_Init) refers to stm32f10x_rcc.o(i.RCC_APB2PeriphClockCmd) for RCC_APB2PeriphClockCmd
    usart.o(i.USART1_Init) refers to stm32f10x_gpio.o(i.GPIO_Init) for GPIO_Init
    usart.o(i.USART1_Init) refers to stm32f10x_usart.o(i.USART_ITConfig) for USART_ITConfig
    usart.o(i.USART1_Init) refers to stm32f10x_usart.o(i.USART_Init) for USART_Init
    usart.o(i.USART1_Init) refers to stm32f10x_usart.o(i.USART_Cmd) for USART_Cmd
    usart.o(i.USART1_Putc) refers to stm32f10x_usart.o(i.USART_SendData) for USART_SendData
    usart.o(i.USART1_Putc) refers to stm32f10x_usart.o(i.USART_GetFlagStatus) for USART_GetFlagStatus
    usart.o(i.USART1_Puts) refers to stm32f10x_usart.o(i.USART_SendData) for USART_SendData
    usart.o(i.USART1_Puts) refers to stm32f10x_usart.o(i.USART_GetFlagStatus) for USART_GetFlagStatus
    usart.o(i.fputc) refers to stm32f10x_usart.o(i.USART_SendData) for USART_SendData
    usart.o(i.fputc) refers to stm32f10x_usart.o(i.USART_GetFlagStatus) for USART_GetFlagStatus
    usart.o(i.usart1_init) refers to usart.o(i.USART1_Init) for USART1_Init
    usart.o(i.usart1_send_nbyte) refers to usart.o(i.USART1_Putc) for USART1_Putc
    umqtt.o(i.umqtt_connect) refers to strlen.o(.text) for strlen
    umqtt.o(i.umqtt_connect) refers to malloc1.o(i.__malloc$1region) for malloc
    umqtt.o(i.umqtt_connect) refers to memcpya.o(.text) for __aeabi_memcpy
    umqtt.o(i.umqtt_connect) refers to umqtt.o(i.umqtt_circ_push) for umqtt_circ_push
    umqtt.o(i.umqtt_connect) refers to umqtt.o(i.umqtt_encode_length) for umqtt_encode_length
    umqtt.o(i.umqtt_connect) refers to malloc1.o(i.__free$1region) for free
    umqtt.o(i.umqtt_handle_publish) refers to malloc1.o(i.__malloc$1region) for malloc
    umqtt.o(i.umqtt_handle_publish) refers to memcpya.o(.text) for __aeabi_memcpy
    umqtt.o(i.umqtt_handle_publish) refers to malloc1.o(i.__free$1region) for free
    umqtt.o(i.umqtt_packet_arrived) refers to malloc1.o(i.__malloc$1region) for malloc
    umqtt.o(i.umqtt_packet_arrived) refers to umqtt.o(i.umqtt_circ_pop) for umqtt_circ_pop
    umqtt.o(i.umqtt_packet_arrived) refers to umqtt.o(i.umqtt_handle_publish) for umqtt_handle_publish
    umqtt.o(i.umqtt_packet_arrived) refers to malloc1.o(i.__free$1region) for free
    umqtt.o(i.umqtt_ping) refers to umqtt.o(i.umqtt_circ_push) for umqtt_circ_push
    umqtt.o(i.umqtt_process) refers to umqtt.o(i.umqtt_circ_pop) for umqtt_circ_pop
    umqtt.o(i.umqtt_process) refers to umqtt.o(i.umqtt_decode_length) for umqtt_decode_length
    umqtt.o(i.umqtt_process) refers to umqtt.o(i.umqtt_packet_arrived) for umqtt_packet_arrived
    umqtt.o(i.umqtt_publish) refers to strlen.o(.text) for strlen
    umqtt.o(i.umqtt_publish) refers to umqtt.o(i.umqtt_circ_push) for umqtt_circ_push
    umqtt.o(i.umqtt_publish) refers to umqtt.o(i.umqtt_encode_length) for umqtt_encode_length
    umqtt.o(i.umqtt_subscribe) refers to strlen.o(.text) for strlen
    umqtt.o(i.umqtt_subscribe) refers to malloc1.o(i.__malloc$1region) for malloc
    umqtt.o(i.umqtt_subscribe) refers to memcpya.o(.text) for __aeabi_memcpy
    umqtt.o(i.umqtt_subscribe) refers to umqtt.o(i.umqtt_circ_push) for umqtt_circ_push
    umqtt.o(i.umqtt_subscribe) refers to umqtt.o(i.umqtt_encode_length) for umqtt_encode_length
    umqtt.o(i.umqtt_subscribe) refers to malloc1.o(i.__free$1region) for free
    task.o(i.creat_task_get_air_temp_humi) refers to los_task.o(i.LOS_TaskCreate) for LOS_TaskCreate
    task.o(i.creat_task_get_air_temp_humi) refers to task.o(i.task_get_air_temp_humi) for task_get_air_temp_humi
    task.o(i.creat_task_get_air_temp_humi) refers to main.o(.data) for g_TestTskHandle
    task.o(i.creat_task_get_lux) refers to los_task.o(i.LOS_TaskCreate) for LOS_TaskCreate
    task.o(i.creat_task_get_lux) refers to task.o(i.task_get_lux) for task_get_lux
    task.o(i.creat_task_get_lux) refers to main.o(.data) for g_TestTskHandle
    task.o(i.creat_task_test) refers to los_task.o(i.LOS_TaskCreate) for LOS_TaskCreate
    task.o(i.creat_task_test) refers to task.o(i.task_test) for task_test
    task.o(i.creat_task_test) refers to main.o(.data) for g_TestTskHandle
    task.o(i.task_get_air_temp_humi) refers to sht10.o(i.sht10_measure) for sht10_measure
    task.o(i.task_get_air_temp_humi) refers to _xassert.o(i._xassert) for _xassert
    task.o(i.task_get_air_temp_humi) refers to sht10.o(i.sht10_conreset) for sht10_conreset
    task.o(i.task_get_air_temp_humi) refers to sht10.o(i.sht10_calculate) for sht10_calculate
    task.o(i.task_get_air_temp_humi) refers to fmul.o(.text) for __aeabi_fmul
    task.o(i.task_get_air_temp_humi) refers to ffixi.o(.text) for __aeabi_f2iz
    task.o(i.task_get_air_temp_humi) refers to usart2.o(i.usart2_printf) for usart2_printf
    task.o(i.task_get_air_temp_humi) refers to los_task.o(i.LOS_TaskDelay) for LOS_TaskDelay
    task.o(i.task_get_air_temp_humi) refers to task.o(.data) for air_h
    task.o(i.task_get_lux) refers to bh1750_s.o(i.get_lux_val) for get_lux_val
    task.o(i.task_get_lux) refers to usart2.o(i.usart2_printf) for usart2_printf
    task.o(i.task_get_lux) refers to los_task.o(i.LOS_TaskDelay) for LOS_TaskDelay
    task.o(i.task_get_lux) refers to task.o(.data) for lux
    task.o(i.task_test) refers to los_task.o(i.LOS_TaskDelay) for LOS_TaskDelay
    mqtt_task.o(i.creat_task_mqtt) refers to los_task.o(i.LOS_TaskCreate) for LOS_TaskCreate
    mqtt_task.o(i.creat_task_mqtt) refers to mqtt_task.o(i.task_mqtt) for task_mqtt
    mqtt_task.o(i.creat_task_mqtt) refers to main.o(.data) for g_TestTskHandle
    mqtt_task.o(i.network_umqtt_init) refers to umqtt.o(i.umqtt_init) for umqtt_init
    mqtt_task.o(i.network_umqtt_init) refers to umqtt.o(i.umqtt_circ_init) for umqtt_circ_init
    mqtt_task.o(i.network_umqtt_init) refers to umqtt.o(i.umqtt_connect) for umqtt_connect
    mqtt_task.o(i.task_mqtt) refers to umqtt.o(i.umqtt_circ_pop) for umqtt_circ_pop
    mqtt_task.o(i.task_mqtt) refers to usart.o(i.usart1_send_nbyte) for usart1_send_nbyte
    mqtt_task.o(i.task_mqtt) refers to umqtt.o(i.umqtt_ping) for umqtt_ping
    mqtt_task.o(i.task_mqtt) refers to dflti.o(.text) for __aeabi_i2d
    mqtt_task.o(i.task_mqtt) refers to ddiv.o(.text) for __aeabi_ddiv
    mqtt_task.o(i.task_mqtt) refers to printfa.o(i.__0sprintf) for __2sprintf
    mqtt_task.o(i.task_mqtt) refers to strlen.o(.text) for strlen
    mqtt_task.o(i.task_mqtt) refers to umqtt.o(i.umqtt_publish) for umqtt_publish
    mqtt_task.o(i.task_mqtt) refers to los_task.o(i.LOS_TaskDelay) for LOS_TaskDelay
    mqtt_task.o(i.task_mqtt) refers to mqtt_task.o(.data) for mqtt
    mqtt_task.o(i.task_mqtt) refers to task.o(.data) for air_h
    mqtt_task.o(i.task_mqtt) refers to mqtt_task.o(.bss) for json_buf
    mqtt_task.o(i.usr_umqtt_init) refers to mqtt_task.o(i.network_umqtt_init) for network_umqtt_init
    mqtt_task.o(i.usr_umqtt_init) refers to mqtt_task.o(.data) for mqtt
    mqtt_task.o(.data) refers to mqtt_task.o(.bss) for mqtt_txbuff
    mqtt_task.o(.data) refers to mqtt_task.o(i.handle_message) for handle_message
    log10.o(i.__softfp_log10) refers (Special) to iusefp.o(.text) for __I$use$fp
    log10.o(i.__softfp_log10) refers to log10.o(i.log10) for log10
    log10.o(i.log10) refers (Special) to iusefp.o(.text) for __I$use$fp
    log10.o(i.log10) refers to dunder.o(i.__mathlib_dbl_infnan) for __mathlib_dbl_infnan
    log10.o(i.log10) refers to errno.o(i.__set_errno) for __set_errno
    log10.o(i.log10) refers to dunder.o(i.__mathlib_dbl_invalid) for __mathlib_dbl_invalid
    log10.o(i.log10) refers to dunder.o(i.__mathlib_dbl_divzero) for __mathlib_dbl_divzero
    log10.o(i.log10) refers to dscalb.o(.text) for __ARM_scalbn
    log10.o(i.log10) refers to dflti.o(.text) for __aeabi_i2d
    log10.o(i.log10) refers to log.o(i.log) for log
    log10.o(i.log10) refers to dmul.o(.text) for __aeabi_dmul
    log10.o(i.log10) refers to dadd.o(.text) for __aeabi_dadd
    log10_x.o(i.____softfp_log10$lsc) refers (Special) to iusefp.o(.text) for __I$use$fp
    log10_x.o(i.____softfp_log10$lsc) refers to log10_x.o(i.__log10$lsc) for __log10$lsc
    log10_x.o(i.__log10$lsc) refers (Special) to iusefp.o(.text) for __I$use$fp
    log10_x.o(i.__log10$lsc) refers to dunder.o(i.__mathlib_dbl_infnan) for __mathlib_dbl_infnan
    log10_x.o(i.__log10$lsc) refers to errno.o(i.__set_errno) for __set_errno
    log10_x.o(i.__log10$lsc) refers to dscalb.o(.text) for __ARM_scalbn
    log10_x.o(i.__log10$lsc) refers to dflti.o(.text) for __aeabi_i2d
    log10_x.o(i.__log10$lsc) refers to log.o(i.log) for log
    log10_x.o(i.__log10$lsc) refers to dmul.o(.text) for __aeabi_dmul
    log10_x.o(i.__log10$lsc) refers to dadd.o(.text) for __aeabi_dadd
    entry.o(.ARM.Collect$$$$00000000) refers (Special) to entry10a.o(.ARM.Collect$$$$0000000D) for __rt_final_cpp
    entry.o(.ARM.Collect$$$$00000000) refers (Special) to entry11a.o(.ARM.Collect$$$$0000000F) for __rt_final_exit
    entry.o(.ARM.Collect$$$$00000000) refers (Special) to entry7b.o(.ARM.Collect$$$$00000008) for _main_clock
    entry.o(.ARM.Collect$$$$00000000) refers (Special) to entry8b.o(.ARM.Collect$$$$0000000A) for _main_cpp_init
    entry.o(.ARM.Collect$$$$00000000) refers (Special) to entry9a.o(.ARM.Collect$$$$0000000B) for _main_init
    entry.o(.ARM.Collect$$$$00000000) refers (Special) to entry5.o(.ARM.Collect$$$$00000004) for _main_scatterload
    entry.o(.ARM.Collect$$$$00000000) refers (Special) to entry3.o(.ARM.Collect$$$$00000002) for _main_stk
    uldiv.o(.text) refers to llushr.o(.text) for __aeabi_llsr
    uldiv.o(.text) refers to llshl.o(.text) for __aeabi_llsl
    strtok.o(.text) refers to strtok.o(.data) for .data
    strtok_r.o(.text) refers to strtok_r.o(.data) for .data
    printfb.o(i.__0fprintf$bare) refers to printfb.o(i._printf_core) for _printf_core
    printfb.o(i.__0fprintf$bare) refers to usart.o(i.fputc) for fputc
    printfb.o(i.__0printf$bare) refers to printfb.o(i._printf_core) for _printf_core
    printfb.o(i.__0printf$bare) refers to usart.o(i.fputc) for fputc
    printfb.o(i.__0printf$bare) refers to stdout.o(.data) for __stdout
    printfb.o(i.__0snprintf$bare) refers to printfb.o(i._printf_core) for _printf_core
    printfb.o(i.__0snprintf$bare) refers to printfb.o(i._snputc) for _snputc
    printfb.o(i.__0sprintf$bare) refers to printfb.o(i._printf_core) for _printf_core
    printfb.o(i.__0sprintf$bare) refers to printfb.o(i._sputc) for _sputc
    printfb.o(i.__0vfprintf$bare) refers to printfb.o(i._printf_core) for _printf_core
    printfb.o(i.__0vfprintf$bare) refers to usart.o(i.fputc) for fputc
    printfb.o(i.__0vprintf$bare) refers to printfb.o(i._printf_core) for _printf_core
    printfb.o(i.__0vprintf$bare) refers to usart.o(i.fputc) for fputc
    printfb.o(i.__0vprintf$bare) refers to stdout.o(.data) for __stdout
    printfb.o(i.__0vsnprintf$bare) refers to printfb.o(i._printf_core) for _printf_core
    printfb.o(i.__0vsnprintf$bare) refers to printfb.o(i._snputc) for _snputc
    printfb.o(i.__0vsprintf$bare) refers to printfb.o(i._printf_core) for _printf_core
    printfb.o(i.__0vsprintf$bare) refers to printfb.o(i._sputc) for _sputc
    printf0.o(i.__0fprintf$0) refers to printf0.o(i._printf_core) for _printf_core
    printf0.o(i.__0fprintf$0) refers to usart.o(i.fputc) for fputc
    printf0.o(i.__0printf$0) refers to printf0.o(i._printf_core) for _printf_core
    printf0.o(i.__0printf$0) refers to usart.o(i.fputc) for fputc
    printf0.o(i.__0printf$0) refers to stdout.o(.data) for __stdout
    printf0.o(i.__0snprintf$0) refers to printf0.o(i._printf_core) for _printf_core
    printf0.o(i.__0snprintf$0) refers to printf0.o(i._snputc) for _snputc
    printf0.o(i.__0sprintf$0) refers to printf0.o(i._printf_core) for _printf_core
    printf0.o(i.__0sprintf$0) refers to printf0.o(i._sputc) for _sputc
    printf0.o(i.__0vfprintf$0) refers to printf0.o(i._printf_core) for _printf_core
    printf0.o(i.__0vfprintf$0) refers to usart.o(i.fputc) for fputc
    printf0.o(i.__0vprintf$0) refers to printf0.o(i._printf_core) for _printf_core
    printf0.o(i.__0vprintf$0) refers to usart.o(i.fputc) for fputc
    printf0.o(i.__0vprintf$0) refers to stdout.o(.data) for __stdout
    printf0.o(i.__0vsnprintf$0) refers to printf0.o(i._printf_core) for _printf_core
    printf0.o(i.__0vsnprintf$0) refers to printf0.o(i._snputc) for _snputc
    printf0.o(i.__0vsprintf$0) refers to printf0.o(i._printf_core) for _printf_core
    printf0.o(i.__0vsprintf$0) refers to printf0.o(i._sputc) for _sputc
    printf1.o(i.__0fprintf$1) refers to printf1.o(i._printf_core) for _printf_core
    printf1.o(i.__0fprintf$1) refers to usart.o(i.fputc) for fputc
    printf1.o(i.__0printf$1) refers to printf1.o(i._printf_core) for _printf_core
    printf1.o(i.__0printf$1) refers to usart.o(i.fputc) for fputc
    printf1.o(i.__0printf$1) refers to stdout.o(.data) for __stdout
    printf1.o(i.__0snprintf$1) refers to printf1.o(i._printf_core) for _printf_core
    printf1.o(i.__0snprintf$1) refers to printf1.o(i._snputc) for _snputc
    printf1.o(i.__0sprintf$1) refers to printf1.o(i._printf_core) for _printf_core
    printf1.o(i.__0sprintf$1) refers to printf1.o(i._sputc) for _sputc
    printf1.o(i.__0vfprintf$1) refers to printf1.o(i._printf_core) for _printf_core
    printf1.o(i.__0vfprintf$1) refers to usart.o(i.fputc) for fputc
    printf1.o(i.__0vprintf$1) refers to printf1.o(i._printf_core) for _printf_core
    printf1.o(i.__0vprintf$1) refers to usart.o(i.fputc) for fputc
    printf1.o(i.__0vprintf$1) refers to stdout.o(.data) for __stdout
    printf1.o(i.__0vsnprintf$1) refers to printf1.o(i._printf_core) for _printf_core
    printf1.o(i.__0vsnprintf$1) refers to printf1.o(i._snputc) for _snputc
    printf1.o(i.__0vsprintf$1) refers to printf1.o(i._printf_core) for _printf_core
    printf1.o(i.__0vsprintf$1) refers to printf1.o(i._sputc) for _sputc
    printf1.o(i._printf_core) refers to uidiv.o(.text) for __aeabi_uidivmod
    printf2.o(i.__0fprintf$2) refers to printf2.o(i._printf_core) for _printf_core
    printf2.o(i.__0fprintf$2) refers to usart.o(i.fputc) for fputc
    printf2.o(i.__0printf$2) refers to printf2.o(i._printf_core) for _printf_core
    printf2.o(i.__0printf$2) refers to usart.o(i.fputc) for fputc
    printf2.o(i.__0printf$2) refers to stdout.o(.data) for __stdout
    printf2.o(i.__0snprintf$2) refers to printf2.o(i._printf_core) for _printf_core
    printf2.o(i.__0snprintf$2) refers to printf2.o(i._snputc) for _snputc
    printf2.o(i.__0sprintf$2) refers to printf2.o(i._printf_core) for _printf_core
    printf2.o(i.__0sprintf$2) refers to printf2.o(i._sputc) for _sputc
    printf2.o(i.__0vfprintf$2) refers to printf2.o(i._printf_core) for _printf_core
    printf2.o(i.__0vfprintf$2) refers to usart.o(i.fputc) for fputc
    printf2.o(i.__0vprintf$2) refers to printf2.o(i._printf_core) for _printf_core
    printf2.o(i.__0vprintf$2) refers to usart.o(i.fputc) for fputc
    printf2.o(i.__0vprintf$2) refers to stdout.o(.data) for __stdout
    printf2.o(i.__0vsnprintf$2) refers to printf2.o(i._printf_core) for _printf_core
    printf2.o(i.__0vsnprintf$2) refers to printf2.o(i._snputc) for _snputc
    printf2.o(i.__0vsprintf$2) refers to printf2.o(i._printf_core) for _printf_core
    printf2.o(i.__0vsprintf$2) refers to printf2.o(i._sputc) for _sputc
    printf3.o(i.__0fprintf$3) refers to printf3.o(i._printf_core) for _printf_core
    printf3.o(i.__0fprintf$3) refers to usart.o(i.fputc) for fputc
    printf3.o(i.__0printf$3) refers to printf3.o(i._printf_core) for _printf_core
    printf3.o(i.__0printf$3) refers to usart.o(i.fputc) for fputc
    printf3.o(i.__0printf$3) refers to stdout.o(.data) for __stdout
    printf3.o(i.__0snprintf$3) refers to printf3.o(i._printf_core) for _printf_core
    printf3.o(i.__0snprintf$3) refers to printf3.o(i._snputc) for _snputc
    printf3.o(i.__0sprintf$3) refers to printf3.o(i._printf_core) for _printf_core
    printf3.o(i.__0sprintf$3) refers to printf3.o(i._sputc) for _sputc
    printf3.o(i.__0vfprintf$3) refers to printf3.o(i._printf_core) for _printf_core
    printf3.o(i.__0vfprintf$3) refers to usart.o(i.fputc) for fputc
    printf3.o(i.__0vprintf$3) refers to printf3.o(i._printf_core) for _printf_core
    printf3.o(i.__0vprintf$3) refers to usart.o(i.fputc) for fputc
    printf3.o(i.__0vprintf$3) refers to stdout.o(.data) for __stdout
    printf3.o(i.__0vsnprintf$3) refers to printf3.o(i._printf_core) for _printf_core
    printf3.o(i.__0vsnprintf$3) refers to printf3.o(i._snputc) for _snputc
    printf3.o(i.__0vsprintf$3) refers to printf3.o(i._printf_core) for _printf_core
    printf3.o(i.__0vsprintf$3) refers to printf3.o(i._sputc) for _sputc
    printf3.o(i._printf_core) refers to uidiv.o(.text) for __aeabi_uidivmod
    printf4.o(i.__0fprintf$4) refers to printf4.o(i._printf_core) for _printf_core
    printf4.o(i.__0fprintf$4) refers to usart.o(i.fputc) for fputc
    printf4.o(i.__0printf$4) refers to printf4.o(i._printf_core) for _printf_core
    printf4.o(i.__0printf$4) refers to usart.o(i.fputc) for fputc
    printf4.o(i.__0printf$4) refers to stdout.o(.data) for __stdout
    printf4.o(i.__0snprintf$4) refers to printf4.o(i._printf_core) for _printf_core
    printf4.o(i.__0snprintf$4) refers to printf4.o(i._snputc) for _snputc
    printf4.o(i.__0sprintf$4) refers to printf4.o(i._printf_core) for _printf_core
    printf4.o(i.__0sprintf$4) refers to printf4.o(i._sputc) for _sputc
    printf4.o(i.__0vfprintf$4) refers to printf4.o(i._printf_core) for _printf_core
    printf4.o(i.__0vfprintf$4) refers to usart.o(i.fputc) for fputc
    printf4.o(i.__0vprintf$4) refers to printf4.o(i._printf_core) for _printf_core
    printf4.o(i.__0vprintf$4) refers to usart.o(i.fputc) for fputc
    printf4.o(i.__0vprintf$4) refers to stdout.o(.data) for __stdout
    printf4.o(i.__0vsnprintf$4) refers to printf4.o(i._printf_core) for _printf_core
    printf4.o(i.__0vsnprintf$4) refers to printf4.o(i._snputc) for _snputc
    printf4.o(i.__0vsprintf$4) refers to printf4.o(i._printf_core) for _printf_core
    printf4.o(i.__0vsprintf$4) refers to printf4.o(i._sputc) for _sputc
    printf4.o(i._printf_core) refers to uldiv.o(.text) for __aeabi_uldivmod
    printf5.o(i.__0fprintf$5) refers to printf5.o(i._printf_core) for _printf_core
    printf5.o(i.__0fprintf$5) refers to usart.o(i.fputc) for fputc
    printf5.o(i.__0printf$5) refers to printf5.o(i._printf_core) for _printf_core
    printf5.o(i.__0printf$5) refers to usart.o(i.fputc) for fputc
    printf5.o(i.__0printf$5) refers to stdout.o(.data) for __stdout
    printf5.o(i.__0snprintf$5) refers to printf5.o(i._printf_core) for _printf_core
    printf5.o(i.__0snprintf$5) refers to printf5.o(i._snputc) for _snputc
    printf5.o(i.__0sprintf$5) refers to printf5.o(i._printf_core) for _printf_core
    printf5.o(i.__0sprintf$5) refers to printf5.o(i._sputc) for _sputc
    printf5.o(i.__0vfprintf$5) refers to printf5.o(i._printf_core) for _printf_core
    printf5.o(i.__0vfprintf$5) refers to usart.o(i.fputc) for fputc
    printf5.o(i.__0vprintf$5) refers to printf5.o(i._printf_core) for _printf_core
    printf5.o(i.__0vprintf$5) refers to usart.o(i.fputc) for fputc
    printf5.o(i.__0vprintf$5) refers to stdout.o(.data) for __stdout
    printf5.o(i.__0vsnprintf$5) refers to printf5.o(i._printf_core) for _printf_core
    printf5.o(i.__0vsnprintf$5) refers to printf5.o(i._snputc) for _snputc
    printf5.o(i.__0vsprintf$5) refers to printf5.o(i._printf_core) for _printf_core
    printf5.o(i.__0vsprintf$5) refers to printf5.o(i._sputc) for _sputc
    printf5.o(i._printf_core) refers to uldiv.o(.text) for __aeabi_uldivmod
    printf6.o(i.__0fprintf$6) refers to printf6.o(i._printf_core) for _printf_core
    printf6.o(i.__0fprintf$6) refers to usart.o(i.fputc) for fputc
    printf6.o(i.__0printf$6) refers to printf6.o(i._printf_core) for _printf_core
    printf6.o(i.__0printf$6) refers to usart.o(i.fputc) for fputc
    printf6.o(i.__0printf$6) refers to stdout.o(.data) for __stdout
    printf6.o(i.__0snprintf$6) refers to printf6.o(i._printf_core) for _printf_core
    printf6.o(i.__0snprintf$6) refers to printf6.o(i._snputc) for _snputc
    printf6.o(i.__0sprintf$6) refers to printf6.o(i._printf_core) for _printf_core
    printf6.o(i.__0sprintf$6) refers to printf6.o(i._sputc) for _sputc
    printf6.o(i.__0vfprintf$6) refers to printf6.o(i._printf_core) for _printf_core
    printf6.o(i.__0vfprintf$6) refers to usart.o(i.fputc) for fputc
    printf6.o(i.__0vprintf$6) refers to printf6.o(i._printf_core) for _printf_core
    printf6.o(i.__0vprintf$6) refers to usart.o(i.fputc) for fputc
    printf6.o(i.__0vprintf$6) refers to stdout.o(.data) for __stdout
    printf6.o(i.__0vsnprintf$6) refers to printf6.o(i._printf_core) for _printf_core
    printf6.o(i.__0vsnprintf$6) refers to printf6.o(i._snputc) for _snputc
    printf6.o(i.__0vsprintf$6) refers to printf6.o(i._printf_core) for _printf_core
    printf6.o(i.__0vsprintf$6) refers to printf6.o(i._sputc) for _sputc
    printf6.o(i._printf_core) refers to printf6.o(i._printf_pre_padding) for _printf_pre_padding
    printf6.o(i._printf_core) refers to uidiv.o(.text) for __aeabi_uidivmod
    printf6.o(i._printf_core) refers to printf6.o(i._printf_post_padding) for _printf_post_padding
    printf7.o(i.__0fprintf$7) refers to printf7.o(i._printf_core) for _printf_core
    printf7.o(i.__0fprintf$7) refers to usart.o(i.fputc) for fputc
    printf7.o(i.__0printf$7) refers to printf7.o(i._printf_core) for _printf_core
    printf7.o(i.__0printf$7) refers to usart.o(i.fputc) for fputc
    printf7.o(i.__0printf$7) refers to stdout.o(.data) for __stdout
    printf7.o(i.__0snprintf$7) refers to printf7.o(i._printf_core) for _printf_core
    printf7.o(i.__0snprintf$7) refers to printf7.o(i._snputc) for _snputc
    printf7.o(i.__0sprintf$7) refers to printf7.o(i._printf_core) for _printf_core
    printf7.o(i.__0sprintf$7) refers to printf7.o(i._sputc) for _sputc
    printf7.o(i.__0vfprintf$7) refers to printf7.o(i._printf_core) for _printf_core
    printf7.o(i.__0vfprintf$7) refers to usart.o(i.fputc) for fputc
    printf7.o(i.__0vprintf$7) refers to printf7.o(i._printf_core) for _printf_core
    printf7.o(i.__0vprintf$7) refers to usart.o(i.fputc) for fputc
    printf7.o(i.__0vprintf$7) refers to stdout.o(.data) for __stdout
    printf7.o(i.__0vsnprintf$7) refers to printf7.o(i._printf_core) for _printf_core
    printf7.o(i.__0vsnprintf$7) refers to printf7.o(i._snputc) for _snputc
    printf7.o(i.__0vsprintf$7) refers to printf7.o(i._printf_core) for _printf_core
    printf7.o(i.__0vsprintf$7) refers to printf7.o(i._sputc) for _sputc
    printf7.o(i._printf_core) refers to printf7.o(i._printf_pre_padding) for _printf_pre_padding
    printf7.o(i._printf_core) refers to uldiv.o(.text) for __aeabi_uldivmod
    printf7.o(i._printf_core) refers to printf7.o(i._printf_post_padding) for _printf_post_padding
    printf8.o(i.__0fprintf$8) refers to printf8.o(i._printf_core) for _printf_core
    printf8.o(i.__0fprintf$8) refers to usart.o(i.fputc) for fputc
    printf8.o(i.__0printf$8) refers to printf8.o(i._printf_core) for _printf_core
    printf8.o(i.__0printf$8) refers to usart.o(i.fputc) for fputc
    printf8.o(i.__0printf$8) refers to stdout.o(.data) for __stdout
    printf8.o(i.__0snprintf$8) refers to printf8.o(i._printf_core) for _printf_core
    printf8.o(i.__0snprintf$8) refers to printf8.o(i._snputc) for _snputc
    printf8.o(i.__0sprintf$8) refers to printf8.o(i._printf_core) for _printf_core
    printf8.o(i.__0sprintf$8) refers to printf8.o(i._sputc) for _sputc
    printf8.o(i.__0vfprintf$8) refers to printf8.o(i._printf_core) for _printf_core
    printf8.o(i.__0vfprintf$8) refers to usart.o(i.fputc) for fputc
    printf8.o(i.__0vprintf$8) refers to printf8.o(i._printf_core) for _printf_core
    printf8.o(i.__0vprintf$8) refers to usart.o(i.fputc) for fputc
    printf8.o(i.__0vprintf$8) refers to stdout.o(.data) for __stdout
    printf8.o(i.__0vsnprintf$8) refers to printf8.o(i._printf_core) for _printf_core
    printf8.o(i.__0vsnprintf$8) refers to printf8.o(i._snputc) for _snputc
    printf8.o(i.__0vsprintf$8) refers to printf8.o(i._printf_core) for _printf_core
    printf8.o(i.__0vsprintf$8) refers to printf8.o(i._sputc) for _sputc
    printf8.o(i._printf_core) refers to printf8.o(i._printf_pre_padding) for _printf_pre_padding
    printf8.o(i._printf_core) refers to uldiv.o(.text) for __aeabi_uldivmod
    printf8.o(i._printf_core) refers to printf8.o(i._printf_post_padding) for _printf_post_padding
    printfa.o(i.__0fprintf) refers (Special) to iusefp.o(.text) for __I$use$fp
    printfa.o(i.__0fprintf) refers to printfa.o(i._printf_core) for _printf_core
    printfa.o(i.__0fprintf) refers to usart.o(i.fputc) for fputc
    printfa.o(i.__0printf) refers (Special) to iusefp.o(.text) for __I$use$fp
    printfa.o(i.__0printf) refers to printfa.o(i._printf_core) for _printf_core
    printfa.o(i.__0printf) refers to usart.o(i.fputc) for fputc
    printfa.o(i.__0printf) refers to stdout.o(.data) for __stdout
    printfa.o(i.__0snprintf) refers (Special) to iusefp.o(.text) for __I$use$fp
    printfa.o(i.__0snprintf) refers to printfa.o(i._printf_core) for _printf_core
    printfa.o(i.__0snprintf) refers to printfa.o(i._snputc) for _snputc
    printfa.o(i.__0sprintf) refers (Special) to iusefp.o(.text) for __I$use$fp
    printfa.o(i.__0sprintf) refers to printfa.o(i._printf_core) for _printf_core
    printfa.o(i.__0sprintf) refers to printfa.o(i._sputc) for _sputc
    printfa.o(i.__0vfprintf) refers (Special) to iusefp.o(.text) for __I$use$fp
    printfa.o(i.__0vfprintf) refers to printfa.o(i._printf_core) for _printf_core
    printfa.o(i.__0vfprintf) refers to usart.o(i.fputc) for fputc
    printfa.o(i.__0vprintf) refers (Special) to iusefp.o(.text) for __I$use$fp
    printfa.o(i.__0vprintf) refers to printfa.o(i._printf_core) for _printf_core
    printfa.o(i.__0vprintf) refers to usart.o(i.fputc) for fputc
    printfa.o(i.__0vprintf) refers to stdout.o(.data) for __stdout
    printfa.o(i.__0vsnprintf) refers (Special) to iusefp.o(.text) for __I$use$fp
    printfa.o(i.__0vsnprintf) refers to printfa.o(i._printf_core) for _printf_core
    printfa.o(i.__0vsnprintf) refers to printfa.o(i._snputc) for _snputc
    printfa.o(i.__0vsprintf) refers (Special) to iusefp.o(.text) for __I$use$fp
    printfa.o(i.__0vsprintf) refers to printfa.o(i._printf_core) for _printf_core
    printfa.o(i.__0vsprintf) refers to printfa.o(i._sputc) for _sputc
    printfa.o(i._fp_digits) refers (Special) to iusefp.o(.text) for __I$use$fp
    printfa.o(i._fp_digits) refers to dmul.o(.text) for __aeabi_dmul
    printfa.o(i._fp_digits) refers to ddiv.o(.text) for __aeabi_ddiv
    printfa.o(i._fp_digits) refers to cdrcmple.o(.text) for __aeabi_cdrcmple
    printfa.o(i._fp_digits) refers to dadd.o(.text) for __aeabi_dadd
    printfa.o(i._fp_digits) refers to dfixul.o(.text) for __aeabi_d2ulz
    printfa.o(i._fp_digits) refers to uldiv.o(.text) for __aeabi_uldivmod
    printfa.o(i._printf_core) refers (Special) to iusefp.o(.text) for __I$use$fp
    printfa.o(i._printf_core) refers to printfa.o(i._printf_pre_padding) for _printf_pre_padding
    printfa.o(i._printf_core) refers to uldiv.o(.text) for __aeabi_uldivmod
    printfa.o(i._printf_core) refers to printfa.o(i._printf_post_padding) for _printf_post_padding
    printfa.o(i._printf_core) refers to printfa.o(i._fp_digits) for _fp_digits
    printfa.o(i._printf_core) refers to uidiv.o(.text) for __aeabi_uidivmod
    printfa.o(i._printf_post_padding) refers (Special) to iusefp.o(.text) for __I$use$fp
    printfa.o(i._printf_pre_padding) refers (Special) to iusefp.o(.text) for __I$use$fp
    printfa.o(i._snputc) refers (Special) to iusefp.o(.text) for __I$use$fp
    printfa.o(i._sputc) refers (Special) to iusefp.o(.text) for __I$use$fp
    malloc1.o(i.__free$1region) refers to mvars.o(.data) for __microlib_freelist
    malloc1.o(i.__malloc$1region) refers to mvars.o(.data) for __microlib_freelist_initialised
    malloc1.o(i.__malloc$1region) refers to mvars.o(.data) for __microlib_freelist
    mallocr1.o(i.__free$realloc$1region) refers to mvars.o(.data) for __microlib_freelist
    mallocr1.o(i.__malloc$realloc$1region) refers to mallocr1.o(i.internal_alloc) for internal_alloc
    mallocr1.o(i.__malloc$realloc$1region) refers to mvars.o(.data) for __microlib_freelist_initialised
    mallocr1.o(i.__malloc$realloc$1region) refers to mvars.o(.data) for __microlib_freelist
    mallocr1.o(i.__realloc$1region) refers to mallocr1.o(i.__free$realloc$1region) for __free$realloc$1region
    mallocr1.o(i.__realloc$1region) refers to mallocr1.o(i.internal_alloc) for internal_alloc
    mallocr1.o(i.__realloc$1region) refers to mallocr1.o(i.__malloc$realloc$1region) for __malloc$realloc$1region
    mallocr1.o(i.__realloc$1region) refers to mvars.o(.data) for __microlib_freelist
    mallocr1.o(i.internal_alloc) refers to memcpya.o(.text) for __aeabi_memcpy
    mallocr1.o(i.internal_alloc) refers to mvars.o(.data) for __microlib_freelist
    malloca1.o(i.__aligned_malloc$1region) refers to mvars.o(.data) for __microlib_freelist_initialised
    malloca1.o(i.__aligned_malloc$1region) refers to mvars.o(.data) for __microlib_freelist
    malloca1.o(i.__free$memalign$1region) refers to mvars.o(.data) for __microlib_freelist
    malloca1.o(i.__malloc$memalign$1region) refers to malloca1.o(i.__aligned_malloc$1region) for __aligned_malloc$1region
    mallocra1.o(i.__aligned_malloc$realloc$1region) refers to mallocra1.o(i.internal_alloc) for internal_alloc
    mallocra1.o(i.__aligned_malloc$realloc$1region) refers to mvars.o(.data) for __microlib_freelist_initialised
    mallocra1.o(i.__aligned_malloc$realloc$1region) refers to mvars.o(.data) for __microlib_freelist
    mallocra1.o(i.__free$realloc$memalign$1region) refers to mvars.o(.data) for __microlib_freelist
    mallocra1.o(i.__malloc$realloc$memalign$1region) refers to mallocra1.o(i.__aligned_malloc$realloc$1region) for __aligned_malloc$realloc$1region
    mallocra1.o(i.__realloc$memalign$1region) refers to mallocra1.o(i.__free$realloc$memalign$1region) for __free$realloc$memalign$1region
    mallocra1.o(i.__realloc$memalign$1region) refers to mallocra1.o(i.internal_alloc) for internal_alloc
    mallocra1.o(i.__realloc$memalign$1region) refers to mallocra1.o(i.__malloc$realloc$memalign$1region) for __malloc$realloc$memalign$1region
    mallocra1.o(i.__realloc$memalign$1region) refers to mvars.o(.data) for __microlib_freelist
    mallocra1.o(i.internal_alloc) refers to memcpya.o(.text) for __aeabi_memcpy
    mallocra1.o(i.internal_alloc) refers to mvars.o(.data) for __microlib_freelist
    fadd.o(.text) refers (Special) to iusefp.o(.text) for __I$use$fp
    fadd.o(.text) refers to fepilogue.o(.text) for _float_epilogue
    fmul.o(.text) refers (Special) to iusefp.o(.text) for __I$use$fp
    dadd.o(.text) refers (Special) to iusefp.o(.text) for __I$use$fp
    dadd.o(.text) refers to llshl.o(.text) for __aeabi_llsl
    dadd.o(.text) refers to llsshr.o(.text) for __aeabi_lasr
    dadd.o(.text) refers to depilogue.o(.text) for _double_epilogue
    dmul.o(.text) refers (Special) to iusefp.o(.text) for __I$use$fp
    dmul.o(.text) refers to depilogue.o(.text) for _double_epilogue
    ddiv.o(.text) refers (Special) to iusefp.o(.text) for __I$use$fp
    ddiv.o(.text) refers to depilogue.o(.text) for _double_round
    ffltui.o(.text) refers (Special) to iusefp.o(.text) for __I$use$fp
    ffltui.o(.text) refers to fepilogue.o(.text) for _float_epilogue
    dflti.o(.text) refers (Special) to iusefp.o(.text) for __I$use$fp
    dflti.o(.text) refers to depilogue.o(.text) for _double_epilogue
    dfltul.o(.text) refers (Special) to iusefp.o(.text) for __I$use$fp
    dfltul.o(.text) refers to depilogue.o(.text) for _double_epilogue
    ffixi.o(.text) refers (Special) to iusefp.o(.text) for __I$use$fp
    ffixui.o(.text) refers (Special) to iusefp.o(.text) for __I$use$fp
    dfixul.o(.text) refers (Special) to iusefp.o(.text) for __I$use$fp
    dfixul.o(.text) refers to llushr.o(.text) for __aeabi_llsr
    dfixul.o(.text) refers to llshl.o(.text) for __aeabi_llsl
    f2d.o(.text) refers (Special) to iusefp.o(.text) for __I$use$fp
    cdcmple.o(.text) refers (Special) to iusefp.o(.text) for __I$use$fp
    d2f.o(.text) refers (Special) to iusefp.o(.text) for __I$use$fp
    d2f.o(.text) refers to fepilogue.o(.text) for _float_round
    cfrcmple.o(.text) refers (Special) to iusefp.o(.text) for __I$use$fp
    dunder.o(i.__mathlib_dbl_divzero) refers to ddiv.o(.text) for __aeabi_ddiv
    dunder.o(i.__mathlib_dbl_infnan) refers to dscalb.o(.text) for __ARM_scalbn
    dunder.o(i.__mathlib_dbl_infnan2) refers to dadd.o(.text) for __aeabi_dadd
    dunder.o(i.__mathlib_dbl_invalid) refers to ddiv.o(.text) for __aeabi_ddiv
    dunder.o(i.__mathlib_dbl_overflow) refers to dscalb.o(.text) for __ARM_scalbn
    dunder.o(i.__mathlib_dbl_posinfnan) refers to dmul.o(.text) for __aeabi_dmul
    dunder.o(i.__mathlib_dbl_underflow) refers to dscalb.o(.text) for __ARM_scalbn
    log.o(i.__softfp_log) refers (Special) to iusefp.o(.text) for __I$use$fp
    log.o(i.__softfp_log) refers to log.o(i.log) for log
    log.o(i.log) refers (Special) to iusefp.o(.text) for __I$use$fp
    log.o(i.log) refers to dunder.o(i.__mathlib_dbl_infnan) for __mathlib_dbl_infnan
    log.o(i.log) refers to errno.o(i.__set_errno) for __set_errno
    log.o(i.log) refers to dunder.o(i.__mathlib_dbl_invalid) for __mathlib_dbl_invalid
    log.o(i.log) refers to dunder.o(i.__mathlib_dbl_divzero) for __mathlib_dbl_divzero
    log.o(i.log) refers to dscalb.o(.text) for __ARM_scalbn
    log.o(i.log) refers to dadd.o(.text) for __aeabi_dsub
    log.o(i.log) refers to cdcmple.o(.text) for __aeabi_cdcmpeq
    log.o(i.log) refers to dflti.o(.text) for __aeabi_i2d
    log.o(i.log) refers to dmul.o(.text) for __aeabi_dmul
    log.o(i.log) refers to ddiv.o(.text) for __aeabi_ddiv
    log.o(i.log) refers to poly.o(i.__kernel_poly) for __kernel_poly
    log.o(i.log) refers to qnan.o(.constdata) for __mathlib_zero
    log.o(i.log) refers to log.o(.constdata) for .constdata
    log.o(.constdata) refers (Special) to iusefp.o(.text) for __I$use$fp
    log_x.o(i.____softfp_log$lsc) refers (Special) to iusefp.o(.text) for __I$use$fp
    log_x.o(i.____softfp_log$lsc) refers to log_x.o(i.__log$lsc) for __log$lsc
    log_x.o(i.__log$lsc) refers (Special) to iusefp.o(.text) for __I$use$fp
    log_x.o(i.__log$lsc) refers to dunder.o(i.__mathlib_dbl_infnan) for __mathlib_dbl_infnan
    log_x.o(i.__log$lsc) refers to errno.o(i.__set_errno) for __set_errno
    log_x.o(i.__log$lsc) refers to dscalb.o(.text) for __ARM_scalbn
    log_x.o(i.__log$lsc) refers to dadd.o(.text) for __aeabi_dsub
    log_x.o(i.__log$lsc) refers to cdcmple.o(.text) for __aeabi_cdcmpeq
    log_x.o(i.__log$lsc) refers to dflti.o(.text) for __aeabi_i2d
    log_x.o(i.__log$lsc) refers to dmul.o(.text) for __aeabi_dmul
    log_x.o(i.__log$lsc) refers to ddiv.o(.text) for __aeabi_ddiv
    log_x.o(i.__log$lsc) refers to poly.o(i.__kernel_poly) for __kernel_poly
    log_x.o(i.__log$lsc) refers to qnan.o(.constdata) for __mathlib_zero
    log_x.o(i.__log$lsc) refers to log_x.o(.constdata) for .constdata
    log_x.o(.constdata) refers (Special) to iusefp.o(.text) for __I$use$fp
    entry3.o(.ARM.Collect$$$$00000002) refers to entry3.o(.ARM.Collect$$$$00002713) for __lit__00000000
    entry3.o(__vectab_stack_and_reset_area) refers to entry.o(.ARM.Collect$$$$00000000) for __main
    entry5.o(.ARM.Collect$$$$00000004) refers to init.o(.text) for __scatterload
    entry9a.o(.ARM.Collect$$$$0000000B) refers to los_config.o(i.main) for main
    entry9b.o(.ARM.Collect$$$$0000000C) refers to los_config.o(i.main) for main
    errno.o(i.__aeabi_errno_addr) refers to errno.o(.data) for .data
    errno.o(i.__read_errno) refers to errno.o(.data) for .data
    errno.o(i.__set_errno) refers to errno.o(.data) for .data
    depilogue.o(.text) refers to llshl.o(.text) for __aeabi_llsl
    depilogue.o(.text) refers to llushr.o(.text) for __aeabi_llsr
    poly.o(i.__kernel_poly) refers (Special) to iusefp.o(.text) for __I$use$fp
    poly.o(i.__kernel_poly) refers to dmul.o(.text) for __aeabi_dmul
    poly.o(i.__kernel_poly) refers to dadd.o(.text) for __aeabi_dadd
    qnan.o(.constdata) refers (Special) to iusefp.o(.text) for __I$use$fp
    init.o(.text) refers to entry5.o(.ARM.Collect$$$$00000004) for __main_after_scatterload


==============================================================================

Removing Unused input sections from the image.

    Removing startup_stm32f10x_md.o(HEAP), (512 bytes).
    Removing core_cm3.o(.emb_text), (32 bytes).
    Removing system_stm32f10x.o(i.SystemCoreClockUpdate), (164 bytes).
    Removing system_stm32f10x.o(.data), (20 bytes).
    Removing misc.o(i.NVIC_SystemLPConfig), (32 bytes).
    Removing misc.o(i.SysTick_CLKSourceConfig), (40 bytes).
    Removing stm32f10x_adc.o(i.ADC_AnalogWatchdogCmd), (20 bytes).
    Removing stm32f10x_adc.o(i.ADC_AnalogWatchdogSingleChannelConfig), (16 bytes).
    Removing stm32f10x_adc.o(i.ADC_AnalogWatchdogThresholdsConfig), (6 bytes).
    Removing stm32f10x_adc.o(i.ADC_AutoInjectedConvCmd), (22 bytes).
    Removing stm32f10x_adc.o(i.ADC_ClearFlag), (6 bytes).
    Removing stm32f10x_adc.o(i.ADC_ClearITPendingBit), (10 bytes).
    Removing stm32f10x_adc.o(i.ADC_Cmd), (22 bytes).
    Removing stm32f10x_adc.o(i.ADC_DMACmd), (22 bytes).
    Removing stm32f10x_adc.o(i.ADC_DeInit), (92 bytes).
    Removing stm32f10x_adc.o(i.ADC_DiscModeChannelCountConfig), (24 bytes).
    Removing stm32f10x_adc.o(i.ADC_DiscModeCmd), (22 bytes).
    Removing stm32f10x_adc.o(i.ADC_ExternalTrigConvCmd), (22 bytes).
    Removing stm32f10x_adc.o(i.ADC_ExternalTrigInjectedConvCmd), (22 bytes).
    Removing stm32f10x_adc.o(i.ADC_ExternalTrigInjectedConvConfig), (16 bytes).
    Removing stm32f10x_adc.o(i.ADC_GetCalibrationStatus), (20 bytes).
    Removing stm32f10x_adc.o(i.ADC_GetConversionValue), (8 bytes).
    Removing stm32f10x_adc.o(i.ADC_GetDualModeConversionValue), (12 bytes).
    Removing stm32f10x_adc.o(i.ADC_GetFlagStatus), (18 bytes).
    Removing stm32f10x_adc.o(i.ADC_GetITStatus), (36 bytes).
    Removing stm32f10x_adc.o(i.ADC_GetInjectedConversionValue), (28 bytes).
    Removing stm32f10x_adc.o(i.ADC_GetResetCalibrationStatus), (20 bytes).
    Removing stm32f10x_adc.o(i.ADC_GetSoftwareStartConvStatus), (20 bytes).
    Removing stm32f10x_adc.o(i.ADC_GetSoftwareStartInjectedConvCmdStatus), (20 bytes).
    Removing stm32f10x_adc.o(i.ADC_ITConfig), (24 bytes).
    Removing stm32f10x_adc.o(i.ADC_Init), (80 bytes).
    Removing stm32f10x_adc.o(i.ADC_InjectedChannelConfig), (130 bytes).
    Removing stm32f10x_adc.o(i.ADC_InjectedDiscModeCmd), (22 bytes).
    Removing stm32f10x_adc.o(i.ADC_InjectedSequencerLengthConfig), (24 bytes).
    Removing stm32f10x_adc.o(i.ADC_RegularChannelConfig), (184 bytes).
    Removing stm32f10x_adc.o(i.ADC_ResetCalibration), (10 bytes).
    Removing stm32f10x_adc.o(i.ADC_SetInjectedOffset), (20 bytes).
    Removing stm32f10x_adc.o(i.ADC_SoftwareStartConvCmd), (22 bytes).
    Removing stm32f10x_adc.o(i.ADC_SoftwareStartInjectedConvCmd), (22 bytes).
    Removing stm32f10x_adc.o(i.ADC_StartCalibration), (10 bytes).
    Removing stm32f10x_adc.o(i.ADC_StructInit), (18 bytes).
    Removing stm32f10x_adc.o(i.ADC_TempSensorVrefintCmd), (36 bytes).
    Removing stm32f10x_bkp.o(i.BKP_ClearFlag), (20 bytes).
    Removing stm32f10x_bkp.o(i.BKP_ClearITPendingBit), (20 bytes).
    Removing stm32f10x_bkp.o(i.BKP_DeInit), (16 bytes).
    Removing stm32f10x_bkp.o(i.BKP_GetFlagStatus), (12 bytes).
    Removing stm32f10x_bkp.o(i.BKP_GetITStatus), (12 bytes).
    Removing stm32f10x_bkp.o(i.BKP_ITConfig), (12 bytes).
    Removing stm32f10x_bkp.o(i.BKP_RTCOutputConfig), (28 bytes).
    Removing stm32f10x_bkp.o(i.BKP_ReadBackupRegister), (28 bytes).
    Removing stm32f10x_bkp.o(i.BKP_SetRTCCalibrationValue), (28 bytes).
    Removing stm32f10x_bkp.o(i.BKP_TamperPinCmd), (12 bytes).
    Removing stm32f10x_bkp.o(i.BKP_TamperPinLevelConfig), (12 bytes).
    Removing stm32f10x_bkp.o(i.BKP_WriteBackupRegister), (28 bytes).
    Removing stm32f10x_can.o(i.CAN_CancelTransmit), (48 bytes).
    Removing stm32f10x_can.o(i.CAN_ClearFlag), (56 bytes).
    Removing stm32f10x_can.o(i.CAN_ClearITPendingBit), (168 bytes).
    Removing stm32f10x_can.o(i.CAN_DBGFreeze), (22 bytes).
    Removing stm32f10x_can.o(i.CAN_DeInit), (56 bytes).
    Removing stm32f10x_can.o(i.CAN_FIFORelease), (22 bytes).
    Removing stm32f10x_can.o(i.CAN_FilterInit), (264 bytes).
    Removing stm32f10x_can.o(i.CAN_GetFlagStatus), (120 bytes).
    Removing stm32f10x_can.o(i.CAN_GetITStatus), (288 bytes).
    Removing stm32f10x_can.o(i.CAN_GetLSBTransmitErrorCounter), (12 bytes).
    Removing stm32f10x_can.o(i.CAN_GetLastErrorCode), (12 bytes).
    Removing stm32f10x_can.o(i.CAN_GetReceiveErrorCounter), (10 bytes).
    Removing stm32f10x_can.o(i.CAN_ITConfig), (18 bytes).
    Removing stm32f10x_can.o(i.CAN_Init), (276 bytes).
    Removing stm32f10x_can.o(i.CAN_MessagePending), (30 bytes).
    Removing stm32f10x_can.o(i.CAN_OperatingModeRequest), (162 bytes).
    Removing stm32f10x_can.o(i.CAN_Receive), (240 bytes).
    Removing stm32f10x_can.o(i.CAN_SlaveStartBank), (52 bytes).
    Removing stm32f10x_can.o(i.CAN_Sleep), (30 bytes).
    Removing stm32f10x_can.o(i.CAN_StructInit), (32 bytes).
    Removing stm32f10x_can.o(i.CAN_TTComModeCmd), (118 bytes).
    Removing stm32f10x_can.o(i.CAN_Transmit), (294 bytes).
    Removing stm32f10x_can.o(i.CAN_TransmitStatus), (160 bytes).
    Removing stm32f10x_can.o(i.CAN_WakeUp), (48 bytes).
    Removing stm32f10x_can.o(i.CheckITStatus), (18 bytes).
    Removing stm32f10x_cec.o(i.CEC_ClearFlag), (36 bytes).
    Removing stm32f10x_cec.o(i.CEC_ClearITPendingBit), (36 bytes).
    Removing stm32f10x_cec.o(i.CEC_Cmd), (32 bytes).
    Removing stm32f10x_cec.o(i.CEC_DeInit), (22 bytes).
    Removing stm32f10x_cec.o(i.CEC_EndOfMessageCmd), (12 bytes).
    Removing stm32f10x_cec.o(i.CEC_GetFlagStatus), (48 bytes).
    Removing stm32f10x_cec.o(i.CEC_GetITStatus), (40 bytes).
    Removing stm32f10x_cec.o(i.CEC_ITConfig), (12 bytes).
    Removing stm32f10x_cec.o(i.CEC_Init), (32 bytes).
    Removing stm32f10x_cec.o(i.CEC_OwnAddressConfig), (12 bytes).
    Removing stm32f10x_cec.o(i.CEC_ReceiveDataByte), (12 bytes).
    Removing stm32f10x_cec.o(i.CEC_SendDataByte), (12 bytes).
    Removing stm32f10x_cec.o(i.CEC_SetPrescaler), (12 bytes).
    Removing stm32f10x_cec.o(i.CEC_StartOfMessage), (12 bytes).
    Removing stm32f10x_crc.o(i.CRC_CalcBlockCRC), (36 bytes).
    Removing stm32f10x_crc.o(i.CRC_CalcCRC), (16 bytes).
    Removing stm32f10x_crc.o(i.CRC_GetCRC), (12 bytes).
    Removing stm32f10x_crc.o(i.CRC_GetIDRegister), (12 bytes).
    Removing stm32f10x_crc.o(i.CRC_ResetDR), (12 bytes).
    Removing stm32f10x_crc.o(i.CRC_SetIDRegister), (12 bytes).
    Removing stm32f10x_dac.o(i.DAC_Cmd), (40 bytes).
    Removing stm32f10x_dac.o(i.DAC_DMACmd), (44 bytes).
    Removing stm32f10x_dac.o(i.DAC_DeInit), (22 bytes).
    Removing stm32f10x_dac.o(i.DAC_DualSoftwareTriggerCmd), (36 bytes).
    Removing stm32f10x_dac.o(i.DAC_GetDataOutputValue), (36 bytes).
    Removing stm32f10x_dac.o(i.DAC_Init), (52 bytes).
    Removing stm32f10x_dac.o(i.DAC_SetChannel1Data), (32 bytes).
    Removing stm32f10x_dac.o(i.DAC_SetChannel2Data), (32 bytes).
    Removing stm32f10x_dac.o(i.DAC_SetDualChannelData), (36 bytes).
    Removing stm32f10x_dac.o(i.DAC_SoftwareTriggerCmd), (44 bytes).
    Removing stm32f10x_dac.o(i.DAC_StructInit), (12 bytes).
    Removing stm32f10x_dac.o(i.DAC_WaveGenerationCmd), (40 bytes).
    Removing stm32f10x_dbgmcu.o(i.DBGMCU_Config), (32 bytes).
    Removing stm32f10x_dbgmcu.o(i.DBGMCU_GetDEVID), (16 bytes).
    Removing stm32f10x_dbgmcu.o(i.DBGMCU_GetREVID), (12 bytes).
    Removing stm32f10x_dma.o(i.DMA_ClearFlag), (28 bytes).
    Removing stm32f10x_dma.o(i.DMA_ClearITPendingBit), (28 bytes).
    Removing stm32f10x_dma.o(i.DMA_Cmd), (24 bytes).
    Removing stm32f10x_dma.o(i.DMA_DeInit), (332 bytes).
    Removing stm32f10x_dma.o(i.DMA_GetCurrDataCounter), (8 bytes).
    Removing stm32f10x_dma.o(i.DMA_GetFlagStatus), (44 bytes).
    Removing stm32f10x_dma.o(i.DMA_GetITStatus), (44 bytes).
    Removing stm32f10x_dma.o(i.DMA_ITConfig), (18 bytes).
    Removing stm32f10x_dma.o(i.DMA_Init), (60 bytes).
    Removing stm32f10x_dma.o(i.DMA_SetCurrDataCounter), (4 bytes).
    Removing stm32f10x_dma.o(i.DMA_StructInit), (26 bytes).
    Removing stm32f10x_exti.o(i.EXTI_ClearFlag), (12 bytes).
    Removing stm32f10x_exti.o(i.EXTI_ClearITPendingBit), (12 bytes).
    Removing stm32f10x_exti.o(i.EXTI_DeInit), (36 bytes).
    Removing stm32f10x_exti.o(i.EXTI_GenerateSWInterrupt), (16 bytes).
    Removing stm32f10x_exti.o(i.EXTI_GetFlagStatus), (24 bytes).
    Removing stm32f10x_exti.o(i.EXTI_GetITStatus), (40 bytes).
    Removing stm32f10x_exti.o(i.EXTI_Init), (148 bytes).
    Removing stm32f10x_exti.o(i.EXTI_StructInit), (16 bytes).
    Removing stm32f10x_flash.o(i.FLASH_ClearFlag), (12 bytes).
    Removing stm32f10x_flash.o(i.FLASH_EnableWriteProtection), (196 bytes).
    Removing stm32f10x_flash.o(i.FLASH_EraseAllBank1Pages), (72 bytes).
    Removing stm32f10x_flash.o(i.FLASH_EraseAllPages), (72 bytes).
    Removing stm32f10x_flash.o(i.FLASH_EraseOptionBytes), (168 bytes).
    Removing stm32f10x_flash.o(i.FLASH_ErasePage), (76 bytes).
    Removing stm32f10x_flash.o(i.FLASH_GetBank1Status), (52 bytes).
    Removing stm32f10x_flash.o(i.FLASH_GetFlagStatus), (48 bytes).
    Removing stm32f10x_flash.o(i.FLASH_GetPrefetchBufferStatus), (24 bytes).
    Removing stm32f10x_flash.o(i.FLASH_GetReadOutProtectionStatus), (24 bytes).
    Removing stm32f10x_flash.o(i.FLASH_GetStatus), (52 bytes).
    Removing stm32f10x_flash.o(i.FLASH_GetUserOptionByte), (12 bytes).
    Removing stm32f10x_flash.o(i.FLASH_GetWriteProtectionOptionByte), (12 bytes).
    Removing stm32f10x_flash.o(i.FLASH_HalfCycleAccessCmd), (28 bytes).
    Removing stm32f10x_flash.o(i.FLASH_ITConfig), (32 bytes).
    Removing stm32f10x_flash.o(i.FLASH_Lock), (20 bytes).
    Removing stm32f10x_flash.o(i.FLASH_LockBank1), (20 bytes).
    Removing stm32f10x_flash.o(i.FLASH_ProgramHalfWord), (64 bytes).
    Removing stm32f10x_flash.o(i.FLASH_ProgramOptionByteData), (84 bytes).
    Removing stm32f10x_flash.o(i.FLASH_ProgramWord), (108 bytes).
    Removing stm32f10x_flash.o(i.FLASH_ReadOutProtection), (172 bytes).
    Removing stm32f10x_flash.o(i.FLASH_Unlock), (24 bytes).
    Removing stm32f10x_flash.o(i.FLASH_UnlockBank1), (24 bytes).
    Removing stm32f10x_flash.o(i.FLASH_UserOptionByteConfig), (104 bytes).
    Removing stm32f10x_flash.o(i.FLASH_WaitForLastBank1Operation), (38 bytes).
    Removing stm32f10x_flash.o(i.FLASH_WaitForLastOperation), (38 bytes).
    Removing stm32f10x_fsmc.o(i.FSMC_ClearFlag), (64 bytes).
    Removing stm32f10x_fsmc.o(i.FSMC_ClearITPendingBit), (72 bytes).
    Removing stm32f10x_fsmc.o(i.FSMC_GetECC), (28 bytes).
    Removing stm32f10x_fsmc.o(i.FSMC_GetFlagStatus), (56 bytes).
    Removing stm32f10x_fsmc.o(i.FSMC_GetITStatus), (68 bytes).
    Removing stm32f10x_fsmc.o(i.FSMC_ITConfig), (128 bytes).
    Removing stm32f10x_fsmc.o(i.FSMC_NANDCmd), (92 bytes).
    Removing stm32f10x_fsmc.o(i.FSMC_NANDDeInit), (68 bytes).
    Removing stm32f10x_fsmc.o(i.FSMC_NANDECCCmd), (92 bytes).
    Removing stm32f10x_fsmc.o(i.FSMC_NANDInit), (136 bytes).
    Removing stm32f10x_fsmc.o(i.FSMC_NANDStructInit), (54 bytes).
    Removing stm32f10x_fsmc.o(i.FSMC_NORSRAMCmd), (52 bytes).
    Removing stm32f10x_fsmc.o(i.FSMC_NORSRAMDeInit), (54 bytes).
    Removing stm32f10x_fsmc.o(i.FSMC_NORSRAMInit), (230 bytes).
    Removing stm32f10x_fsmc.o(i.FSMC_NORSRAMStructInit), (114 bytes).
    Removing stm32f10x_fsmc.o(i.FSMC_PCCARDCmd), (48 bytes).
    Removing stm32f10x_fsmc.o(i.FSMC_PCCARDDeInit), (40 bytes).
    Removing stm32f10x_fsmc.o(i.FSMC_PCCARDInit), (132 bytes).
    Removing stm32f10x_fsmc.o(i.FSMC_PCCARDStructInit), (60 bytes).
    Removing stm32f10x_gpio.o(i.GPIO_AFIODeInit), (20 bytes).
    Removing stm32f10x_gpio.o(i.GPIO_DeInit), (200 bytes).
    Removing stm32f10x_gpio.o(i.GPIO_ETH_MediaInterfaceConfig), (12 bytes).
    Removing stm32f10x_gpio.o(i.GPIO_EventOutputCmd), (12 bytes).
    Removing stm32f10x_gpio.o(i.GPIO_EventOutputConfig), (32 bytes).
    Removing stm32f10x_gpio.o(i.GPIO_PinLockConfig), (18 bytes).
    Removing stm32f10x_gpio.o(i.GPIO_PinRemapConfig), (144 bytes).
    Removing stm32f10x_gpio.o(i.GPIO_ReadInputData), (8 bytes).
    Removing stm32f10x_gpio.o(i.GPIO_ReadOutputData), (8 bytes).
    Removing stm32f10x_gpio.o(i.GPIO_ReadOutputDataBit), (18 bytes).
    Removing stm32f10x_gpio.o(i.GPIO_StructInit), (16 bytes).
    Removing stm32f10x_gpio.o(i.GPIO_Write), (4 bytes).
    Removing stm32f10x_gpio.o(i.GPIO_WriteBit), (10 bytes).
    Removing stm32f10x_i2c.o(i.I2C_ARPCmd), (24 bytes).
    Removing stm32f10x_i2c.o(i.I2C_AcknowledgeConfig), (24 bytes).
    Removing stm32f10x_i2c.o(i.I2C_CalculatePEC), (24 bytes).
    Removing stm32f10x_i2c.o(i.I2C_CheckEvent), (42 bytes).
    Removing stm32f10x_i2c.o(i.I2C_ClearFlag), (12 bytes).
    Removing stm32f10x_i2c.o(i.I2C_ClearITPendingBit), (12 bytes).
    Removing stm32f10x_i2c.o(i.I2C_Cmd), (24 bytes).
    Removing stm32f10x_i2c.o(i.I2C_DMACmd), (24 bytes).
    Removing stm32f10x_i2c.o(i.I2C_DMALastTransferCmd), (24 bytes).
    Removing stm32f10x_i2c.o(i.I2C_DeInit), (56 bytes).
    Removing stm32f10x_i2c.o(i.I2C_DualAddressCmd), (24 bytes).
    Removing stm32f10x_i2c.o(i.I2C_FastModeDutyCycleConfig), (28 bytes).
    Removing stm32f10x_i2c.o(i.I2C_GeneralCallCmd), (24 bytes).
    Removing stm32f10x_i2c.o(i.I2C_GenerateSTART), (24 bytes).
    Removing stm32f10x_i2c.o(i.I2C_GenerateSTOP), (24 bytes).
    Removing stm32f10x_i2c.o(i.I2C_GetFlagStatus), (58 bytes).
    Removing stm32f10x_i2c.o(i.I2C_GetITStatus), (38 bytes).
    Removing stm32f10x_i2c.o(i.I2C_GetLastEvent), (26 bytes).
    Removing stm32f10x_i2c.o(i.I2C_GetPEC), (8 bytes).
    Removing stm32f10x_i2c.o(i.I2C_ITConfig), (18 bytes).
    Removing stm32f10x_i2c.o(i.I2C_Init), (236 bytes).
    Removing stm32f10x_i2c.o(i.I2C_NACKPositionConfig), (28 bytes).
    Removing stm32f10x_i2c.o(i.I2C_OwnAddress2Config), (22 bytes).
    Removing stm32f10x_i2c.o(i.I2C_PECPositionConfig), (28 bytes).
    Removing stm32f10x_i2c.o(i.I2C_ReadRegister), (22 bytes).
    Removing stm32f10x_i2c.o(i.I2C_ReceiveData), (8 bytes).
    Removing stm32f10x_i2c.o(i.I2C_SMBusAlertConfig), (28 bytes).
    Removing stm32f10x_i2c.o(i.I2C_Send7bitAddress), (18 bytes).
    Removing stm32f10x_i2c.o(i.I2C_SendData), (4 bytes).
    Removing stm32f10x_i2c.o(i.I2C_SoftwareResetCmd), (22 bytes).
    Removing stm32f10x_i2c.o(i.I2C_StretchClockCmd), (24 bytes).
    Removing stm32f10x_i2c.o(i.I2C_StructInit), (30 bytes).
    Removing stm32f10x_i2c.o(i.I2C_TransmitPEC), (24 bytes).
    Removing stm32f10x_iwdg.o(i.IWDG_Enable), (16 bytes).
    Removing stm32f10x_iwdg.o(i.IWDG_GetFlagStatus), (24 bytes).
    Removing stm32f10x_iwdg.o(i.IWDG_ReloadCounter), (16 bytes).
    Removing stm32f10x_iwdg.o(i.IWDG_SetPrescaler), (12 bytes).
    Removing stm32f10x_iwdg.o(i.IWDG_SetReload), (12 bytes).
    Removing stm32f10x_iwdg.o(i.IWDG_WriteAccessCmd), (12 bytes).
    Removing stm32f10x_pwr.o(i.PWR_BackupAccessCmd), (12 bytes).
    Removing stm32f10x_pwr.o(i.PWR_ClearFlag), (20 bytes).
    Removing stm32f10x_pwr.o(i.PWR_DeInit), (22 bytes).
    Removing stm32f10x_pwr.o(i.PWR_EnterSTANDBYMode), (52 bytes).
    Removing stm32f10x_pwr.o(i.PWR_EnterSTOPMode), (64 bytes).
    Removing stm32f10x_pwr.o(i.PWR_GetFlagStatus), (24 bytes).
    Removing stm32f10x_pwr.o(i.PWR_PVDCmd), (12 bytes).
    Removing stm32f10x_pwr.o(i.PWR_PVDLevelConfig), (24 bytes).
    Removing stm32f10x_pwr.o(i.PWR_WakeUpPinCmd), (12 bytes).
    Removing stm32f10x_rcc.o(i.RCC_AHBPeriphClockCmd), (32 bytes).
    Removing stm32f10x_rcc.o(i.RCC_AdjustHSICalibrationValue), (24 bytes).
    Removing stm32f10x_rcc.o(i.RCC_BackupResetCmd), (12 bytes).
    Removing stm32f10x_rcc.o(i.RCC_ClearFlag), (20 bytes).
    Removing stm32f10x_rcc.o(i.RCC_ClearITPendingBit), (12 bytes).
    Removing stm32f10x_rcc.o(i.RCC_ClockSecuritySystemCmd), (12 bytes).
    Removing stm32f10x_rcc.o(i.RCC_GetITStatus), (24 bytes).
    Removing stm32f10x_rcc.o(i.RCC_HSICmd), (12 bytes).
    Removing stm32f10x_rcc.o(i.RCC_ITConfig), (32 bytes).
    Removing stm32f10x_rcc.o(i.RCC_LSEConfig), (52 bytes).
    Removing stm32f10x_rcc.o(i.RCC_LSICmd), (12 bytes).
    Removing stm32f10x_rcc.o(i.RCC_MCOConfig), (12 bytes).
    Removing stm32f10x_rcc.o(i.RCC_RTCCLKCmd), (12 bytes).
    Removing stm32f10x_rcc.o(i.RCC_RTCCLKConfig), (16 bytes).
    Removing stm32f10x_rcc.o(i.RCC_USBCLKConfig), (12 bytes).
    Removing stm32f10x_rtc.o(i.RTC_ClearFlag), (16 bytes).
    Removing stm32f10x_rtc.o(i.RTC_ClearITPendingBit), (16 bytes).
    Removing stm32f10x_rtc.o(i.RTC_EnterConfigMode), (20 bytes).
    Removing stm32f10x_rtc.o(i.RTC_ExitConfigMode), (20 bytes).
    Removing stm32f10x_rtc.o(i.RTC_GetCounter), (20 bytes).
    Removing stm32f10x_rtc.o(i.RTC_GetDivider), (24 bytes).
    Removing stm32f10x_rtc.o(i.RTC_GetFlagStatus), (24 bytes).
    Removing stm32f10x_rtc.o(i.RTC_GetITStatus), (36 bytes).
    Removing stm32f10x_rtc.o(i.RTC_ITConfig), (32 bytes).
    Removing stm32f10x_rtc.o(i.RTC_SetAlarm), (28 bytes).
    Removing stm32f10x_rtc.o(i.RTC_SetCounter), (28 bytes).
    Removing stm32f10x_rtc.o(i.RTC_SetPrescaler), (32 bytes).
    Removing stm32f10x_rtc.o(i.RTC_WaitForLastTask), (20 bytes).
    Removing stm32f10x_rtc.o(i.RTC_WaitForSynchro), (36 bytes).
    Removing stm32f10x_sdio.o(i.SDIO_CEATAITCmd), (16 bytes).
    Removing stm32f10x_sdio.o(i.SDIO_ClearFlag), (12 bytes).
    Removing stm32f10x_sdio.o(i.SDIO_ClearITPendingBit), (12 bytes).
    Removing stm32f10x_sdio.o(i.SDIO_ClockCmd), (12 bytes).
    Removing stm32f10x_sdio.o(i.SDIO_CmdStructInit), (14 bytes).
    Removing stm32f10x_sdio.o(i.SDIO_CommandCompletionCmd), (12 bytes).
    Removing stm32f10x_sdio.o(i.SDIO_DMACmd), (12 bytes).
    Removing stm32f10x_sdio.o(i.SDIO_DataConfig), (48 bytes).
    Removing stm32f10x_sdio.o(i.SDIO_DataStructInit), (20 bytes).
    Removing stm32f10x_sdio.o(i.SDIO_DeInit), (36 bytes).
    Removing stm32f10x_sdio.o(i.SDIO_GetCommandResponse), (12 bytes).
    Removing stm32f10x_sdio.o(i.SDIO_GetDataCounter), (12 bytes).
    Removing stm32f10x_sdio.o(i.SDIO_GetFIFOCount), (12 bytes).
    Removing stm32f10x_sdio.o(i.SDIO_GetFlagStatus), (24 bytes).
    Removing stm32f10x_sdio.o(i.SDIO_GetITStatus), (24 bytes).
    Removing stm32f10x_sdio.o(i.SDIO_GetPowerState), (16 bytes).
    Removing stm32f10x_sdio.o(i.SDIO_GetResponse), (24 bytes).
    Removing stm32f10x_sdio.o(i.SDIO_ITConfig), (32 bytes).
    Removing stm32f10x_sdio.o(i.SDIO_Init), (48 bytes).
    Removing stm32f10x_sdio.o(i.SDIO_ReadData), (12 bytes).
    Removing stm32f10x_sdio.o(i.SDIO_SendCEATACmd), (12 bytes).
    Removing stm32f10x_sdio.o(i.SDIO_SendCommand), (44 bytes).
    Removing stm32f10x_sdio.o(i.SDIO_SendSDIOSuspendCmd), (12 bytes).
    Removing stm32f10x_sdio.o(i.SDIO_SetPowerState), (28 bytes).
    Removing stm32f10x_sdio.o(i.SDIO_SetSDIOOperation), (12 bytes).
    Removing stm32f10x_sdio.o(i.SDIO_SetSDIOReadWaitMode), (12 bytes).
    Removing stm32f10x_sdio.o(i.SDIO_StartSDIOReadWait), (12 bytes).
    Removing stm32f10x_sdio.o(i.SDIO_StopSDIOReadWait), (12 bytes).
    Removing stm32f10x_sdio.o(i.SDIO_StructInit), (16 bytes).
    Removing stm32f10x_sdio.o(i.SDIO_WriteData), (12 bytes).
    Removing stm32f10x_spi.o(i.I2S_Cmd), (24 bytes).
    Removing stm32f10x_spi.o(i.I2S_Init), (232 bytes).
    Removing stm32f10x_spi.o(i.I2S_StructInit), (20 bytes).
    Removing stm32f10x_spi.o(i.SPI_BiDirectionalLineConfig), (28 bytes).
    Removing stm32f10x_spi.o(i.SPI_CalculateCRC), (24 bytes).
    Removing stm32f10x_spi.o(i.SPI_Cmd), (24 bytes).
    Removing stm32f10x_spi.o(i.SPI_DataSizeConfig), (18 bytes).
    Removing stm32f10x_spi.o(i.SPI_GetCRC), (16 bytes).
    Removing stm32f10x_spi.o(i.SPI_GetCRCPolynomial), (6 bytes).
    Removing stm32f10x_spi.o(i.SPI_I2S_ClearFlag), (6 bytes).
    Removing stm32f10x_spi.o(i.SPI_I2S_ClearITPendingBit), (20 bytes).
    Removing stm32f10x_spi.o(i.SPI_I2S_DMACmd), (18 bytes).
    Removing stm32f10x_spi.o(i.SPI_I2S_DeInit), (88 bytes).
    Removing stm32f10x_spi.o(i.SPI_I2S_GetFlagStatus), (18 bytes).
    Removing stm32f10x_spi.o(i.SPI_I2S_GetITStatus), (52 bytes).
    Removing stm32f10x_spi.o(i.SPI_I2S_ITConfig), (32 bytes).
    Removing stm32f10x_spi.o(i.SPI_I2S_ReceiveData), (6 bytes).
    Removing stm32f10x_spi.o(i.SPI_I2S_SendData), (4 bytes).
    Removing stm32f10x_spi.o(i.SPI_Init), (60 bytes).
    Removing stm32f10x_spi.o(i.SPI_NSSInternalSoftwareConfig), (30 bytes).
    Removing stm32f10x_spi.o(i.SPI_SSOutputCmd), (24 bytes).
    Removing stm32f10x_spi.o(i.SPI_StructInit), (24 bytes).
    Removing stm32f10x_spi.o(i.SPI_TransmitCRC), (10 bytes).
    Removing stm32f10x_tim.o(i.TI1_Config), (128 bytes).
    Removing stm32f10x_tim.o(i.TI2_Config), (152 bytes).
    Removing stm32f10x_tim.o(i.TI3_Config), (144 bytes).
    Removing stm32f10x_tim.o(i.TI4_Config), (152 bytes).
    Removing stm32f10x_tim.o(i.TIM_ARRPreloadConfig), (24 bytes).
    Removing stm32f10x_tim.o(i.TIM_BDTRConfig), (32 bytes).
    Removing stm32f10x_tim.o(i.TIM_BDTRStructInit), (18 bytes).
    Removing stm32f10x_tim.o(i.TIM_CCPreloadControl), (24 bytes).
    Removing stm32f10x_tim.o(i.TIM_CCxCmd), (30 bytes).
    Removing stm32f10x_tim.o(i.TIM_CCxNCmd), (30 bytes).
    Removing stm32f10x_tim.o(i.TIM_ClearFlag), (6 bytes).
    Removing stm32f10x_tim.o(i.TIM_ClearITPendingBit), (6 bytes).
    Removing stm32f10x_tim.o(i.TIM_ClearOC1Ref), (18 bytes).
    Removing stm32f10x_tim.o(i.TIM_ClearOC2Ref), (24 bytes).
    Removing stm32f10x_tim.o(i.TIM_ClearOC3Ref), (18 bytes).
    Removing stm32f10x_tim.o(i.TIM_ClearOC4Ref), (24 bytes).
    Removing stm32f10x_tim.o(i.TIM_Cmd), (24 bytes).
    Removing stm32f10x_tim.o(i.TIM_CounterModeConfig), (18 bytes).
    Removing stm32f10x_tim.o(i.TIM_CtrlPWMOutputs), (30 bytes).
    Removing stm32f10x_tim.o(i.TIM_DMACmd), (18 bytes).
    Removing stm32f10x_tim.o(i.TIM_DMAConfig), (10 bytes).
    Removing stm32f10x_tim.o(i.TIM_DeInit), (488 bytes).
    Removing stm32f10x_tim.o(i.TIM_ETRClockMode1Config), (54 bytes).
    Removing stm32f10x_tim.o(i.TIM_ETRClockMode2Config), (32 bytes).
    Removing stm32f10x_tim.o(i.TIM_ETRConfig), (28 bytes).
    Removing stm32f10x_tim.o(i.TIM_EncoderInterfaceConfig), (66 bytes).
    Removing stm32f10x_tim.o(i.TIM_ForcedOC1Config), (18 bytes).
    Removing stm32f10x_tim.o(i.TIM_ForcedOC2Config), (26 bytes).
    Removing stm32f10x_tim.o(i.TIM_ForcedOC3Config), (18 bytes).
    Removing stm32f10x_tim.o(i.TIM_ForcedOC4Config), (26 bytes).
    Removing stm32f10x_tim.o(i.TIM_GenerateEvent), (4 bytes).
    Removing stm32f10x_tim.o(i.TIM_GetCapture1), (6 bytes).
    Removing stm32f10x_tim.o(i.TIM_GetCapture2), (6 bytes).
    Removing stm32f10x_tim.o(i.TIM_GetCapture3), (6 bytes).
    Removing stm32f10x_tim.o(i.TIM_GetCapture4), (8 bytes).
    Removing stm32f10x_tim.o(i.TIM_GetCounter), (6 bytes).
    Removing stm32f10x_tim.o(i.TIM_GetFlagStatus), (18 bytes).
    Removing stm32f10x_tim.o(i.TIM_GetITStatus), (34 bytes).
    Removing stm32f10x_tim.o(i.TIM_GetPrescaler), (6 bytes).
    Removing stm32f10x_tim.o(i.TIM_ICInit), (172 bytes).
    Removing stm32f10x_tim.o(i.TIM_ICStructInit), (18 bytes).
    Removing stm32f10x_tim.o(i.TIM_ITConfig), (18 bytes).
    Removing stm32f10x_tim.o(i.TIM_ITRxExternalClockConfig), (24 bytes).
    Removing stm32f10x_tim.o(i.TIM_InternalClockConfig), (12 bytes).
    Removing stm32f10x_tim.o(i.TIM_OC1FastConfig), (18 bytes).
    Removing stm32f10x_tim.o(i.TIM_OC1Init), (152 bytes).
    Removing stm32f10x_tim.o(i.TIM_OC1NPolarityConfig), (18 bytes).
    Removing stm32f10x_tim.o(i.TIM_OC1PolarityConfig), (18 bytes).
    Removing stm32f10x_tim.o(i.TIM_OC1PreloadConfig), (18 bytes).
    Removing stm32f10x_tim.o(i.TIM_OC2FastConfig), (26 bytes).
    Removing stm32f10x_tim.o(i.TIM_OC2Init), (164 bytes).
    Removing stm32f10x_tim.o(i.TIM_OC2NPolarityConfig), (26 bytes).
    Removing stm32f10x_tim.o(i.TIM_OC2PolarityConfig), (26 bytes).
    Removing stm32f10x_tim.o(i.TIM_OC2PreloadConfig), (26 bytes).
    Removing stm32f10x_tim.o(i.TIM_OC3FastConfig), (18 bytes).
    Removing stm32f10x_tim.o(i.TIM_OC3Init), (160 bytes).
    Removing stm32f10x_tim.o(i.TIM_OC3NPolarityConfig), (26 bytes).
    Removing stm32f10x_tim.o(i.TIM_OC3PolarityConfig), (26 bytes).
    Removing stm32f10x_tim.o(i.TIM_OC3PreloadConfig), (18 bytes).
    Removing stm32f10x_tim.o(i.TIM_OC4FastConfig), (26 bytes).
    Removing stm32f10x_tim.o(i.TIM_OC4Init), (124 bytes).
    Removing stm32f10x_tim.o(i.TIM_OC4PolarityConfig), (26 bytes).
    Removing stm32f10x_tim.o(i.TIM_OC4PreloadConfig), (26 bytes).
    Removing stm32f10x_tim.o(i.TIM_OCStructInit), (20 bytes).
    Removing stm32f10x_tim.o(i.TIM_PWMIConfig), (124 bytes).
    Removing stm32f10x_tim.o(i.TIM_PrescalerConfig), (6 bytes).
    Removing stm32f10x_tim.o(i.TIM_SelectCCDMA), (24 bytes).
    Removing stm32f10x_tim.o(i.TIM_SelectCOM), (24 bytes).
    Removing stm32f10x_tim.o(i.TIM_SelectHallSensor), (24 bytes).
    Removing stm32f10x_tim.o(i.TIM_SelectInputTrigger), (18 bytes).
    Removing stm32f10x_tim.o(i.TIM_SelectMasterSlaveMode), (18 bytes).
    Removing stm32f10x_tim.o(i.TIM_SelectOCxM), (82 bytes).
    Removing stm32f10x_tim.o(i.TIM_SelectOnePulseMode), (18 bytes).
    Removing stm32f10x_tim.o(i.TIM_SelectOutputTrigger), (18 bytes).
    Removing stm32f10x_tim.o(i.TIM_SelectSlaveMode), (18 bytes).
    Removing stm32f10x_tim.o(i.TIM_SetAutoreload), (4 bytes).
    Removing stm32f10x_tim.o(i.TIM_SetClockDivision), (18 bytes).
    Removing stm32f10x_tim.o(i.TIM_SetCompare1), (4 bytes).
    Removing stm32f10x_tim.o(i.TIM_SetCompare2), (4 bytes).
    Removing stm32f10x_tim.o(i.TIM_SetCompare3), (4 bytes).
    Removing stm32f10x_tim.o(i.TIM_SetCompare4), (6 bytes).
    Removing stm32f10x_tim.o(i.TIM_SetCounter), (4 bytes).
    Removing stm32f10x_tim.o(i.TIM_SetIC1Prescaler), (18 bytes).
    Removing stm32f10x_tim.o(i.TIM_SetIC2Prescaler), (26 bytes).
    Removing stm32f10x_tim.o(i.TIM_SetIC3Prescaler), (18 bytes).
    Removing stm32f10x_tim.o(i.TIM_SetIC4Prescaler), (26 bytes).
    Removing stm32f10x_tim.o(i.TIM_TIxExternalClockConfig), (62 bytes).
    Removing stm32f10x_tim.o(i.TIM_TimeBaseInit), (164 bytes).
    Removing stm32f10x_tim.o(i.TIM_TimeBaseStructInit), (18 bytes).
    Removing stm32f10x_tim.o(i.TIM_UpdateDisableConfig), (24 bytes).
    Removing stm32f10x_tim.o(i.TIM_UpdateRequestConfig), (24 bytes).
    Removing stm32f10x_usart.o(i.USART_ClearFlag), (18 bytes).
    Removing stm32f10x_usart.o(i.USART_ClearITPendingBit), (30 bytes).
    Removing stm32f10x_usart.o(i.USART_ClockInit), (34 bytes).
    Removing stm32f10x_usart.o(i.USART_ClockStructInit), (12 bytes).
    Removing stm32f10x_usart.o(i.USART_DMACmd), (18 bytes).
    Removing stm32f10x_usart.o(i.USART_HalfDuplexCmd), (24 bytes).
    Removing stm32f10x_usart.o(i.USART_IrDACmd), (24 bytes).
    Removing stm32f10x_usart.o(i.USART_IrDAConfig), (18 bytes).
    Removing stm32f10x_usart.o(i.USART_LINBreakDetectLengthConfig), (18 bytes).
    Removing stm32f10x_usart.o(i.USART_LINCmd), (24 bytes).
    Removing stm32f10x_usart.o(i.USART_OneBitMethodCmd), (24 bytes).
    Removing stm32f10x_usart.o(i.USART_OverSampling8Cmd), (22 bytes).
    Removing stm32f10x_usart.o(i.USART_ReceiverWakeUpCmd), (24 bytes).
    Removing stm32f10x_usart.o(i.USART_SendBreak), (10 bytes).
    Removing stm32f10x_usart.o(i.USART_SetAddress), (18 bytes).
    Removing stm32f10x_usart.o(i.USART_SetGuardTime), (16 bytes).
    Removing stm32f10x_usart.o(i.USART_SetPrescaler), (16 bytes).
    Removing stm32f10x_usart.o(i.USART_SmartCardCmd), (24 bytes).
    Removing stm32f10x_usart.o(i.USART_SmartCardNACKCmd), (24 bytes).
    Removing stm32f10x_usart.o(i.USART_StructInit), (24 bytes).
    Removing stm32f10x_usart.o(i.USART_WakeUpConfig), (18 bytes).
    Removing stm32f10x_wwdg.o(i.WWDG_ClearFlag), (12 bytes).
    Removing stm32f10x_wwdg.o(i.WWDG_DeInit), (22 bytes).
    Removing stm32f10x_wwdg.o(i.WWDG_Enable), (16 bytes).
    Removing stm32f10x_wwdg.o(i.WWDG_EnableIT), (12 bytes).
    Removing stm32f10x_wwdg.o(i.WWDG_GetFlagStatus), (12 bytes).
    Removing stm32f10x_wwdg.o(i.WWDG_SetCounter), (16 bytes).
    Removing stm32f10x_wwdg.o(i.WWDG_SetPrescaler), (24 bytes).
    Removing stm32f10x_wwdg.o(i.WWDG_SetWindowValue), (40 bytes).
    Removing los_priqueue.o(i.LOS_PriqueueTotalSize), (28 bytes).
    Removing los_swtmr.o(i.LOS_SwtmrCreate), (140 bytes).
    Removing los_swtmr.o(i.LOS_SwtmrDelete), (132 bytes).
    Removing los_swtmr.o(i.LOS_SwtmrStart), (132 bytes).
    Removing los_swtmr.o(i.LOS_SwtmrStop), (128 bytes).
    Removing los_swtmr.o(i.osSwTmrAdjust), (52 bytes).
    Removing los_swtmr.o(i.osSwTmrGetNextTimeout), (24 bytes).
    Removing los_swtmr.o(i.osSwtmrStop), (72 bytes).
    Removing los_sys.o(i.LOS_CyclePerTickGet), (8 bytes).
    Removing los_sys.o(i.LOS_MS2Tick), (40 bytes).
    Removing los_sys.o(i.LOS_Reboot), (8 bytes).
    Removing los_sys.o(i.LOS_Tick2MS), (28 bytes).
    Removing los_sys.o(i.LOS_TickCountGet), (12 bytes).
    Removing los_sys.o(i.get_jiffies_64), (8 bytes).
    Removing los_sys.o(i.jiffies_to_msecs), (12 bytes).
    Removing los_sys.o(i.osCpuTick2MS), (100 bytes).
    Removing los_sys.o(i.osCpuTick2US), (100 bytes).
    Removing los_task.o(i.LOS_CurTaskIDGet), (28 bytes).
    Removing los_task.o(i.LOS_CurTaskPriSet), (28 bytes).
    Removing los_task.o(i.LOS_TaskDelete), (360 bytes).
    Removing los_task.o(i.LOS_TaskPriGet), (84 bytes).
    Removing los_task.o(i.LOS_TaskPriSet), (168 bytes).
    Removing los_task.o(i.LOS_TaskResume), (176 bytes).
    Removing los_task.o(i.LOS_TaskSuspend), (228 bytes).
    Removing los_task.o(i.osTaskPriModify), (56 bytes).
    Removing los_event.o(i.LOS_EventClear), (40 bytes).
    Removing los_event.o(i.LOS_EventDestory), (24 bytes).
    Removing los_event.o(i.LOS_EventInit), (28 bytes).
    Removing los_event.o(i.LOS_EventPoll), (80 bytes).
    Removing los_event.o(i.LOS_EventRead), (348 bytes).
    Removing los_event.o(i.LOS_EventWrite), (248 bytes).
    Removing los_mux.o(i.LOS_ListDelete), (20 bytes).
    Removing los_mux.o(i.LOS_ListEmpty), (16 bytes).
    Removing los_mux.o(i.LOS_MuxCreate), (100 bytes).
    Removing los_mux.o(i.LOS_MuxDelete), (104 bytes).
    Removing los_mux.o(i.LOS_MuxPend), (328 bytes).
    Removing los_mux.o(i.LOS_MuxPost), (256 bytes).
    Removing los_queue.o(i.LOS_QueueDelete), (176 bytes).
    Removing los_queue.o(i.osQueueMailAlloc), (168 bytes).
    Removing los_queue.o(i.osQueueMailFree), (152 bytes).
    Removing los_sem.o(i.LOS_SemCreate), (108 bytes).
    Removing los_sem.o(i.LOS_SemDelete), (96 bytes).
    Removing los_sem.o(i.LOS_SemPend), (256 bytes).
    Removing los_membox.o(i.LOS_MemboxClr), (28 bytes).
    Removing los_memory.o(i.LOS_MemRealloc), (346 bytes).
    Removing los_memstat.o(i.osTaskMemUsage), (24 bytes).
    Removing los_misc.o(i.LOS_Msleep), (48 bytes).
    Removing los_config.o(i.osBackTrace), (2 bytes).
    Removing los_config.o(i.osEnableFPU), (20 bytes).
    Removing los_hw_tick.o(i.LOS_GetCpuCycle), (116 bytes).
    Removing los_hwi.o(i.LOS_HwiCreate), (164 bytes).
    Removing los_hwi.o(i.LOS_HwiDelete), (76 bytes).
    Removing mcu_init.o(i.system_softreset), (48 bytes).
    Removing ult.o(i.ATOI), (32 bytes).
    Removing ult.o(i.ATOI32), (32 bytes).
    Removing ult.o(i.C2D), (54 bytes).
    Removing ult.o(i.ValidATOI), (72 bytes).
    Removing ult.o(i.delay_s), (22 bytes).
    Removing ult.o(i.inet_addr_), (96 bytes).
    Removing ult.o(i.itoa), (64 bytes).
    Removing ult.o(i.itoa1), (100 bytes).
    Removing ult.o(i.mid), (68 bytes).
    Removing ult.o(i.replacetochar), (26 bytes).
    Removing ult.o(i.swapl), (28 bytes).
    Removing ult.o(i.swaps), (14 bytes).
    Removing usart2.o(i.USART2_Putc), (32 bytes).
    Removing usart2.o(i.USART2_Puts), (44 bytes).
    Removing sht10.o(i.SHT10_ReadStatusReg), (40 bytes).
    Removing sht10.o(i.SHT10_WriteStatusReg), (34 bytes).
    Removing sht10.o(i.sht10_calcu_dewpoint), (224 bytes).
    Removing usart.o(i.USART1_Puts), (44 bytes).
    Removing usart.o(i.fputc), (36 bytes).
    Removing umqtt.o(i.umqtt_circ_peek), (42 bytes).
    Removing umqtt.o(i.umqtt_decode_length), (44 bytes).
    Removing umqtt.o(i.umqtt_handle_publish), (106 bytes).
    Removing umqtt.o(i.umqtt_packet_arrived), (110 bytes).
    Removing umqtt.o(i.umqtt_process), (86 bytes).
    Removing umqtt.o(i.umqtt_subscribe), (144 bytes).
    Removing dfltul.o(.text), (24 bytes).
    Removing dscalb.o(.text), (46 bytes).

521 unused section(s) (total 25186 bytes) removed from the image.

==============================================================================

Image Symbol Table

    Local Symbols

    Symbol Name                              Value     Ov Type        Size  Object(Section)

    ../clib/../cmprslib/zerorunl2.c          0x00000000   Number         0  __dczerorl2.o ABSOLUTE
    ../clib/microlib/division.c              0x00000000   Number         0  uldiv.o ABSOLUTE
    ../clib/microlib/division.c              0x00000000   Number         0  uidiv.o ABSOLUTE
    ../clib/microlib/errno.c                 0x00000000   Number         0  errno.o ABSOLUTE
    ../clib/microlib/init/entry.s            0x00000000   Number         0  entry3.o ABSOLUTE
    ../clib/microlib/init/entry.s            0x00000000   Number         0  entry11b.o ABSOLUTE
    ../clib/microlib/init/entry.s            0x00000000   Number         0  entry5.o ABSOLUTE
    ../clib/microlib/init/entry.s            0x00000000   Number         0  entry11a.o ABSOLUTE
    ../clib/microlib/init/entry.s            0x00000000   Number         0  entry.o ABSOLUTE
    ../clib/microlib/init/entry.s            0x00000000   Number         0  entry7a.o ABSOLUTE
    ../clib/microlib/init/entry.s            0x00000000   Number         0  entry8b.o ABSOLUTE
    ../clib/microlib/init/entry.s            0x00000000   Number         0  entry10a.o ABSOLUTE
    ../clib/microlib/init/entry.s            0x00000000   Number         0  entry9a.o ABSOLUTE
    ../clib/microlib/init/entry.s            0x00000000   Number         0  entry7b.o ABSOLUTE
    ../clib/microlib/init/entry.s            0x00000000   Number         0  entry9b.o ABSOLUTE
    ../clib/microlib/init/entry.s            0x00000000   Number         0  entry8a.o ABSOLUTE
    ../clib/microlib/init/entry.s            0x00000000   Number         0  entry10b.o ABSOLUTE
    ../clib/microlib/longlong.c              0x00000000   Number         0  llushr.o ABSOLUTE
    ../clib/microlib/longlong.c              0x00000000   Number         0  llsshr.o ABSOLUTE
    ../clib/microlib/longlong.c              0x00000000   Number         0  llshl.o ABSOLUTE
    ../clib/microlib/malloc/malloc.c         0x00000000   Number         0  mallocra1.o ABSOLUTE
    ../clib/microlib/malloc/malloc.c         0x00000000   Number         0  malloc1.o ABSOLUTE
    ../clib/microlib/malloc/malloc.c         0x00000000   Number         0  mallocr1.o ABSOLUTE
    ../clib/microlib/malloc/malloc.c         0x00000000   Number         0  malloca1.o ABSOLUTE
    ../clib/microlib/malloc/mvars.c          0x00000000   Number         0  mvars.o ABSOLUTE
    ../clib/microlib/printf/printf.c         0x00000000   Number         0  printf2.o ABSOLUTE
    ../clib/microlib/printf/printf.c         0x00000000   Number         0  printf1.o ABSOLUTE
    ../clib/microlib/printf/printf.c         0x00000000   Number         0  printf0.o ABSOLUTE
    ../clib/microlib/printf/printf.c         0x00000000   Number         0  printfb.o ABSOLUTE
    ../clib/microlib/printf/printf.c         0x00000000   Number         0  printf8.o ABSOLUTE
    ../clib/microlib/printf/printf.c         0x00000000   Number         0  printf3.o ABSOLUTE
    ../clib/microlib/printf/printf.c         0x00000000   Number         0  printf6.o ABSOLUTE
    ../clib/microlib/printf/printf.c         0x00000000   Number         0  printfa.o ABSOLUTE
    ../clib/microlib/printf/printf.c         0x00000000   Number         0  printf7.o ABSOLUTE
    ../clib/microlib/printf/printf.c         0x00000000   Number         0  printf5.o ABSOLUTE
    ../clib/microlib/printf/printf.c         0x00000000   Number         0  printf4.o ABSOLUTE
    ../clib/microlib/printf/stubs.s          0x00000000   Number         0  stubs.o ABSOLUTE
    ../clib/microlib/stdio/streams.c         0x00000000   Number         0  stdout.o ABSOLUTE
    ../clib/microlib/string/memcpy.c         0x00000000   Number         0  memcpyb.o ABSOLUTE
    ../clib/microlib/string/memcpy.c         0x00000000   Number         0  memcpya.o ABSOLUTE
    ../clib/microlib/string/memset.c         0x00000000   Number         0  memseta.o ABSOLUTE
    ../clib/microlib/string/strcpy.c         0x00000000   Number         0  strcpy.o ABSOLUTE
    ../clib/microlib/string/strlen.c         0x00000000   Number         0  strlen.o ABSOLUTE
    ../clib/microlib/string/strncpy.c        0x00000000   Number         0  strncpy.o ABSOLUTE
    ../clib/microlib/string/strstr.c         0x00000000   Number         0  strstr.o ABSOLUTE
    ../clib/microlib/string/strtok.c         0x00000000   Number         0  strtok_r.o ABSOLUTE
    ../clib/microlib/string/strtok.c         0x00000000   Number         0  strtok.o ABSOLUTE
    ../clib/microlib/stubs.s                 0x00000000   Number         0  iusefp.o ABSOLUTE
    ../fplib/microlib/d2f.c                  0x00000000   Number         0  d2f.o ABSOLUTE
    ../fplib/microlib/f2d.c                  0x00000000   Number         0  f2d.o ABSOLUTE
    ../fplib/microlib/fpadd.c                0x00000000   Number         0  dadd.o ABSOLUTE
    ../fplib/microlib/fpadd.c                0x00000000   Number         0  fadd.o ABSOLUTE
    ../fplib/microlib/fpdiv.c                0x00000000   Number         0  ddiv.o ABSOLUTE
    ../fplib/microlib/fpepilogue.c           0x00000000   Number         0  depilogue.o ABSOLUTE
    ../fplib/microlib/fpepilogue.c           0x00000000   Number         0  fepilogue.o ABSOLUTE
    ../fplib/microlib/fpfix.c                0x00000000   Number         0  ffixi.o ABSOLUTE
    ../fplib/microlib/fpfix.c                0x00000000   Number         0  dfixul.o ABSOLUTE
    ../fplib/microlib/fpfix.c                0x00000000   Number         0  ffixui.o ABSOLUTE
    ../fplib/microlib/fpflt.c                0x00000000   Number         0  ffltui.o ABSOLUTE
    ../fplib/microlib/fpflt.c                0x00000000   Number         0  dfltul.o ABSOLUTE
    ../fplib/microlib/fpflt.c                0x00000000   Number         0  dflti.o ABSOLUTE
    ../fplib/microlib/fpmul.c                0x00000000   Number         0  dmul.o ABSOLUTE
    ../fplib/microlib/fpmul.c                0x00000000   Number         0  fmul.o ABSOLUTE
    ../fplib/microlib/fpscalb.c              0x00000000   Number         0  dscalb.o ABSOLUTE
    ../mathlib/dunder.c                      0x00000000   Number         0  dunder.o ABSOLUTE
    ../mathlib/log.c                         0x00000000   Number         0  log.o ABSOLUTE
    ../mathlib/log.c                         0x00000000   Number         0  log_x.o ABSOLUTE
    ../mathlib/log10.c                       0x00000000   Number         0  log10.o ABSOLUTE
    ../mathlib/log10.c                       0x00000000   Number         0  log10_x.o ABSOLUTE
    ../mathlib/poly.c                        0x00000000   Number         0  poly.o ABSOLUTE
    ../mathlib/qnan.c                        0x00000000   Number         0  qnan.o ABSOLUTE
    ..\Huawei_LiteOS\kernel\base\core\los_priqueue.c 0x00000000   Number         0  los_priqueue.o ABSOLUTE
    ..\Huawei_LiteOS\kernel\base\core\los_swtmr.c 0x00000000   Number         0  los_swtmr.o ABSOLUTE
    ..\Huawei_LiteOS\kernel\base\core\los_sys.c 0x00000000   Number         0  los_sys.o ABSOLUTE
    ..\Huawei_LiteOS\kernel\base\core\los_task.c 0x00000000   Number         0  los_task.o ABSOLUTE
    ..\Huawei_LiteOS\kernel\base\core\los_tick.c 0x00000000   Number         0  los_tick.o ABSOLUTE
    ..\Huawei_LiteOS\kernel\base\core\los_timeslice.c 0x00000000   Number         0  los_timeslice.o ABSOLUTE
    ..\Huawei_LiteOS\kernel\base\ipc\los_event.c 0x00000000   Number         0  los_event.o ABSOLUTE
    ..\Huawei_LiteOS\kernel\base\ipc\los_mux.c 0x00000000   Number         0  los_mux.o ABSOLUTE
    ..\Huawei_LiteOS\kernel\base\ipc\los_queue.c 0x00000000   Number         0  los_queue.o ABSOLUTE
    ..\Huawei_LiteOS\kernel\base\ipc\los_sem.c 0x00000000   Number         0  los_sem.o ABSOLUTE
    ..\Huawei_LiteOS\kernel\base\mem\los_membox.c 0x00000000   Number         0  los_membox.o ABSOLUTE
    ..\Huawei_LiteOS\kernel\base\mem\los_memory.c 0x00000000   Number         0  los_memory.o ABSOLUTE
    ..\Huawei_LiteOS\kernel\base\mem\los_memstat.c 0x00000000   Number         0  los_memstat.o ABSOLUTE
    ..\Huawei_LiteOS\kernel\base\mem\los_multipledlinkhead.c 0x00000000   Number         0  los_multipledlinkhead.o ABSOLUTE
    ..\Huawei_LiteOS\kernel\base\misc\los_misc.c 0x00000000   Number         0  los_misc.o ABSOLUTE
    ..\Huawei_LiteOS\platform\bsp\sample\config\los_config.c 0x00000000   Number         0  los_config.o ABSOLUTE
    ..\Huawei_LiteOS\platform\cpu\arm\cortex-m4\los_dispatch.s 0x00000000   Number         0  los_dispatch.o ABSOLUTE
    ..\Huawei_LiteOS\platform\cpu\arm\cortex-m4\los_hw.c 0x00000000   Number         0  los_hw.o ABSOLUTE
    ..\Huawei_LiteOS\platform\cpu\arm\cortex-m4\los_hw_tick.c 0x00000000   Number         0  los_hw_tick.o ABSOLUTE
    ..\Huawei_LiteOS\platform\cpu\arm\cortex-m4\los_hwi.c 0x00000000   Number         0  los_hwi.o ABSOLUTE
    ..\Libraries\CMSIS\core_cm3.c            0x00000000   Number         0  core_cm3.o ABSOLUTE
    ..\Libraries\CMSIS\startup\startup_stm32f10x_md.s 0x00000000   Number         0  startup_stm32f10x_md.o ABSOLUTE
    ..\Libraries\CMSIS\system_stm32f10x.c    0x00000000   Number         0  system_stm32f10x.o ABSOLUTE
    ..\Libraries\FWlib\src\misc.c            0x00000000   Number         0  misc.o ABSOLUTE
    ..\Libraries\FWlib\src\stm32f10x_adc.c   0x00000000   Number         0  stm32f10x_adc.o ABSOLUTE
    ..\Libraries\FWlib\src\stm32f10x_bkp.c   0x00000000   Number         0  stm32f10x_bkp.o ABSOLUTE
    ..\Libraries\FWlib\src\stm32f10x_can.c   0x00000000   Number         0  stm32f10x_can.o ABSOLUTE
    ..\Libraries\FWlib\src\stm32f10x_cec.c   0x00000000   Number         0  stm32f10x_cec.o ABSOLUTE
    ..\Libraries\FWlib\src\stm32f10x_crc.c   0x00000000   Number         0  stm32f10x_crc.o ABSOLUTE
    ..\Libraries\FWlib\src\stm32f10x_dac.c   0x00000000   Number         0  stm32f10x_dac.o ABSOLUTE
    ..\Libraries\FWlib\src\stm32f10x_dbgmcu.c 0x00000000   Number         0  stm32f10x_dbgmcu.o ABSOLUTE
    ..\Libraries\FWlib\src\stm32f10x_dma.c   0x00000000   Number         0  stm32f10x_dma.o ABSOLUTE
    ..\Libraries\FWlib\src\stm32f10x_exti.c  0x00000000   Number         0  stm32f10x_exti.o ABSOLUTE
    ..\Libraries\FWlib\src\stm32f10x_flash.c 0x00000000   Number         0  stm32f10x_flash.o ABSOLUTE
    ..\Libraries\FWlib\src\stm32f10x_fsmc.c  0x00000000   Number         0  stm32f10x_fsmc.o ABSOLUTE
    ..\Libraries\FWlib\src\stm32f10x_gpio.c  0x00000000   Number         0  stm32f10x_gpio.o ABSOLUTE
    ..\Libraries\FWlib\src\stm32f10x_i2c.c   0x00000000   Number         0  stm32f10x_i2c.o ABSOLUTE
    ..\Libraries\FWlib\src\stm32f10x_iwdg.c  0x00000000   Number         0  stm32f10x_iwdg.o ABSOLUTE
    ..\Libraries\FWlib\src\stm32f10x_pwr.c   0x00000000   Number         0  stm32f10x_pwr.o ABSOLUTE
    ..\Libraries\FWlib\src\stm32f10x_rcc.c   0x00000000   Number         0  stm32f10x_rcc.o ABSOLUTE
    ..\Libraries\FWlib\src\stm32f10x_rtc.c   0x00000000   Number         0  stm32f10x_rtc.o ABSOLUTE
    ..\Libraries\FWlib\src\stm32f10x_sdio.c  0x00000000   Number         0  stm32f10x_sdio.o ABSOLUTE
    ..\Libraries\FWlib\src\stm32f10x_spi.c   0x00000000   Number         0  stm32f10x_spi.o ABSOLUTE
    ..\Libraries\FWlib\src\stm32f10x_tim.c   0x00000000   Number         0  stm32f10x_tim.o ABSOLUTE
    ..\Libraries\FWlib\src\stm32f10x_usart.c 0x00000000   Number         0  stm32f10x_usart.o ABSOLUTE
    ..\Libraries\FWlib\src\stm32f10x_wwdg.c  0x00000000   Number         0  stm32f10x_wwdg.o ABSOLUTE
    ..\User\main.c                           0x00000000   Number         0  main.o ABSOLUTE
    ..\User\src\bh1750_s\bh1750_s.c          0x00000000   Number         0  bh1750_s.o ABSOLUTE
    ..\User\src\bh1750_s\i2c_s.c             0x00000000   Number         0  i2c_s.o ABSOLUTE
    ..\User\src\init_conf\mcu_init.c         0x00000000   Number         0  mcu_init.o ABSOLUTE
    ..\User\src\mqtt\umqtt.c                 0x00000000   Number         0  umqtt.o ABSOLUTE
    ..\User\src\sht10\sht10.c                0x00000000   Number         0  sht10.o ABSOLUTE
    ..\User\src\ult\ult.c                    0x00000000   Number         0  ult.o ABSOLUTE
    ..\User\src\usart2\usart2.c              0x00000000   Number         0  usart2.o ABSOLUTE
    ..\User\src\usart\usart.c                0x00000000   Number         0  usart.o ABSOLUTE
    ..\User\src\xassert\_xassert.c           0x00000000   Number         0  _xassert.o ABSOLUTE
    ..\User\stm32f10x_it.c                   0x00000000   Number         0  stm32f10x_it.o ABSOLUTE
    ..\User\task\mqtt_task.c                 0x00000000   Number         0  mqtt_task.o ABSOLUTE
    ..\User\task\task.c                      0x00000000   Number         0  task.o ABSOLUTE
    ..\\Huawei_LiteOS\\platform\\cpu\\arm\\cortex-m4\\los_hwi.c 0x00000000   Number         0  los_hwi.o ABSOLUTE
    ..\\Libraries\\CMSIS\\core_cm3.c         0x00000000   Number         0  core_cm3.o ABSOLUTE
    cdcmple.s                                0x00000000   Number         0  cdcmple.o ABSOLUTE
    cdrcmple.s                               0x00000000   Number         0  cdrcmple.o ABSOLUTE
    cfrcmple.s                               0x00000000   Number         0  cfrcmple.o ABSOLUTE
    dc.s                                     0x00000000   Number         0  dc.o ABSOLUTE
    handlers.s                               0x00000000   Number         0  handlers.o ABSOLUTE
    init.s                                   0x00000000   Number         0  init.o ABSOLUTE
    RESET                                    0x08000000   Section      236  startup_stm32f10x_md.o(RESET)
    .ARM.Collect$$$$00000000                 0x080000ec   Section        0  entry.o(.ARM.Collect$$$$00000000)
    .ARM.Collect$$$$00000002                 0x080000ec   Section        4  entry3.o(.ARM.Collect$$$$00000002)
    .ARM.Collect$$$$00000004                 0x080000f0   Section        4  entry5.o(.ARM.Collect$$$$00000004)
    .ARM.Collect$$$$00000008                 0x080000f4   Section        0  entry7b.o(.ARM.Collect$$$$00000008)
    .ARM.Collect$$$$0000000A                 0x080000f4   Section        0  entry8b.o(.ARM.Collect$$$$0000000A)
    .ARM.Collect$$$$0000000B                 0x080000f4   Section        8  entry9a.o(.ARM.Collect$$$$0000000B)
    .ARM.Collect$$$$0000000D                 0x080000fc   Section        0  entry10a.o(.ARM.Collect$$$$0000000D)
    .ARM.Collect$$$$0000000F                 0x080000fc   Section        0  entry11a.o(.ARM.Collect$$$$0000000F)
    .ARM.Collect$$$$00002713                 0x080000fc   Section        4  entry3.o(.ARM.Collect$$$$00002713)
    __lit__00000000                          0x080000fc   Data           4  entry3.o(.ARM.Collect$$$$00002713)
    .emb_text                                0x08000100   Section        6  los_hwi.o(.emb_text)
    .text                                    0x08000108   Section       36  startup_stm32f10x_md.o(.text)
    .text                                    0x0800012c   Section       92  los_dispatch.o(.text)
    .text                                    0x08000188   Section        0  uldiv.o(.text)
    .text                                    0x080001ea   Section        0  memcpya.o(.text)
    .text                                    0x0800020e   Section        0  memseta.o(.text)
    .text                                    0x08000232   Section        0  strlen.o(.text)
    .text                                    0x08000240   Section        0  fadd.o(.text)
    .text                                    0x080002f0   Section        0  fmul.o(.text)
    .text                                    0x08000354   Section        0  dadd.o(.text)
    .text                                    0x080004a2   Section        0  dmul.o(.text)
    .text                                    0x08000586   Section        0  ddiv.o(.text)
    .text                                    0x08000664   Section        0  ffltui.o(.text)
    .text                                    0x0800066e   Section        0  dflti.o(.text)
    .text                                    0x08000690   Section        0  ffixi.o(.text)
    .text                                    0x080006c2   Section        0  ffixui.o(.text)
    .text                                    0x080006ea   Section        0  dfixul.o(.text)
    .text                                    0x0800071a   Section        0  f2d.o(.text)
    .text                                    0x08000740   Section       48  cdcmple.o(.text)
    .text                                    0x08000770   Section        0  d2f.o(.text)
    .text                                    0x080007a8   Section       20  cfrcmple.o(.text)
    .text                                    0x080007bc   Section        0  uidiv.o(.text)
    .text                                    0x080007e8   Section        0  llshl.o(.text)
    .text                                    0x08000806   Section        0  llushr.o(.text)
    .text                                    0x08000826   Section        0  llsshr.o(.text)
    .text                                    0x0800084a   Section        0  fepilogue.o(.text)
    .text                                    0x0800084a   Section        0  iusefp.o(.text)
    .text                                    0x080008b8   Section        0  depilogue.o(.text)
    .text                                    0x08000974   Section       48  cdrcmple.o(.text)
    .text                                    0x080009a4   Section       36  init.o(.text)
    .text                                    0x080009c8   Section        0  __dczerorl2.o(.text)
    KERNEL                                   0x08000a20   Section      128  los_dispatch.o(KERNEL)
    i.BusFault_Handler                       0x08000aa0   Section        0  stm32f10x_it.o(i.BusFault_Handler)
    i.Cmd_Write_BH1750                       0x08000aa4   Section        0  bh1750_s.o(i.Cmd_Write_BH1750)
    i.Convert_BH1750                         0x08000ad8   Section        0  bh1750_s.o(i.Convert_BH1750)
    i.DebugMon_Handler                       0x08000b2c   Section        0  stm32f10x_it.o(i.DebugMon_Handler)
    i.Delay                                  0x08000b2e   Section        0  main.o(i.Delay)
    i.FLASH_PrefetchBufferCmd                0x08000b40   Section        0  stm32f10x_flash.o(i.FLASH_PrefetchBufferCmd)
    i.FLASH_SetLatency                       0x08000b5c   Section        0  stm32f10x_flash.o(i.FLASH_SetLatency)
    i.GPIO_EXTILineConfig                    0x08000b74   Section        0  stm32f10x_gpio.o(i.GPIO_EXTILineConfig)
    i.GPIO_Init                              0x08000bb4   Section        0  stm32f10x_gpio.o(i.GPIO_Init)
    i.GPIO_ReadInputDataBit                  0x08000cca   Section        0  stm32f10x_gpio.o(i.GPIO_ReadInputDataBit)
    i.GPIO_ResetBits                         0x08000cdc   Section        0  stm32f10x_gpio.o(i.GPIO_ResetBits)
    i.GPIO_SetBits                           0x08000ce0   Section        0  stm32f10x_gpio.o(i.GPIO_SetBits)
    i.HardFault_Handler                      0x08000ce4   Section        0  stm32f10x_it.o(i.HardFault_Handler)
    i.I2C_Ack                                0x08000ce8   Section        0  i2c_s.o(i.I2C_Ack)
    i.I2C_NAck                               0x08000d24   Section        0  i2c_s.o(i.I2C_NAck)
    i.I2C_Read_Byte                          0x08000d60   Section        0  i2c_s.o(i.I2C_Read_Byte)
    i.I2C_Send_Byte                          0x08000dbc   Section        0  i2c_s.o(i.I2C_Send_Byte)
    i.I2C_Start                              0x08000e10   Section        0  i2c_s.o(i.I2C_Start)
    i.I2C_Stop                               0x08000e48   Section        0  i2c_s.o(i.I2C_Stop)
    i.I2C_Wait_Ack                           0x08000e7c   Section        0  i2c_s.o(i.I2C_Wait_Ack)
    i.Init_BH1750                            0x08000ecc   Section        0  bh1750_s.o(i.Init_BH1750)
    i.LOS_Align                              0x08000ed4   Section        0  los_misc.o(i.LOS_Align)
    i.LOS_DLnkInitMultiHead                  0x08000ef0   Section        0  los_multipledlinkhead.o(i.LOS_DLnkInitMultiHead)
    i.LOS_DLnkMultiHead                      0x08000f0e   Section        0  los_multipledlinkhead.o(i.LOS_DLnkMultiHead)
    i.LOS_ListAdd                            0x08000f38   Section        0  los_task.o(i.LOS_ListAdd)
    LOS_ListAdd                              0x08000f39   Thumb Code    14  los_task.o(i.LOS_ListAdd)
    i.LOS_ListAdd                            0x08000f46   Section        0  los_mux.o(i.LOS_ListAdd)
    LOS_ListAdd                              0x08000f47   Thumb Code    14  los_mux.o(i.LOS_ListAdd)
    i.LOS_ListAdd                            0x08000f54   Section        0  los_queue.o(i.LOS_ListAdd)
    LOS_ListAdd                              0x08000f55   Thumb Code    14  los_queue.o(i.LOS_ListAdd)
    i.LOS_ListAdd                            0x08000f62   Section        0  los_sem.o(i.LOS_ListAdd)
    LOS_ListAdd                              0x08000f63   Thumb Code    14  los_sem.o(i.LOS_ListAdd)
    i.LOS_ListAdd                            0x08000f70   Section        0  los_memory.o(i.LOS_ListAdd)
    LOS_ListAdd                              0x08000f71   Thumb Code    14  los_memory.o(i.LOS_ListAdd)
    i.LOS_ListDelete                         0x08000f7e   Section        0  los_task.o(i.LOS_ListDelete)
    LOS_ListDelete                           0x08000f7f   Thumb Code    20  los_task.o(i.LOS_ListDelete)
    i.LOS_ListDelete                         0x08000f92   Section        0  los_sem.o(i.LOS_ListDelete)
    LOS_ListDelete                           0x08000f93   Thumb Code    20  los_sem.o(i.LOS_ListDelete)
    i.LOS_ListDelete                         0x08000fa6   Section        0  los_memory.o(i.LOS_ListDelete)
    LOS_ListDelete                           0x08000fa7   Thumb Code    20  los_memory.o(i.LOS_ListDelete)
    i.LOS_ListEmpty                          0x08000fba   Section        0  los_task.o(i.LOS_ListEmpty)
    LOS_ListEmpty                            0x08000fbb   Thumb Code    16  los_task.o(i.LOS_ListEmpty)
    i.LOS_ListEmpty                          0x08000fca   Section        0  los_queue.o(i.LOS_ListEmpty)
    LOS_ListEmpty                            0x08000fcb   Thumb Code    16  los_queue.o(i.LOS_ListEmpty)
    i.LOS_ListEmpty                          0x08000fda   Section        0  los_sem.o(i.LOS_ListEmpty)
    LOS_ListEmpty                            0x08000fdb   Thumb Code    16  los_sem.o(i.LOS_ListEmpty)
    i.LOS_ListInit                           0x08000fea   Section        0  los_task.o(i.LOS_ListInit)
    LOS_ListInit                             0x08000feb   Thumb Code     6  los_task.o(i.LOS_ListInit)
    i.LOS_ListInit                           0x08000ff0   Section        0  los_mux.o(i.LOS_ListInit)
    LOS_ListInit                             0x08000ff1   Thumb Code     6  los_mux.o(i.LOS_ListInit)
    i.LOS_ListInit                           0x08000ff6   Section        0  los_queue.o(i.LOS_ListInit)
    LOS_ListInit                             0x08000ff7   Thumb Code     6  los_queue.o(i.LOS_ListInit)
    i.LOS_ListInit                           0x08000ffc   Section        0  los_sem.o(i.LOS_ListInit)
    LOS_ListInit                             0x08000ffd   Thumb Code     6  los_sem.o(i.LOS_ListInit)
    i.LOS_ListTailInsert                     0x08001002   Section        0  los_task.o(i.LOS_ListTailInsert)
    LOS_ListTailInsert                       0x08001003   Thumb Code    16  los_task.o(i.LOS_ListTailInsert)
    i.LOS_ListTailInsert                     0x08001012   Section        0  los_mux.o(i.LOS_ListTailInsert)
    LOS_ListTailInsert                       0x08001013   Thumb Code    16  los_mux.o(i.LOS_ListTailInsert)
    i.LOS_ListTailInsert                     0x08001022   Section        0  los_sem.o(i.LOS_ListTailInsert)
    LOS_ListTailInsert                       0x08001023   Thumb Code    16  los_sem.o(i.LOS_ListTailInsert)
    i.LOS_Log2                               0x08001034   Section        0  los_multipledlinkhead.o(i.LOS_Log2)
    LOS_Log2                                 0x08001035   Thumb Code   320  los_multipledlinkhead.o(i.LOS_Log2)
    i.LOS_MemAlloc                           0x08001178   Section        0  los_memory.o(i.LOS_MemAlloc)
    i.LOS_MemAllocAlign                      0x080011b2   Section        0  los_memory.o(i.LOS_MemAllocAlign)
    i.LOS_MemFree                            0x0800121e   Section        0  los_memory.o(i.LOS_MemFree)
    i.LOS_MemInit                            0x08001272   Section        0  los_memory.o(i.LOS_MemInit)
    i.LOS_MemboxAlloc                        0x08001318   Section        0  los_membox.o(i.LOS_MemboxAlloc)
    i.LOS_MemboxFree                         0x08001358   Section        0  los_membox.o(i.LOS_MemboxFree)
    i.LOS_MemboxInit                         0x080013fc   Section        0  los_membox.o(i.LOS_MemboxInit)
    i.LOS_PriqueueDequeue                    0x0800147c   Section        0  los_priqueue.o(i.LOS_PriqueueDequeue)
    i.LOS_PriqueueEnqueue                    0x08001494   Section        0  los_priqueue.o(i.LOS_PriqueueEnqueue)
    i.LOS_PriqueueSize                       0x080014b8   Section        0  los_priqueue.o(i.LOS_PriqueueSize)
    i.LOS_PriqueueTop                        0x080014e0   Section        0  los_priqueue.o(i.LOS_PriqueueTop)
    i.LOS_QueueCreate                        0x0800151c   Section        0  los_queue.o(i.LOS_QueueCreate)
    i.LOS_QueueRead                          0x08001598   Section        0  los_queue.o(i.LOS_QueueRead)
    i.LOS_QueueWrite                         0x080016c8   Section        0  los_queue.o(i.LOS_QueueWrite)
    i.LOS_Schedule                           0x08001804   Section        0  los_hw.o(i.LOS_Schedule)
    i.LOS_SemPost                            0x08001844   Section        0  los_sem.o(i.LOS_SemPost)
    i.LOS_Start                              0x080018fc   Section        0  los_config.o(i.LOS_Start)
    i.LOS_TaskCreate                         0x08001914   Section        0  los_task.o(i.LOS_TaskCreate)
    i.LOS_TaskCreateOnly                     0x080019b0   Section        0  los_task.o(i.LOS_TaskCreateOnly)
    i.LOS_TaskDelay                          0x08001b34   Section        0  los_task.o(i.LOS_TaskDelay)
    i.LOS_TaskLock                           0x08001bb4   Section        0  los_task.o(i.LOS_TaskLock)
    i.LOS_TaskUnlock                         0x08001bd4   Section        0  los_task.o(i.LOS_TaskUnlock)
    i.LOS_TaskYield                          0x08001c10   Section        0  los_task.o(i.LOS_TaskYield)
    i.MemManage_Handler                      0x08001c94   Section        0  stm32f10x_it.o(i.MemManage_Handler)
    i.NMI_Handler                            0x08001c98   Section        0  stm32f10x_it.o(i.NMI_Handler)
    i.NVIC_Configuration                     0x08001c9a   Section        0  mcu_init.o(i.NVIC_Configuration)
    i.NVIC_Init                              0x08001d48   Section        0  misc.o(i.NVIC_Init)
    i.NVIC_PriorityGroupConfig               0x08001db8   Section        0  misc.o(i.NVIC_PriorityGroupConfig)
    i.NVIC_SetVectorTable                    0x08001dcc   Section        0  misc.o(i.NVIC_SetVectorTable)
    i.RCC_ADCCLKConfig                       0x08001de0   Section        0  stm32f10x_rcc.o(i.RCC_ADCCLKConfig)
    i.RCC_APB1PeriphClockCmd                 0x08001df8   Section        0  stm32f10x_rcc.o(i.RCC_APB1PeriphClockCmd)
    i.RCC_APB1PeriphResetCmd                 0x08001e18   Section        0  stm32f10x_rcc.o(i.RCC_APB1PeriphResetCmd)
    i.RCC_APB2PeriphClockCmd                 0x08001e38   Section        0  stm32f10x_rcc.o(i.RCC_APB2PeriphClockCmd)
    i.RCC_APB2PeriphResetCmd                 0x08001e58   Section        0  stm32f10x_rcc.o(i.RCC_APB2PeriphResetCmd)
    i.RCC_Configuration                      0x08001e78   Section        0  mcu_init.o(i.RCC_Configuration)
    i.RCC_DeInit                             0x08001ef8   Section        0  stm32f10x_rcc.o(i.RCC_DeInit)
    i.RCC_GetClocksFreq                      0x08001f44   Section        0  stm32f10x_rcc.o(i.RCC_GetClocksFreq)
    i.RCC_GetFlagStatus                      0x08002018   Section        0  stm32f10x_rcc.o(i.RCC_GetFlagStatus)
    i.RCC_GetSYSCLKSource                    0x08002054   Section        0  stm32f10x_rcc.o(i.RCC_GetSYSCLKSource)
    i.RCC_HCLKConfig                         0x08002064   Section        0  stm32f10x_rcc.o(i.RCC_HCLKConfig)
    i.RCC_HSEConfig                          0x0800207c   Section        0  stm32f10x_rcc.o(i.RCC_HSEConfig)
    i.RCC_PCLK1Config                        0x080020c8   Section        0  stm32f10x_rcc.o(i.RCC_PCLK1Config)
    i.RCC_PCLK2Config                        0x080020e0   Section        0  stm32f10x_rcc.o(i.RCC_PCLK2Config)
    i.RCC_PLLCmd                             0x080020f8   Section        0  stm32f10x_rcc.o(i.RCC_PLLCmd)
    i.RCC_PLLConfig                          0x08002104   Section        0  stm32f10x_rcc.o(i.RCC_PLLConfig)
    i.RCC_SYSCLKConfig                       0x08002120   Section        0  stm32f10x_rcc.o(i.RCC_SYSCLKConfig)
    i.RCC_WaitForHSEStartUp                  0x08002138   Section        0  stm32f10x_rcc.o(i.RCC_WaitForHSEStartUp)
    i.Read_BH1750                            0x08002170   Section        0  bh1750_s.o(i.Read_BH1750)
    i.SDA_IN                                 0x080021ac   Section        0  i2c_s.o(i.SDA_IN)
    i.SDA_OUT                                0x080021d0   Section        0  i2c_s.o(i.SDA_OUT)
    i.SHT10_Config                           0x080021f4   Section        0  sht10.o(i.SHT10_Config)
    i.SHT10_DATAIn                           0x08002240   Section        0  sht10.o(i.SHT10_DATAIn)
    i.SHT10_DATAOut                          0x08002264   Section        0  sht10.o(i.SHT10_DATAOut)
    i.SHT10_Dly                              0x08002288   Section        0  sht10.o(i.SHT10_Dly)
    i.SHT10_ReadByte                         0x08002298   Section        0  sht10.o(i.SHT10_ReadByte)
    i.SHT10_SoftReset                        0x08002324   Section        0  sht10.o(i.SHT10_SoftReset)
    i.SHT10_TransStart                       0x0800233c   Section        0  sht10.o(i.SHT10_TransStart)
    i.SHT10_WriteByte                        0x080023b0   Section        0  sht10.o(i.SHT10_WriteByte)
    i.SVC_Handler                            0x08002434   Section        0  stm32f10x_it.o(i.SVC_Handler)
    i.SetSysClock                            0x08002436   Section        0  system_stm32f10x.o(i.SetSysClock)
    SetSysClock                              0x08002437   Thumb Code     8  system_stm32f10x.o(i.SetSysClock)
    i.SetSysClockTo72                        0x08002440   Section        0  system_stm32f10x.o(i.SetSysClockTo72)
    SetSysClockTo72                          0x08002441   Thumb Code   214  system_stm32f10x.o(i.SetSysClockTo72)
    i.Start_BH1750                           0x08002520   Section        0  bh1750_s.o(i.Start_BH1750)
    i.SysTick_Handler                        0x08002538   Section        0  los_tick.o(i.SysTick_Handler)
    i.SystemInit                             0x08002560   Section        0  system_stm32f10x.o(i.SystemInit)
    i.Systick_Init                           0x080025c0   Section        0  ult.o(i.Systick_Init)
    i.USART1_IRQHandler                      0x080025d4   Section        0  usart.o(i.USART1_IRQHandler)
    i.USART1_Init                            0x08002620   Section        0  usart.o(i.USART1_Init)
    i.USART1_Putc                            0x080026a4   Section        0  usart.o(i.USART1_Putc)
    i.USART2_IRQHandler                      0x080026c4   Section        0  usart2.o(i.USART2_IRQHandler)
    i.USART_Cmd                              0x08002708   Section        0  stm32f10x_usart.o(i.USART_Cmd)
    i.USART_DeInit                           0x08002720   Section        0  stm32f10x_usart.o(i.USART_DeInit)
    i.USART_GetFlagStatus                    0x080027bc   Section        0  stm32f10x_usart.o(i.USART_GetFlagStatus)
    i.USART_GetITStatus                      0x080027d6   Section        0  stm32f10x_usart.o(i.USART_GetITStatus)
    i.USART_ITConfig                         0x0800282a   Section        0  stm32f10x_usart.o(i.USART_ITConfig)
    i.USART_Init                             0x08002874   Section        0  stm32f10x_usart.o(i.USART_Init)
    i.USART_ReceiveData                      0x0800294c   Section        0  stm32f10x_usart.o(i.USART_ReceiveData)
    i.USART_SendData                         0x08002956   Section        0  stm32f10x_usart.o(i.USART_SendData)
    i.UsageFault_Handler                     0x0800295e   Section        0  stm32f10x_it.o(i.UsageFault_Handler)
    i.__0sprintf                             0x08002964   Section        0  printfa.o(i.__0sprintf)
    i.__0vsprintf                            0x0800298c   Section        0  printfa.o(i.__0vsprintf)
    i.__free$1region                         0x080029b0   Section        0  malloc1.o(i.__free$1region)
    i.__malloc$1region                       0x08002a00   Section        0  malloc1.o(i.__malloc$1region)
    i.__scatterload_copy                     0x08002a6c   Section       14  handlers.o(i.__scatterload_copy)
    i.__scatterload_null                     0x08002a7a   Section        2  handlers.o(i.__scatterload_null)
    i.__scatterload_zeroinit                 0x08002a7c   Section       14  handlers.o(i.__scatterload_zeroinit)
    i._fp_digits                             0x08002a8c   Section        0  printfa.o(i._fp_digits)
    _fp_digits                               0x08002a8d   Thumb Code   366  printfa.o(i._fp_digits)
    i._printf_core                           0x08002c10   Section        0  printfa.o(i._printf_core)
    _printf_core                             0x08002c11   Thumb Code  1744  printfa.o(i._printf_core)
    i._printf_post_padding                   0x080032ec   Section        0  printfa.o(i._printf_post_padding)
    _printf_post_padding                     0x080032ed   Thumb Code    36  printfa.o(i._printf_post_padding)
    i._printf_pre_padding                    0x08003310   Section        0  printfa.o(i._printf_pre_padding)
    _printf_pre_padding                      0x08003311   Thumb Code    46  printfa.o(i._printf_pre_padding)
    i._sputc                                 0x0800333e   Section        0  printfa.o(i._sputc)
    _sputc                                   0x0800333f   Thumb Code    10  printfa.o(i._sputc)
    i._xassert                               0x08003348   Section        0  _xassert.o(i._xassert)
    i.crc8_check                             0x08003350   Section        0  sht10.o(i.crc8_check)
    i.creat_task_get_air_temp_humi           0x08003370   Section        0  task.o(i.creat_task_get_air_temp_humi)
    i.creat_task_get_lux                     0x080033b4   Section        0  task.o(i.creat_task_get_lux)
    i.creat_task_mqtt                        0x080033f8   Section        0  mqtt_task.o(i.creat_task_mqtt)
    i.creat_task_test                        0x0800343c   Section        0  task.o(i.creat_task_test)
    i.delay_ms                               0x08003480   Section        0  ult.o(i.delay_ms)
    i.delay_us                               0x0800349e   Section        0  ult.o(i.delay_us)
    i.get_lux_val                            0x080034bc   Section        0  bh1750_s.o(i.get_lux_val)
    i.handle_message                         0x080034e4   Section        0  mqtt_task.o(i.handle_message)
    handle_message                           0x080034e5   Thumb Code     2  mqtt_task.o(i.handle_message)
    i.hardware_init                          0x080034e6   Section        0  main.o(i.hardware_init)
    i.i2c_Port_Init                          0x0800350c   Section        0  i2c_s.o(i.i2c_Port_Init)
    i.main                                   0x08003574   Section        0  los_config.o(i.main)
    i.network_umqtt_init                     0x08003590   Section        0  mqtt_task.o(i.network_umqtt_init)
    i.osAppInit                              0x080035b8   Section        0  main.o(i.osAppInit)
    i.osHwiDefaultHandler                    0x08003604   Section        0  los_hwi.o(i.osHwiDefaultHandler)
    i.osHwiInit                              0x0800360c   Section        0  los_hwi.o(i.osHwiInit)
    i.osIdleTask                             0x0800363c   Section        0  los_task.o(i.osIdleTask)
    i.osIdleTaskCreate                       0x08003640   Section        0  los_task.o(i.osIdleTaskCreate)
    i.osInterrupt                            0x0800368c   Section        0  los_hwi.o(i.osInterrupt)
    i.osMain                                 0x080036dc   Section        0  los_config.o(i.osMain)
    i.osMemAllocWithCheck                    0x08003742   Section        0  los_memory.o(i.osMemAllocWithCheck)
    osMemAllocWithCheck                      0x08003743   Thumb Code    92  los_memory.o(i.osMemAllocWithCheck)
    i.osMemCheckUsedNode                     0x0800379e   Section        0  los_memory.o(i.osMemCheckUsedNode)
    osMemCheckUsedNode                       0x0800379f   Thumb Code   152  los_memory.o(i.osMemCheckUsedNode)
    i.osMemFindSuitableFreeBlock             0x08003836   Section        0  los_memory.o(i.osMemFindSuitableFreeBlock)
    osMemFindSuitableFreeBlock               0x08003837   Thumb Code    80  los_memory.o(i.osMemFindSuitableFreeBlock)
    i.osMemFreeNode                          0x08003886   Section        0  los_memory.o(i.osMemFreeNode)
    osMemFreeNode                            0x08003887   Thumb Code   178  los_memory.o(i.osMemFreeNode)
    i.osMemIsNodeValid                       0x08003938   Section        0  los_memory.o(i.osMemIsNodeValid)
    osMemIsNodeValid                         0x08003939   Thumb Code    62  los_memory.o(i.osMemIsNodeValid)
    i.osMemMergeNode                         0x08003976   Section        0  los_memory.o(i.osMemMergeNode)
    osMemMergeNode                           0x08003977   Thumb Code    36  los_memory.o(i.osMemMergeNode)
    i.osMemSetMagicNumAndTaskid              0x0800399c   Section        0  los_memory.o(i.osMemSetMagicNumAndTaskid)
    osMemSetMagicNumAndTaskid                0x0800399d   Thumb Code    28  los_memory.o(i.osMemSetMagicNumAndTaskid)
    i.osMemSpitNode                          0x080039bc   Section        0  los_memory.o(i.osMemSpitNode)
    osMemSpitNode                            0x080039bd   Thumb Code    92  los_memory.o(i.osMemSpitNode)
    i.osMemSystemInit                        0x08003a18   Section        0  los_memory.o(i.osMemSystemInit)
    i.osMuxInit                              0x08003a3c   Section        0  los_mux.o(i.osMuxInit)
    i.osPriqueueInit                         0x08003a98   Section        0  los_priqueue.o(i.osPriqueueInit)
    i.osQueueCreate                          0x08003ae0   Section        0  los_queue.o(i.osQueueCreate)
    i.osQueueInit                            0x08003b50   Section        0  los_queue.o(i.osQueueInit)
    i.osQueuePend                            0x08003b88   Section        0  los_queue.o(i.osQueuePend)
    osQueuePend                              0x08003b89   Thumb Code   132  los_queue.o(i.osQueuePend)
    i.osQueueWakeUp                          0x08003c0c   Section        0  los_queue.o(i.osQueueWakeUp)
    osQueueWakeUp                            0x08003c0d   Thumb Code    90  los_queue.o(i.osQueueWakeUp)
    i.osRegister                             0x08003c68   Section        0  los_config.o(i.osRegister)
    i.osSchedule                             0x08003c84   Section        0  los_hw.o(i.osSchedule)
    i.osSemInit                              0x08003c8c   Section        0  los_sem.o(i.osSemInit)
    i.osSwTmrInit                            0x08003ce4   Section        0  los_swtmr.o(i.osSwTmrInit)
    i.osSwTmrStart                           0x08003d90   Section        0  los_swtmr.o(i.osSwTmrStart)
    i.osSwTmrTask                            0x08003df0   Section        0  los_swtmr.o(i.osSwTmrTask)
    i.osSwTmrTaskCreate                      0x08003e40   Section        0  los_swtmr.o(i.osSwTmrTaskCreate)
    i.osSwTmrTimeoutHandle                   0x08003e88   Section        0  los_swtmr.o(i.osSwTmrTimeoutHandle)
    osSwTmrTimeoutHandle                     0x08003e89   Thumb Code   128  los_swtmr.o(i.osSwTmrTimeoutHandle)
    i.osSwtmrDelete                          0x08003f14   Section        0  los_swtmr.o(i.osSwtmrDelete)
    osSwtmrDelete                            0x08003f15   Thumb Code    16  los_swtmr.o(i.osSwtmrDelete)
    i.osSwtmrScan                            0x08003f28   Section        0  los_swtmr.o(i.osSwtmrScan)
    i.osTaskAdd2TimerList                    0x08003f4c   Section        0  los_task.o(i.osTaskAdd2TimerList)
    i.osTaskEntry                            0x0800400c   Section        0  los_task.o(i.osTaskEntry)
    i.osTaskExit                             0x080040b0   Section        0  los_hw.o(i.osTaskExit)
    i.osTaskInit                             0x080040b8   Section        0  los_task.o(i.osTaskInit)
    i.osTaskMemUsedDec                       0x080041e0   Section        0  los_memstat.o(i.osTaskMemUsedDec)
    i.osTaskMemUsedInc                       0x08004214   Section        0  los_memstat.o(i.osTaskMemUsedInc)
    i.osTaskScan                             0x08004250   Section        0  los_task.o(i.osTaskScan)
    i.osTaskSelfDelete                       0x0800432c   Section        0  los_task.o(i.osTaskSelfDelete)
    i.osTickStart                            0x08004428   Section        0  los_hw_tick.o(i.osTickStart)
    i.osTimerListDelete                      0x08004480   Section        0  los_task.o(i.osTimerListDelete)
    i.osTimesliceCheck                       0x080044c8   Section        0  los_timeslice.o(i.osTimesliceCheck)
    i.osTimesliceInit                        0x08004514   Section        0  los_timeslice.o(i.osTimesliceInit)
    i.osTskStackInit                         0x08004524   Section        0  los_hw.o(i.osTskStackInit)
    i.reverse_bit                            0x080045ac   Section        0  sht10.o(i.reverse_bit)
    i.sht10_calculate                        0x080045f8   Section        0  sht10.o(i.sht10_calculate)
    i.sht10_conreset                         0x08004718   Section        0  sht10.o(i.sht10_conreset)
    i.sht10_init                             0x08004764   Section        0  sht10.o(i.sht10_init)
    i.sht10_measure                          0x080047b4   Section        0  sht10.o(i.sht10_measure)
    i.task_get_air_temp_humi                 0x080048e8   Section        0  task.o(i.task_get_air_temp_humi)
    i.task_get_lux                           0x080049cc   Section        0  task.o(i.task_get_lux)
    i.task_mqtt                              0x08004a04   Section        0  mqtt_task.o(i.task_mqtt)
    i.task_test                              0x08004b18   Section        0  task.o(i.task_test)
    i.umqtt_circ_init                        0x08004b2e   Section        0  umqtt.o(i.umqtt_circ_init)
    i.umqtt_circ_pop                         0x08004b38   Section        0  umqtt.o(i.umqtt_circ_pop)
    i.umqtt_circ_push                        0x08004b72   Section        0  umqtt.o(i.umqtt_circ_push)
    i.umqtt_connect                          0x08004bc6   Section        0  umqtt.o(i.umqtt_connect)
    i.umqtt_encode_length                    0x08004c88   Section        0  umqtt.o(i.umqtt_encode_length)
    umqtt_encode_length                      0x08004c89   Thumb Code    50  umqtt.o(i.umqtt_encode_length)
    i.umqtt_init                             0x08004cba   Section        0  umqtt.o(i.umqtt_init)
    i.umqtt_ping                             0x08004ccc   Section        0  umqtt.o(i.umqtt_ping)
    i.umqtt_publish                          0x08004cec   Section        0  umqtt.o(i.umqtt_publish)
    i.usart1_init                            0x08004d52   Section        0  usart.o(i.usart1_init)
    i.usart1_send_nbyte                      0x08004d5e   Section        0  usart.o(i.usart1_send_nbyte)
    i.usart2_init                            0x08004d78   Section        0  usart2.o(i.usart2_init)
    i.usart2_printf                          0x08004e04   Section        0  usart2.o(i.usart2_printf)
    i.usr_umqtt_init                         0x08004e54   Section        0  mqtt_task.o(i.usr_umqtt_init)
    .constdata                               0x08004e64   Section      256  sht10.o(.constdata)
    .vector.bss                              0x20000000   Section     1024  los_hwi.o(.vector.bss)
    .data                                    0x20000600   Section       20  stm32f10x_rcc.o(.data)
    APBAHBPrescTable                         0x20000600   Data          16  stm32f10x_rcc.o(.data)
    ADCPrescTable                            0x20000610   Data           4  stm32f10x_rcc.o(.data)
    .data                                    0x20000614   Section        4  main.o(.data)
    .data                                    0x20000618   Section        4  los_priqueue.o(.data)
    .data                                    0x2000061c   Section       16  los_swtmr.o(.data)
    .data                                    0x2000062c   Section       68  los_task.o(.data)
    .data                                    0x20000670   Section       16  los_tick.o(.data)
    .data                                    0x20000680   Section        8  los_timeslice.o(.data)
    .data                                    0x20000688   Section       12  los_mux.o(.data)
    .data                                    0x20000694   Section        4  los_queue.o(.data)
    .data                                    0x20000698   Section       12  los_sem.o(.data)
    .data                                    0x200006a4   Section        8  los_config.o(.data)
    .data                                    0x200006ac   Section        4  los_hw_tick.o(.data)
    .data                                    0x200006b0   Section        4  los_hwi.o(.data)
    .data                                    0x200006b4   Section        8  bh1750_s.o(.data)
    .data                                    0x200006bc   Section        6  task.o(.data)
    .data                                    0x200006c4   Section       76  mqtt_task.o(.data)
    mqtt_rxbuff                              0x200006c4   Data           2  mqtt_task.o(.data)
    mqtt                                     0x200006c8   Data          68  mqtt_task.o(.data)
    cnt                                      0x2000070c   Data           4  mqtt_task.o(.data)
    .data                                    0x20000710   Section        4  mvars.o(.data)
    .data                                    0x20000714   Section        4  mvars.o(.data)
    .bss                                     0x20000718   Section      208  los_swtmr.o(.bss)
    .bss                                     0x200007e8   Section    12288  los_memory.o(.bss)
    .bss                                     0x200037e8   Section       64  los_memstat.o(.bss)
    .bss                                     0x20003828   Section     1024  los_hwi.o(.bss)
    .bss                                     0x20003c28   Section       32  usart2.o(.bss)
    .bss                                     0x20003c48   Section      128  mqtt_task.o(.bss)
    mqtt_txbuff                              0x20003c88   Data          64  mqtt_task.o(.bss)
    STACK                                    0x20003cc8   Section     1024  startup_stm32f10x_md.o(STACK)

    Global Symbols

    Symbol Name                              Value     Ov Type        Size  Object(Section)

    BuildAttributes$$THM_ISAv4$P$D$K$B$S$PE$A:L22UL41UL21$X:L11$S22US41US21$IEEE1$IW$USESV6$~STKCKD$USESV7$~SHL$OTIME$ROPI$IEEEX$EBA8$MICROLIB$REQ8$PRES8$EABIv2 0x00000000   Number         0  anon$$obj.o ABSOLUTE
    __ARM_use_no_argv                        0x00000000   Number         0  los_config.o ABSOLUTE
    _printf_a                                0x00000000   Number         0  stubs.o ABSOLUTE
    _printf_c                                0x00000000   Number         0  stubs.o ABSOLUTE
    _printf_charcount                        0x00000000   Number         0  stubs.o ABSOLUTE
    _printf_d                                0x00000000   Number         0  stubs.o ABSOLUTE
    _printf_e                                0x00000000   Number         0  stubs.o ABSOLUTE
    _printf_f                                0x00000000   Number         0  stubs.o ABSOLUTE
    _printf_flags                            0x00000000   Number         0  stubs.o ABSOLUTE
    _printf_fp_dec                           0x00000000   Number         0  stubs.o ABSOLUTE
    _printf_fp_hex                           0x00000000   Number         0  stubs.o ABSOLUTE
    _printf_g                                0x00000000   Number         0  stubs.o ABSOLUTE
    _printf_i                                0x00000000   Number         0  stubs.o ABSOLUTE
    _printf_int_dec                          0x00000000   Number         0  stubs.o ABSOLUTE
    _printf_l                                0x00000000   Number         0  stubs.o ABSOLUTE
    _printf_lc                               0x00000000   Number         0  stubs.o ABSOLUTE
    _printf_ll                               0x00000000   Number         0  stubs.o ABSOLUTE
    _printf_lld                              0x00000000   Number         0  stubs.o ABSOLUTE
    _printf_lli                              0x00000000   Number         0  stubs.o ABSOLUTE
    _printf_llo                              0x00000000   Number         0  stubs.o ABSOLUTE
    _printf_llu                              0x00000000   Number         0  stubs.o ABSOLUTE
    _printf_llx                              0x00000000   Number         0  stubs.o ABSOLUTE
    _printf_longlong_dec                     0x00000000   Number         0  stubs.o ABSOLUTE
    _printf_longlong_hex                     0x00000000   Number         0  stubs.o ABSOLUTE
    _printf_longlong_oct                     0x00000000   Number         0  stubs.o ABSOLUTE
    _printf_ls                               0x00000000   Number         0  stubs.o ABSOLUTE
    _printf_mbtowc                           0x00000000   Number         0  stubs.o ABSOLUTE
    _printf_n                                0x00000000   Number         0  stubs.o ABSOLUTE
    _printf_o                                0x00000000   Number         0  stubs.o ABSOLUTE
    _printf_p                                0x00000000   Number         0  stubs.o ABSOLUTE
    _printf_percent                          0x00000000   Number         0  stubs.o ABSOLUTE
    _printf_pre_padding                      0x00000000   Number         0  stubs.o ABSOLUTE
    _printf_return_value                     0x00000000   Number         0  stubs.o ABSOLUTE
    _printf_s                                0x00000000   Number         0  stubs.o ABSOLUTE
    _printf_sizespec                         0x00000000   Number         0  stubs.o ABSOLUTE
    _printf_str                              0x00000000   Number         0  stubs.o ABSOLUTE
    _printf_truncate_signed                  0x00000000   Number         0  stubs.o ABSOLUTE
    _printf_truncate_unsigned                0x00000000   Number         0  stubs.o ABSOLUTE
    _printf_u                                0x00000000   Number         0  stubs.o ABSOLUTE
    _printf_wc                               0x00000000   Number         0  stubs.o ABSOLUTE
    _printf_wctomb                           0x00000000   Number         0  stubs.o ABSOLUTE
    _printf_widthprec                        0x00000000   Number         0  stubs.o ABSOLUTE
    _printf_x                                0x00000000   Number         0  stubs.o ABSOLUTE
    __cpp_initialize__aeabi_                  - Undefined Weak Reference
    __cxa_finalize                            - Undefined Weak Reference
    _clock_init                               - Undefined Weak Reference
    _microlib_exit                            - Undefined Weak Reference
    __Vectors_Size                           0x000000ec   Number         0  startup_stm32f10x_md.o ABSOLUTE
    __Vectors                                0x08000000   Data           4  startup_stm32f10x_md.o(RESET)
    __Vectors_End                            0x080000ec   Data           0  startup_stm32f10x_md.o(RESET)
    __main                                   0x080000ed   Thumb Code     0  entry.o(.ARM.Collect$$$$00000000)
    _main_stk                                0x080000ed   Thumb Code     0  entry3.o(.ARM.Collect$$$$00000002)
    _main_scatterload                        0x080000f1   Thumb Code     0  entry5.o(.ARM.Collect$$$$00000004)
    __main_after_scatterload                 0x080000f5   Thumb Code     0  entry5.o(.ARM.Collect$$$$00000004)
    _main_clock                              0x080000f5   Thumb Code     0  entry7b.o(.ARM.Collect$$$$00000008)
    _main_cpp_init                           0x080000f5   Thumb Code     0  entry8b.o(.ARM.Collect$$$$0000000A)
    _main_init                               0x080000f5   Thumb Code     0  entry9a.o(.ARM.Collect$$$$0000000B)
    __rt_final_cpp                           0x080000fd   Thumb Code     0  entry10a.o(.ARM.Collect$$$$0000000D)
    __rt_final_exit                          0x080000fd   Thumb Code     0  entry11a.o(.ARM.Collect$$$$0000000F)
    osIntNumGet                              0x08000101   Thumb Code     6  los_hwi.o(.emb_text)
    Reset_Handler                            0x08000109   Thumb Code     8  startup_stm32f10x_md.o(.text)
    ADC1_2_IRQHandler                        0x08000123   Thumb Code     0  startup_stm32f10x_md.o(.text)
    CAN1_RX1_IRQHandler                      0x08000123   Thumb Code     0  startup_stm32f10x_md.o(.text)
    CAN1_SCE_IRQHandler                      0x08000123   Thumb Code     0  startup_stm32f10x_md.o(.text)
    DMA1_Channel1_IRQHandler                 0x08000123   Thumb Code     0  startup_stm32f10x_md.o(.text)
    DMA1_Channel2_IRQHandler                 0x08000123   Thumb Code     0  startup_stm32f10x_md.o(.text)
    DMA1_Channel3_IRQHandler                 0x08000123   Thumb Code     0  startup_stm32f10x_md.o(.text)
    DMA1_Channel4_IRQHandler                 0x08000123   Thumb Code     0  startup_stm32f10x_md.o(.text)
    DMA1_Channel5_IRQHandler                 0x08000123   Thumb Code     0  startup_stm32f10x_md.o(.text)
    DMA1_Channel6_IRQHandler                 0x08000123   Thumb Code     0  startup_stm32f10x_md.o(.text)
    DMA1_Channel7_IRQHandler                 0x08000123   Thumb Code     0  startup_stm32f10x_md.o(.text)
    EXTI0_IRQHandler                         0x08000123   Thumb Code     0  startup_stm32f10x_md.o(.text)
    EXTI15_10_IRQHandler                     0x08000123   Thumb Code     0  startup_stm32f10x_md.o(.text)
    EXTI1_IRQHandler                         0x08000123   Thumb Code     0  startup_stm32f10x_md.o(.text)
    EXTI2_IRQHandler                         0x08000123   Thumb Code     0  startup_stm32f10x_md.o(.text)
    EXTI3_IRQHandler                         0x08000123   Thumb Code     0  startup_stm32f10x_md.o(.text)
    EXTI4_IRQHandler                         0x08000123   Thumb Code     0  startup_stm32f10x_md.o(.text)
    EXTI9_5_IRQHandler                       0x08000123   Thumb Code     0  startup_stm32f10x_md.o(.text)
    FLASH_IRQHandler                         0x08000123   Thumb Code     0  startup_stm32f10x_md.o(.text)
    I2C1_ER_IRQHandler                       0x08000123   Thumb Code     0  startup_stm32f10x_md.o(.text)
    I2C1_EV_IRQHandler                       0x08000123   Thumb Code     0  startup_stm32f10x_md.o(.text)
    I2C2_ER_IRQHandler                       0x08000123   Thumb Code     0  startup_stm32f10x_md.o(.text)
    I2C2_EV_IRQHandler                       0x08000123   Thumb Code     0  startup_stm32f10x_md.o(.text)
    PVD_IRQHandler                           0x08000123   Thumb Code     0  startup_stm32f10x_md.o(.text)
    RCC_IRQHandler                           0x08000123   Thumb Code     0  startup_stm32f10x_md.o(.text)
    RTCAlarm_IRQHandler                      0x08000123   Thumb Code     0  startup_stm32f10x_md.o(.text)
    RTC_IRQHandler                           0x08000123   Thumb Code     0  startup_stm32f10x_md.o(.text)
    SPI1_IRQHandler                          0x08000123   Thumb Code     0  startup_stm32f10x_md.o(.text)
    SPI2_IRQHandler                          0x08000123   Thumb Code     0  startup_stm32f10x_md.o(.text)
    TAMPER_IRQHandler                        0x08000123   Thumb Code     0  startup_stm32f10x_md.o(.text)
    TIM1_BRK_IRQHandler                      0x08000123   Thumb Code     0  startup_stm32f10x_md.o(.text)
    TIM1_CC_IRQHandler                       0x08000123   Thumb Code     0  startup_stm32f10x_md.o(.text)
    TIM1_TRG_COM_IRQHandler                  0x08000123   Thumb Code     0  startup_stm32f10x_md.o(.text)
    TIM1_UP_IRQHandler                       0x08000123   Thumb Code     0  startup_stm32f10x_md.o(.text)
    TIM2_IRQHandler                          0x08000123   Thumb Code     0  startup_stm32f10x_md.o(.text)
    TIM3_IRQHandler                          0x08000123   Thumb Code     0  startup_stm32f10x_md.o(.text)
    TIM4_IRQHandler                          0x08000123   Thumb Code     0  startup_stm32f10x_md.o(.text)
    USART3_IRQHandler                        0x08000123   Thumb Code     0  startup_stm32f10x_md.o(.text)
    USBWakeUp_IRQHandler                     0x08000123   Thumb Code     0  startup_stm32f10x_md.o(.text)
    USB_HP_CAN1_TX_IRQHandler                0x08000123   Thumb Code     0  startup_stm32f10x_md.o(.text)
    USB_LP_CAN1_RX0_IRQHandler               0x08000123   Thumb Code     0  startup_stm32f10x_md.o(.text)
    WWDG_IRQHandler                          0x08000123   Thumb Code     0  startup_stm32f10x_md.o(.text)
    LOS_StartToRun                           0x0800012d   Thumb Code     0  los_dispatch.o(.text)
    __aeabi_uldivmod                         0x08000189   Thumb Code    98  uldiv.o(.text)
    __aeabi_memcpy                           0x080001eb   Thumb Code    36  memcpya.o(.text)
    __aeabi_memcpy4                          0x080001eb   Thumb Code     0  memcpya.o(.text)
    __aeabi_memcpy8                          0x080001eb   Thumb Code     0  memcpya.o(.text)
    __aeabi_memset                           0x0800020f   Thumb Code    14  memseta.o(.text)
    __aeabi_memset4                          0x0800020f   Thumb Code     0  memseta.o(.text)
    __aeabi_memset8                          0x0800020f   Thumb Code     0  memseta.o(.text)
    __aeabi_memclr                           0x0800021d   Thumb Code     4  memseta.o(.text)
    __aeabi_memclr4                          0x0800021d   Thumb Code     0  memseta.o(.text)
    __aeabi_memclr8                          0x0800021d   Thumb Code     0  memseta.o(.text)
    _memset$wrapper                          0x08000221   Thumb Code    18  memseta.o(.text)
    strlen                                   0x08000233   Thumb Code    14  strlen.o(.text)
    __aeabi_fadd                             0x08000241   Thumb Code   164  fadd.o(.text)
    __aeabi_fsub                             0x080002e5   Thumb Code     6  fadd.o(.text)
    __aeabi_frsub                            0x080002eb   Thumb Code     6  fadd.o(.text)
    __aeabi_fmul                             0x080002f1   Thumb Code   100  fmul.o(.text)
    __aeabi_dadd                             0x08000355   Thumb Code   322  dadd.o(.text)
    __aeabi_dsub                             0x08000497   Thumb Code     6  dadd.o(.text)
    __aeabi_drsub                            0x0800049d   Thumb Code     6  dadd.o(.text)
    __aeabi_dmul                             0x080004a3   Thumb Code   228  dmul.o(.text)
    __aeabi_ddiv                             0x08000587   Thumb Code   222  ddiv.o(.text)
    __aeabi_ui2f                             0x08000665   Thumb Code    10  ffltui.o(.text)
    __aeabi_i2d                              0x0800066f   Thumb Code    34  dflti.o(.text)
    __aeabi_f2iz                             0x08000691   Thumb Code    50  ffixi.o(.text)
    __aeabi_f2uiz                            0x080006c3   Thumb Code    40  ffixui.o(.text)
    __aeabi_d2ulz                            0x080006eb   Thumb Code    48  dfixul.o(.text)
    __aeabi_f2d                              0x0800071b   Thumb Code    38  f2d.o(.text)
    __aeabi_cdcmpeq                          0x08000741   Thumb Code     0  cdcmple.o(.text)
    __aeabi_cdcmple                          0x08000741   Thumb Code    48  cdcmple.o(.text)
    __aeabi_d2f                              0x08000771   Thumb Code    56  d2f.o(.text)
    __aeabi_cfrcmple                         0x080007a9   Thumb Code    20  cfrcmple.o(.text)
    __aeabi_uidiv                            0x080007bd   Thumb Code     0  uidiv.o(.text)
    __aeabi_uidivmod                         0x080007bd   Thumb Code    44  uidiv.o(.text)
    __aeabi_llsl                             0x080007e9   Thumb Code    30  llshl.o(.text)
    _ll_shift_l                              0x080007e9   Thumb Code     0  llshl.o(.text)
    __aeabi_llsr                             0x08000807   Thumb Code    32  llushr.o(.text)
    _ll_ushift_r                             0x08000807   Thumb Code     0  llushr.o(.text)
    __aeabi_lasr                             0x08000827   Thumb Code    36  llsshr.o(.text)
    _ll_sshift_r                             0x08000827   Thumb Code     0  llsshr.o(.text)
    __I$use$fp                               0x0800084b   Thumb Code     0  iusefp.o(.text)
    _float_round                             0x0800084b   Thumb Code    18  fepilogue.o(.text)
    _float_epilogue                          0x0800085d   Thumb Code    92  fepilogue.o(.text)
    _double_round                            0x080008b9   Thumb Code    30  depilogue.o(.text)
    _double_epilogue                         0x080008d7   Thumb Code   156  depilogue.o(.text)
    __aeabi_cdrcmple                         0x08000975   Thumb Code    48  cdrcmple.o(.text)
    __scatterload                            0x080009a5   Thumb Code    28  init.o(.text)
    __scatterload_rt2                        0x080009a5   Thumb Code     0  init.o(.text)
    __decompress                             0x080009c9   Thumb Code     0  __dczerorl2.o(.text)
    __decompress1                            0x080009c9   Thumb Code    86  __dczerorl2.o(.text)
    LOS_IntLock                              0x08000a21   Thumb Code     0  los_dispatch.o(KERNEL)
    LOS_IntUnLock                            0x08000a29   Thumb Code     0  los_dispatch.o(KERNEL)
    LOS_IntRestore                           0x08000a31   Thumb Code     0  los_dispatch.o(KERNEL)
    osTaskSchedule                           0x08000a37   Thumb Code     0  los_dispatch.o(KERNEL)
    PendSV_Handler                           0x08000a41   Thumb Code     0  los_dispatch.o(KERNEL)
    BusFault_Handler                         0x08000aa1   Thumb Code     4  stm32f10x_it.o(i.BusFault_Handler)
    Cmd_Write_BH1750                         0x08000aa5   Thumb Code    52  bh1750_s.o(i.Cmd_Write_BH1750)
    Convert_BH1750                           0x08000ad9   Thumb Code    66  bh1750_s.o(i.Convert_BH1750)
    DebugMon_Handler                         0x08000b2d   Thumb Code     2  stm32f10x_it.o(i.DebugMon_Handler)
    Delay                                    0x08000b2f   Thumb Code    18  main.o(i.Delay)
    FLASH_PrefetchBufferCmd                  0x08000b41   Thumb Code    22  stm32f10x_flash.o(i.FLASH_PrefetchBufferCmd)
    FLASH_SetLatency                         0x08000b5d   Thumb Code    18  stm32f10x_flash.o(i.FLASH_SetLatency)
    GPIO_EXTILineConfig                      0x08000b75   Thumb Code    60  stm32f10x_gpio.o(i.GPIO_EXTILineConfig)
    GPIO_Init                                0x08000bb5   Thumb Code   278  stm32f10x_gpio.o(i.GPIO_Init)
    GPIO_ReadInputDataBit                    0x08000ccb   Thumb Code    18  stm32f10x_gpio.o(i.GPIO_ReadInputDataBit)
    GPIO_ResetBits                           0x08000cdd   Thumb Code     4  stm32f10x_gpio.o(i.GPIO_ResetBits)
    GPIO_SetBits                             0x08000ce1   Thumb Code     4  stm32f10x_gpio.o(i.GPIO_SetBits)
    HardFault_Handler                        0x08000ce5   Thumb Code     4  stm32f10x_it.o(i.HardFault_Handler)
    I2C_Ack                                  0x08000ce9   Thumb Code    48  i2c_s.o(i.I2C_Ack)
    I2C_NAck                                 0x08000d25   Thumb Code    48  i2c_s.o(i.I2C_NAck)
    I2C_Read_Byte                            0x08000d61   Thumb Code    78  i2c_s.o(i.I2C_Read_Byte)
    I2C_Send_Byte                            0x08000dbd   Thumb Code    70  i2c_s.o(i.I2C_Send_Byte)
    I2C_Start                                0x08000e11   Thumb Code    46  i2c_s.o(i.I2C_Start)
    I2C_Stop                                 0x08000e49   Thumb Code    44  i2c_s.o(i.I2C_Stop)
    I2C_Wait_Ack                             0x08000e7d   Thumb Code    66  i2c_s.o(i.I2C_Wait_Ack)
    Init_BH1750                              0x08000ecd   Thumb Code     8  bh1750_s.o(i.Init_BH1750)
    LOS_Align                                0x08000ed5   Thumb Code    28  los_misc.o(i.LOS_Align)
    LOS_DLnkInitMultiHead                    0x08000ef1   Thumb Code    30  los_multipledlinkhead.o(i.LOS_DLnkInitMultiHead)
    LOS_DLnkMultiHead                        0x08000f0f   Thumb Code    42  los_multipledlinkhead.o(i.LOS_DLnkMultiHead)
    LOS_MemAlloc                             0x08001179   Thumb Code    58  los_memory.o(i.LOS_MemAlloc)
    LOS_MemAllocAlign                        0x080011b3   Thumb Code   108  los_memory.o(i.LOS_MemAllocAlign)
    LOS_MemFree                              0x0800121f   Thumb Code    84  los_memory.o(i.LOS_MemFree)
    LOS_MemInit                              0x08001273   Thumb Code   166  los_memory.o(i.LOS_MemInit)
    LOS_MemboxAlloc                          0x08001319   Thumb Code    60  los_membox.o(i.LOS_MemboxAlloc)
    LOS_MemboxFree                           0x08001359   Thumb Code   158  los_membox.o(i.LOS_MemboxFree)
    LOS_MemboxInit                           0x080013fd   Thumb Code   128  los_membox.o(i.LOS_MemboxInit)
    LOS_PriqueueDequeue                      0x0800147d   Thumb Code    24  los_priqueue.o(i.LOS_PriqueueDequeue)
    LOS_PriqueueEnqueue                      0x08001495   Thumb Code    32  los_priqueue.o(i.LOS_PriqueueEnqueue)
    LOS_PriqueueSize                         0x080014b9   Thumb Code    36  los_priqueue.o(i.LOS_PriqueueSize)
    LOS_PriqueueTop                          0x080014e1   Thumb Code    54  los_priqueue.o(i.LOS_PriqueueTop)
    LOS_QueueCreate                          0x0800151d   Thumb Code   118  los_queue.o(i.LOS_QueueCreate)
    LOS_QueueRead                            0x08001599   Thumb Code   282  los_queue.o(i.LOS_QueueRead)
    LOS_QueueWrite                           0x080016c9   Thumb Code   296  los_queue.o(i.LOS_QueueWrite)
    LOS_Schedule                             0x08001805   Thumb Code    56  los_hw.o(i.LOS_Schedule)
    LOS_SemPost                              0x08001845   Thumb Code   176  los_sem.o(i.LOS_SemPost)
    LOS_Start                                0x080018fd   Thumb Code    22  los_config.o(i.LOS_Start)
    LOS_TaskCreate                           0x08001915   Thumb Code   140  los_task.o(i.LOS_TaskCreate)
    LOS_TaskCreateOnly                       0x080019b1   Thumb Code   368  los_task.o(i.LOS_TaskCreateOnly)
    LOS_TaskDelay                            0x08001b35   Thumb Code   106  los_task.o(i.LOS_TaskDelay)
    LOS_TaskLock                             0x08001bb5   Thumb Code    26  los_task.o(i.LOS_TaskLock)
    LOS_TaskUnlock                           0x08001bd5   Thumb Code    54  los_task.o(i.LOS_TaskUnlock)
    LOS_TaskYield                            0x08001c11   Thumb Code   118  los_task.o(i.LOS_TaskYield)
    MemManage_Handler                        0x08001c95   Thumb Code     4  stm32f10x_it.o(i.MemManage_Handler)
    NMI_Handler                              0x08001c99   Thumb Code     2  stm32f10x_it.o(i.NMI_Handler)
    NVIC_Configuration                       0x08001c9b   Thumb Code   172  mcu_init.o(i.NVIC_Configuration)
    NVIC_Init                                0x08001d49   Thumb Code   100  misc.o(i.NVIC_Init)
    NVIC_PriorityGroupConfig                 0x08001db9   Thumb Code    10  misc.o(i.NVIC_PriorityGroupConfig)
    NVIC_SetVectorTable                      0x08001dcd   Thumb Code    12  misc.o(i.NVIC_SetVectorTable)
    RCC_ADCCLKConfig                         0x08001de1   Thumb Code    18  stm32f10x_rcc.o(i.RCC_ADCCLKConfig)
    RCC_APB1PeriphClockCmd                   0x08001df9   Thumb Code    26  stm32f10x_rcc.o(i.RCC_APB1PeriphClockCmd)
    RCC_APB1PeriphResetCmd                   0x08001e19   Thumb Code    26  stm32f10x_rcc.o(i.RCC_APB1PeriphResetCmd)
    RCC_APB2PeriphClockCmd                   0x08001e39   Thumb Code    26  stm32f10x_rcc.o(i.RCC_APB2PeriphClockCmd)
    RCC_APB2PeriphResetCmd                   0x08001e59   Thumb Code    26  stm32f10x_rcc.o(i.RCC_APB2PeriphResetCmd)
    RCC_Configuration                        0x08001e79   Thumb Code   124  mcu_init.o(i.RCC_Configuration)
    RCC_DeInit                               0x08001ef9   Thumb Code    64  stm32f10x_rcc.o(i.RCC_DeInit)
    RCC_GetClocksFreq                        0x08001f45   Thumb Code   192  stm32f10x_rcc.o(i.RCC_GetClocksFreq)
    RCC_GetFlagStatus                        0x08002019   Thumb Code    56  stm32f10x_rcc.o(i.RCC_GetFlagStatus)
    RCC_GetSYSCLKSource                      0x08002055   Thumb Code    10  stm32f10x_rcc.o(i.RCC_GetSYSCLKSource)
    RCC_HCLKConfig                           0x08002065   Thumb Code    18  stm32f10x_rcc.o(i.RCC_HCLKConfig)
    RCC_HSEConfig                            0x0800207d   Thumb Code    70  stm32f10x_rcc.o(i.RCC_HSEConfig)
    RCC_PCLK1Config                          0x080020c9   Thumb Code    18  stm32f10x_rcc.o(i.RCC_PCLK1Config)
    RCC_PCLK2Config                          0x080020e1   Thumb Code    20  stm32f10x_rcc.o(i.RCC_PCLK2Config)
    RCC_PLLCmd                               0x080020f9   Thumb Code     6  stm32f10x_rcc.o(i.RCC_PLLCmd)
    RCC_PLLConfig                            0x08002105   Thumb Code    24  stm32f10x_rcc.o(i.RCC_PLLConfig)
    RCC_SYSCLKConfig                         0x08002121   Thumb Code    18  stm32f10x_rcc.o(i.RCC_SYSCLKConfig)
    RCC_WaitForHSEStartUp                    0x08002139   Thumb Code    56  stm32f10x_rcc.o(i.RCC_WaitForHSEStartUp)
    Read_BH1750                              0x08002171   Thumb Code    54  bh1750_s.o(i.Read_BH1750)
    SDA_IN                                   0x080021ad   Thumb Code    30  i2c_s.o(i.SDA_IN)
    SDA_OUT                                  0x080021d1   Thumb Code    30  i2c_s.o(i.SDA_OUT)
    SHT10_Config                             0x080021f5   Thumb Code    72  sht10.o(i.SHT10_Config)
    SHT10_DATAIn                             0x08002241   Thumb Code    32  sht10.o(i.SHT10_DATAIn)
    SHT10_DATAOut                            0x08002265   Thumb Code    32  sht10.o(i.SHT10_DATAOut)
    SHT10_Dly                                0x08002289   Thumb Code    16  sht10.o(i.SHT10_Dly)
    SHT10_ReadByte                           0x08002299   Thumb Code   134  sht10.o(i.SHT10_ReadByte)
    SHT10_SoftReset                          0x08002325   Thumb Code    22  sht10.o(i.SHT10_SoftReset)
    SHT10_TransStart                         0x0800233d   Thumb Code   112  sht10.o(i.SHT10_TransStart)
    SHT10_WriteByte                          0x080023b1   Thumb Code   128  sht10.o(i.SHT10_WriteByte)
    SVC_Handler                              0x08002435   Thumb Code     2  stm32f10x_it.o(i.SVC_Handler)
    Start_BH1750                             0x08002521   Thumb Code    22  bh1750_s.o(i.Start_BH1750)
    SysTick_Handler                          0x08002539   Thumb Code    34  los_tick.o(i.SysTick_Handler)
    SystemInit                               0x08002561   Thumb Code    78  system_stm32f10x.o(i.SystemInit)
    Systick_Init                             0x080025c1   Thumb Code    18  ult.o(i.Systick_Init)
    USART1_IRQHandler                        0x080025d5   Thumb Code    70  usart.o(i.USART1_IRQHandler)
    USART1_Init                              0x08002621   Thumb Code   124  usart.o(i.USART1_Init)
    USART1_Putc                              0x080026a5   Thumb Code    28  usart.o(i.USART1_Putc)
    USART2_IRQHandler                        0x080026c5   Thumb Code    62  usart2.o(i.USART2_IRQHandler)
    USART_Cmd                                0x08002709   Thumb Code    24  stm32f10x_usart.o(i.USART_Cmd)
    USART_DeInit                             0x08002721   Thumb Code   134  stm32f10x_usart.o(i.USART_DeInit)
    USART_GetFlagStatus                      0x080027bd   Thumb Code    26  stm32f10x_usart.o(i.USART_GetFlagStatus)
    USART_GetITStatus                        0x080027d7   Thumb Code    84  stm32f10x_usart.o(i.USART_GetITStatus)
    USART_ITConfig                           0x0800282b   Thumb Code    74  stm32f10x_usart.o(i.USART_ITConfig)
    USART_Init                               0x08002875   Thumb Code   210  stm32f10x_usart.o(i.USART_Init)
    USART_ReceiveData                        0x0800294d   Thumb Code    10  stm32f10x_usart.o(i.USART_ReceiveData)
    USART_SendData                           0x08002957   Thumb Code     8  stm32f10x_usart.o(i.USART_SendData)
    UsageFault_Handler                       0x0800295f   Thumb Code     4  stm32f10x_it.o(i.UsageFault_Handler)
    __0sprintf                               0x08002965   Thumb Code    34  printfa.o(i.__0sprintf)
    __1sprintf                               0x08002965   Thumb Code     0  printfa.o(i.__0sprintf)
    __2sprintf                               0x08002965   Thumb Code     0  printfa.o(i.__0sprintf)
    __c89sprintf                             0x08002965   Thumb Code     0  printfa.o(i.__0sprintf)
    sprintf                                  0x08002965   Thumb Code     0  printfa.o(i.__0sprintf)
    __0vsprintf                              0x0800298d   Thumb Code    30  printfa.o(i.__0vsprintf)
    __1vsprintf                              0x0800298d   Thumb Code     0  printfa.o(i.__0vsprintf)
    __2vsprintf                              0x0800298d   Thumb Code     0  printfa.o(i.__0vsprintf)
    __c89vsprintf                            0x0800298d   Thumb Code     0  printfa.o(i.__0vsprintf)
    vsprintf                                 0x0800298d   Thumb Code     0  printfa.o(i.__0vsprintf)
    free                                     0x080029b1   Thumb Code    76  malloc1.o(i.__free$1region)
    malloc                                   0x08002a01   Thumb Code    92  malloc1.o(i.__malloc$1region)
    __scatterload_copy                       0x08002a6d   Thumb Code    14  handlers.o(i.__scatterload_copy)
    __scatterload_null                       0x08002a7b   Thumb Code     2  handlers.o(i.__scatterload_null)
    __scatterload_zeroinit                   0x08002a7d   Thumb Code    14  handlers.o(i.__scatterload_zeroinit)
    _xassert                                 0x08003349   Thumb Code     8  _xassert.o(i._xassert)
    crc8_check                               0x08003351   Thumb Code    28  sht10.o(i.crc8_check)
    creat_task_get_air_temp_humi             0x08003371   Thumb Code    52  task.o(i.creat_task_get_air_temp_humi)
    creat_task_get_lux                       0x080033b5   Thumb Code    52  task.o(i.creat_task_get_lux)
    creat_task_mqtt                          0x080033f9   Thumb Code    52  mqtt_task.o(i.creat_task_mqtt)
    creat_task_test                          0x0800343d   Thumb Code    52  task.o(i.creat_task_test)
    delay_ms                                 0x08003481   Thumb Code    30  ult.o(i.delay_ms)
    delay_us                                 0x0800349f   Thumb Code    28  ult.o(i.delay_us)
    get_lux_val                              0x080034bd   Thumb Code    36  bh1750_s.o(i.get_lux_val)
    hardware_init                            0x080034e7   Thumb Code    38  main.o(i.hardware_init)
    i2c_Port_Init                            0x0800350d   Thumb Code    86  i2c_s.o(i.i2c_Port_Init)
    main                                     0x08003575   Thumb Code    26  los_config.o(i.main)
    network_umqtt_init                       0x08003591   Thumb Code    36  mqtt_task.o(i.network_umqtt_init)
    osAppInit                                0x080035b9   Thumb Code    70  main.o(i.osAppInit)
    osHwiDefaultHandler                      0x08003605   Thumb Code     8  los_hwi.o(i.osHwiDefaultHandler)
    osHwiInit                                0x0800360d   Thumb Code    32  los_hwi.o(i.osHwiInit)
    osIdleTask                               0x0800363d   Thumb Code     4  los_task.o(i.osIdleTask)
    osIdleTaskCreate                         0x08003641   Thumb Code    54  los_task.o(i.osIdleTaskCreate)
    osInterrupt                              0x0800368d   Thumb Code    70  los_hwi.o(i.osInterrupt)
    osMain                                   0x080036dd   Thumb Code   102  los_config.o(i.osMain)
    osMemSystemInit                          0x08003a19   Thumb Code    26  los_memory.o(i.osMemSystemInit)
    osMuxInit                                0x08003a3d   Thumb Code    74  los_mux.o(i.osMuxInit)
    osPriqueueInit                           0x08003a99   Thumb Code    64  los_priqueue.o(i.osPriqueueInit)
    osQueueCreate                            0x08003ae1   Thumb Code   100  los_queue.o(i.osQueueCreate)
    osQueueInit                              0x08003b51   Thumb Code    44  los_queue.o(i.osQueueInit)
    osRegister                               0x08003c69   Thumb Code    14  los_config.o(i.osRegister)
    osSchedule                               0x08003c85   Thumb Code     8  los_hw.o(i.osSchedule)
    osSemInit                                0x08003c8d   Thumb Code    70  los_sem.o(i.osSemInit)
    osSwTmrInit                              0x08003ce5   Thumb Code   142  los_swtmr.o(i.osSwTmrInit)
    osSwTmrStart                             0x08003d91   Thumb Code    92  los_swtmr.o(i.osSwTmrStart)
    osSwTmrTask                              0x08003df1   Thumb Code    70  los_swtmr.o(i.osSwTmrTask)
    osSwTmrTaskCreate                        0x08003e41   Thumb Code    52  los_swtmr.o(i.osSwTmrTaskCreate)
    osSwtmrScan                              0x08003f29   Thumb Code    32  los_swtmr.o(i.osSwtmrScan)
    osTaskAdd2TimerList                      0x08003f4d   Thumb Code   188  los_task.o(i.osTaskAdd2TimerList)
    osTaskEntry                              0x0800400d   Thumb Code   154  los_task.o(i.osTaskEntry)
    osTaskExit                               0x080040b1   Thumb Code     6  los_hw.o(i.osTaskExit)
    osTaskInit                               0x080040b9   Thumb Code   258  los_task.o(i.osTaskInit)
    osTaskMemUsedDec                         0x080041e1   Thumb Code    40  los_memstat.o(i.osTaskMemUsedDec)
    osTaskMemUsedInc                         0x08004215   Thumb Code    48  los_memstat.o(i.osTaskMemUsedInc)
    osTaskScan                               0x08004251   Thumb Code   214  los_task.o(i.osTaskScan)
    osTaskSelfDelete                         0x0800432d   Thumb Code   236  los_task.o(i.osTaskSelfDelete)
    osTickStart                              0x08004429   Thumb Code    56  los_hw_tick.o(i.osTickStart)
    osTimerListDelete                        0x08004481   Thumb Code    66  los_task.o(i.osTimerListDelete)
    osTimesliceCheck                         0x080044c9   Thumb Code    64  los_timeslice.o(i.osTimesliceCheck)
    osTimesliceInit                          0x08004515   Thumb Code    12  los_timeslice.o(i.osTimesliceInit)
    osTskStackInit                           0x08004525   Thumb Code   128  los_hw.o(i.osTskStackInit)
    reverse_bit                              0x080045ad   Thumb Code    76  sht10.o(i.reverse_bit)
    sht10_calculate                          0x080045f9   Thumb Code   242  sht10.o(i.sht10_calculate)
    sht10_conreset                           0x08004719   Thumb Code    72  sht10.o(i.sht10_conreset)
    sht10_init                               0x08004765   Thumb Code    38  sht10.o(i.sht10_init)
    sht10_measure                            0x080047b5   Thumb Code   238  sht10.o(i.sht10_measure)
    task_get_air_temp_humi                   0x080048e9   Thumb Code   164  task.o(i.task_get_air_temp_humi)
    task_get_lux                             0x080049cd   Thumb Code    40  task.o(i.task_get_lux)
    task_mqtt                                0x08004a05   Thumb Code   202  mqtt_task.o(i.task_mqtt)
    task_test                                0x08004b19   Thumb Code    22  task.o(i.task_test)
    umqtt_circ_init                          0x08004b2f   Thumb Code    10  umqtt.o(i.umqtt_circ_init)
    umqtt_circ_pop                           0x08004b39   Thumb Code    58  umqtt.o(i.umqtt_circ_pop)
    umqtt_circ_push                          0x08004b73   Thumb Code    84  umqtt.o(i.umqtt_circ_push)
    umqtt_connect                            0x08004bc7   Thumb Code   194  umqtt.o(i.umqtt_connect)
    umqtt_init                               0x08004cbb   Thumb Code    18  umqtt.o(i.umqtt_init)
    umqtt_ping                               0x08004ccd   Thumb Code    28  umqtt.o(i.umqtt_ping)
    umqtt_publish                            0x08004ced   Thumb Code   102  umqtt.o(i.umqtt_publish)
    usart1_init                              0x08004d53   Thumb Code    12  usart.o(i.usart1_init)
    usart1_send_nbyte                        0x08004d5f   Thumb Code    26  usart.o(i.usart1_send_nbyte)
    usart2_init                              0x08004d79   Thumb Code   132  usart2.o(i.usart2_init)
    usart2_printf                            0x08004e05   Thumb Code    72  usart2.o(i.usart2_printf)
    usr_umqtt_init                           0x08004e55   Thumb Code    10  mqtt_task.o(i.usr_umqtt_init)
    crc8_code                                0x08004e64   Data         256  sht10.o(.constdata)
    Region$$Table$$Base                      0x08004f64   Number         0  anon$$obj.o(Region$$Table)
    Region$$Table$$Limit                     0x08004f94   Number         0  anon$$obj.o(Region$$Table)
    m_pstHwiForm                             0x20000000   Data        1024  los_hwi.o(.vector.bss)
    Image$$ARM_LIB_STACKHEAP$$ZI$$Base       0x20000400   Number         0  anon$$obj.o ABSOLUTE
    Image$$ARM_LIB_STACKHEAP$$ZI$$Limit      0x20000600   Number         0  anon$$obj.o ABSOLUTE
    g_TestTskHandle                          0x20000614   Data           4  main.o(.data)
    g_pstLosPriorityQueueList                0x20000618   Data           4  los_priqueue.o(.data)
    m_uwSwTmrHandlerQueue                    0x2000061c   Data           4  los_swtmr.o(.data)
    m_pstSwtmrCBArray                        0x20000620   Data           4  los_swtmr.o(.data)
    m_pstSwtmrFreeList                       0x20000624   Data           4  los_swtmr.o(.data)
    m_pstSwtmrSortList                       0x20000628   Data           4  los_swtmr.o(.data)
    g_pstTaskCBArray                         0x2000062c   Data           4  los_task.o(.data)
    g_stLosTask                              0x20000630   Data           8  los_task.o(.data)
    g_usLosTaskLock                          0x20000638   Data           2  los_task.o(.data)
    g_uwTskMaxNum                            0x2000063c   Data           4  los_task.o(.data)
    g_uwIdleTaskID                           0x20000640   Data           4  los_task.o(.data)
    g_uwSwtmrTaskID                          0x20000644   Data           4  los_task.o(.data)
    g_stTaskTimerList                        0x20000648   Data           8  los_task.o(.data)
    g_stLosFreeTask                          0x20000650   Data           8  los_task.o(.data)
    g_stTskRecyleList                        0x20000658   Data           8  los_task.o(.data)
    g_stTskSortLink                          0x20000660   Data           8  los_task.o(.data)
    g_bTaskScheduled                         0x20000668   Data           4  los_task.o(.data)
    g_pfnTskSwitchHook                       0x2000066c   Data           4  los_task.o(.data)
    g_ullTickCount                           0x20000670   Data           8  los_tick.o(.data)
    g_uwTicksPerSec                          0x20000678   Data           4  los_tick.o(.data)
    g_uwCyclePerSec                          0x2000067c   Data           4  los_tick.o(.data)
    g_stTaskTimeSlice                        0x20000680   Data           8  los_timeslice.o(.data)
    g_pstAllMux                              0x20000688   Data           4  los_mux.o(.data)
    g_stUnusedMuxList                        0x2000068c   Data           8  los_mux.o(.data)
    g_pstAllQueue                            0x20000694   Data           4  los_queue.o(.data)
    g_stUnusedSemList                        0x20000698   Data           8  los_sem.o(.data)
    g_pstAllSem                              0x200006a0   Data           4  los_sem.o(.data)
    m_aucSysMem0                             0x200006a4   Data           4  los_config.o(.data)
    g_sys_mem_addr_end                       0x200006a8   Data           4  los_config.o(.data)
    g_uwCyclesPerTick                        0x200006ac   Data           4  los_hw_tick.o(.data)
    g_vuwIntCount                            0x200006b0   Data           4  los_hwi.o(.data)
    result_lx                                0x200006b4   Data           4  bh1750_s.o(.data)
    BUF                                      0x200006b8   Data           2  bh1750_s.o(.data)
    result                                   0x200006ba   Data           2  bh1750_s.o(.data)
    air_h                                    0x200006bc   Data           2  task.o(.data)
    air_t                                    0x200006be   Data           2  task.o(.data)
    lux                                      0x200006c0   Data           2  task.o(.data)
    __microlib_freelist                      0x20000710   Data           4  mvars.o(.data)
    __microlib_freelist_initialised          0x20000714   Data           4  mvars.o(.data)
    m_aucSwTmrHandlerPool                    0x20000718   Data         208  los_swtmr.o(.bss)
    g_ucMemStart                             0x200007e8   Data       12288  los_memory.o(.bss)
    g_TskMemUsedInfo                         0x200037e8   Data          64  los_memstat.o(.bss)
    m_pstHwiSlaveForm                        0x20003828   Data        1024  los_hwi.o(.bss)
    USART2_TX_BUF                            0x20003c28   Data          32  usart2.o(.bss)
    json_buf                                 0x20003c48   Data          64  mqtt_task.o(.bss)
    __initial_sp                             0x200040c8   Data           0  startup_stm32f10x_md.o(STACK)



==============================================================================

Memory Map of the image

  Image Entry point : 0x080000ed

  Load Region LR_IROM1 (Base: 0x08000000, Size: 0x000054ac, Max: 0x00020000, ABSOLUTE, COMPRESSED[0x000050c8])

    Execution Region ER_IROM1 (Base: 0x08000000, Size: 0x00004f94, Max: 0x00020000, ABSOLUTE)

    Base Addr    Size         Type   Attr      Idx    E Section Name        Object

    0x08000000   0x000000ec   Data   RO            4    RESET               startup_stm32f10x_md.o
    0x080000ec   0x00000000   Code   RO         5304  * .ARM.Collect$$$$00000000  mc_w.l(entry.o)
    0x080000ec   0x00000004   Code   RO         5672    .ARM.Collect$$$$00000002  mc_w.l(entry3.o)
    0x080000f0   0x00000004   Code   RO         5675    .ARM.Collect$$$$00000004  mc_w.l(entry5.o)
    0x080000f4   0x00000000   Code   RO         5677    .ARM.Collect$$$$00000008  mc_w.l(entry7b.o)
    0x080000f4   0x00000000   Code   RO         5679    .ARM.Collect$$$$0000000A  mc_w.l(entry8b.o)
    0x080000f4   0x00000008   Code   RO         5680    .ARM.Collect$$$$0000000B  mc_w.l(entry9a.o)
    0x080000fc   0x00000000   Code   RO         5682    .ARM.Collect$$$$0000000D  mc_w.l(entry10a.o)
    0x080000fc   0x00000000   Code   RO         5684    .ARM.Collect$$$$0000000F  mc_w.l(entry11a.o)
    0x080000fc   0x00000004   Code   RO         5673    .ARM.Collect$$$$00002713  mc_w.l(entry3.o)
    0x08000100   0x00000006   Code   RO         4466    .emb_text           los_hwi.o
    0x08000106   0x00000002   PAD
    0x08000108   0x00000024   Code   RO            5    .text               startup_stm32f10x_md.o
    0x0800012c   0x0000005c   Code   RO         4515    .text               los_dispatch.o
    0x08000188   0x00000062   Code   RO         5307    .text               mc_w.l(uldiv.o)
    0x080001ea   0x00000024   Code   RO         5309    .text               mc_w.l(memcpya.o)
    0x0800020e   0x00000024   Code   RO         5311    .text               mc_w.l(memseta.o)
    0x08000232   0x0000000e   Code   RO         5317    .text               mc_w.l(strlen.o)
    0x08000240   0x000000b0   Code   RO         5618    .text               mf_w.l(fadd.o)
    0x080002f0   0x00000064   Code   RO         5620    .text               mf_w.l(fmul.o)
    0x08000354   0x0000014e   Code   RO         5622    .text               mf_w.l(dadd.o)
    0x080004a2   0x000000e4   Code   RO         5624    .text               mf_w.l(dmul.o)
    0x08000586   0x000000de   Code   RO         5626    .text               mf_w.l(ddiv.o)
    0x08000664   0x0000000a   Code   RO         5628    .text               mf_w.l(ffltui.o)
    0x0800066e   0x00000022   Code   RO         5630    .text               mf_w.l(dflti.o)
    0x08000690   0x00000032   Code   RO         5634    .text               mf_w.l(ffixi.o)
    0x080006c2   0x00000028   Code   RO         5636    .text               mf_w.l(ffixui.o)
    0x080006ea   0x00000030   Code   RO         5638    .text               mf_w.l(dfixul.o)
    0x0800071a   0x00000026   Code   RO         5640    .text               mf_w.l(f2d.o)
    0x08000740   0x00000030   Code   RO         5642    .text               mf_w.l(cdcmple.o)
    0x08000770   0x00000038   Code   RO         5644    .text               mf_w.l(d2f.o)
    0x080007a8   0x00000014   Code   RO         5646    .text               mf_w.l(cfrcmple.o)
    0x080007bc   0x0000002c   Code   RO         5687    .text               mc_w.l(uidiv.o)
    0x080007e8   0x0000001e   Code   RO         5689    .text               mc_w.l(llshl.o)
    0x08000806   0x00000020   Code   RO         5691    .text               mc_w.l(llushr.o)
    0x08000826   0x00000024   Code   RO         5693    .text               mc_w.l(llsshr.o)
    0x0800084a   0x00000000   Code   RO         5704    .text               mc_w.l(iusefp.o)
    0x0800084a   0x0000006e   Code   RO         5705    .text               mf_w.l(fepilogue.o)
    0x080008b8   0x000000ba   Code   RO         5707    .text               mf_w.l(depilogue.o)
    0x08000972   0x00000002   PAD
    0x08000974   0x00000030   Code   RO         5711    .text               mf_w.l(cdrcmple.o)
    0x080009a4   0x00000024   Code   RO         5716    .text               mc_w.l(init.o)
    0x080009c8   0x00000056   Code   RO         5726    .text               mc_w.l(__dczerorl2.o)
    0x08000a1e   0x00000002   PAD
    0x08000a20   0x00000080   Code   RO         4516    KERNEL              los_dispatch.o
    0x08000aa0   0x00000004   Code   RO         3230    i.BusFault_Handler  stm32f10x_it.o
    0x08000aa4   0x00000034   Code   RO         4937    i.Cmd_Write_BH1750  bh1750_s.o
    0x08000ad8   0x00000054   Code   RO         4938    i.Convert_BH1750    bh1750_s.o
    0x08000b2c   0x00000002   Code   RO         3231    i.DebugMon_Handler  stm32f10x_it.o
    0x08000b2e   0x00000012   Code   RO         3109    i.Delay             main.o
    0x08000b40   0x0000001c   Code   RO         1010    i.FLASH_PrefetchBufferCmd  stm32f10x_flash.o
    0x08000b5c   0x00000018   Code   RO         1015    i.FLASH_SetLatency  stm32f10x_flash.o
    0x08000b74   0x00000040   Code   RO         1290    i.GPIO_EXTILineConfig  stm32f10x_gpio.o
    0x08000bb4   0x00000116   Code   RO         1293    i.GPIO_Init         stm32f10x_gpio.o
    0x08000cca   0x00000012   Code   RO         1297    i.GPIO_ReadInputDataBit  stm32f10x_gpio.o
    0x08000cdc   0x00000004   Code   RO         1300    i.GPIO_ResetBits    stm32f10x_gpio.o
    0x08000ce0   0x00000004   Code   RO         1301    i.GPIO_SetBits      stm32f10x_gpio.o
    0x08000ce4   0x00000004   Code   RO         3232    i.HardFault_Handler  stm32f10x_it.o
    0x08000ce8   0x0000003c   Code   RO         4988    i.I2C_Ack           i2c_s.o
    0x08000d24   0x0000003c   Code   RO         4989    i.I2C_NAck          i2c_s.o
    0x08000d60   0x0000005c   Code   RO         4990    i.I2C_Read_Byte     i2c_s.o
    0x08000dbc   0x00000054   Code   RO         4991    i.I2C_Send_Byte     i2c_s.o
    0x08000e10   0x00000038   Code   RO         4992    i.I2C_Start         i2c_s.o
    0x08000e48   0x00000034   Code   RO         4993    i.I2C_Stop          i2c_s.o
    0x08000e7c   0x00000050   Code   RO         4994    i.I2C_Wait_Ack      i2c_s.o
    0x08000ecc   0x00000008   Code   RO         4939    i.Init_BH1750       bh1750_s.o
    0x08000ed4   0x0000001c   Code   RO         4344    i.LOS_Align         los_misc.o
    0x08000ef0   0x0000001e   Code   RO         4312    i.LOS_DLnkInitMultiHead  los_multipledlinkhead.o
    0x08000f0e   0x0000002a   Code   RO         4313    i.LOS_DLnkMultiHead  los_multipledlinkhead.o
    0x08000f38   0x0000000e   Code   RO         3579    i.LOS_ListAdd       los_task.o
    0x08000f46   0x0000000e   Code   RO         3876    i.LOS_ListAdd       los_mux.o
    0x08000f54   0x0000000e   Code   RO         3950    i.LOS_ListAdd       los_queue.o
    0x08000f62   0x0000000e   Code   RO         4055    i.LOS_ListAdd       los_sem.o
    0x08000f70   0x0000000e   Code   RO         4158    i.LOS_ListAdd       los_memory.o
    0x08000f7e   0x00000014   Code   RO         3580    i.LOS_ListDelete    los_task.o
    0x08000f92   0x00000014   Code   RO         4056    i.LOS_ListDelete    los_sem.o
    0x08000fa6   0x00000014   Code   RO         4159    i.LOS_ListDelete    los_memory.o
    0x08000fba   0x00000010   Code   RO         3581    i.LOS_ListEmpty     los_task.o
    0x08000fca   0x00000010   Code   RO         3951    i.LOS_ListEmpty     los_queue.o
    0x08000fda   0x00000010   Code   RO         4057    i.LOS_ListEmpty     los_sem.o
    0x08000fea   0x00000006   Code   RO         3582    i.LOS_ListInit      los_task.o
    0x08000ff0   0x00000006   Code   RO         3879    i.LOS_ListInit      los_mux.o
    0x08000ff6   0x00000006   Code   RO         3952    i.LOS_ListInit      los_queue.o
    0x08000ffc   0x00000006   Code   RO         4058    i.LOS_ListInit      los_sem.o
    0x08001002   0x00000010   Code   RO         3583    i.LOS_ListTailInsert  los_task.o
    0x08001012   0x00000010   Code   RO         3880    i.LOS_ListTailInsert  los_mux.o
    0x08001022   0x00000010   Code   RO         4059    i.LOS_ListTailInsert  los_sem.o
    0x08001032   0x00000002   PAD
    0x08001034   0x00000144   Code   RO         4314    i.LOS_Log2          los_multipledlinkhead.o
    0x08001178   0x0000003a   Code   RO         4160    i.LOS_MemAlloc      los_memory.o
    0x080011b2   0x0000006c   Code   RO         4161    i.LOS_MemAllocAlign  los_memory.o
    0x0800121e   0x00000054   Code   RO         4162    i.LOS_MemFree       los_memory.o
    0x08001272   0x000000a6   Code   RO         4163    i.LOS_MemInit       los_memory.o
    0x08001318   0x00000040   Code   RO         4125    i.LOS_MemboxAlloc   los_membox.o
    0x08001358   0x000000a4   Code   RO         4127    i.LOS_MemboxFree    los_membox.o
    0x080013fc   0x00000080   Code   RO         4128    i.LOS_MemboxInit    los_membox.o
    0x0800147c   0x00000018   Code   RO         3281    i.LOS_PriqueueDequeue  los_priqueue.o
    0x08001494   0x00000024   Code   RO         3282    i.LOS_PriqueueEnqueue  los_priqueue.o
    0x080014b8   0x00000028   Code   RO         3283    i.LOS_PriqueueSize  los_priqueue.o
    0x080014e0   0x0000003c   Code   RO         3284    i.LOS_PriqueueTop   los_priqueue.o
    0x0800151c   0x0000007c   Code   RO         3953    i.LOS_QueueCreate   los_queue.o
    0x08001598   0x00000130   Code   RO         3955    i.LOS_QueueRead     los_queue.o
    0x080016c8   0x0000013c   Code   RO         3956    i.LOS_QueueWrite    los_queue.o
    0x08001804   0x00000040   Code   RO         4415    i.LOS_Schedule      los_hw.o
    0x08001844   0x000000b8   Code   RO         4063    i.LOS_SemPost       los_sem.o
    0x080018fc   0x00000016   Code   RO         4362    i.LOS_Start         los_config.o
    0x08001912   0x00000002   PAD
    0x08001914   0x0000009c   Code   RO         3584    i.LOS_TaskCreate    los_task.o
    0x080019b0   0x00000184   Code   RO         3585    i.LOS_TaskCreateOnly  los_task.o
    0x08001b34   0x00000080   Code   RO         3586    i.LOS_TaskDelay     los_task.o
    0x08001bb4   0x00000020   Code   RO         3588    i.LOS_TaskLock      los_task.o
    0x08001bd4   0x0000003c   Code   RO         3593    i.LOS_TaskUnlock    los_task.o
    0x08001c10   0x00000084   Code   RO         3594    i.LOS_TaskYield     los_task.o
    0x08001c94   0x00000004   Code   RO         3233    i.MemManage_Handler  stm32f10x_it.o
    0x08001c98   0x00000002   Code   RO         3234    i.NMI_Handler       stm32f10x_it.o
    0x08001c9a   0x000000ac   Code   RO         4521    i.NVIC_Configuration  mcu_init.o
    0x08001d46   0x00000002   PAD
    0x08001d48   0x00000070   Code   RO          138    i.NVIC_Init         misc.o
    0x08001db8   0x00000014   Code   RO          139    i.NVIC_PriorityGroupConfig  misc.o
    0x08001dcc   0x00000014   Code   RO          140    i.NVIC_SetVectorTable  misc.o
    0x08001de0   0x00000018   Code   RO         1707    i.RCC_ADCCLKConfig  stm32f10x_rcc.o
    0x08001df8   0x00000020   Code   RO         1709    i.RCC_APB1PeriphClockCmd  stm32f10x_rcc.o
    0x08001e18   0x00000020   Code   RO         1710    i.RCC_APB1PeriphResetCmd  stm32f10x_rcc.o
    0x08001e38   0x00000020   Code   RO         1711    i.RCC_APB2PeriphClockCmd  stm32f10x_rcc.o
    0x08001e58   0x00000020   Code   RO         1712    i.RCC_APB2PeriphResetCmd  stm32f10x_rcc.o
    0x08001e78   0x00000080   Code   RO         4522    i.RCC_Configuration  mcu_init.o
    0x08001ef8   0x0000004c   Code   RO         1718    i.RCC_DeInit        stm32f10x_rcc.o
    0x08001f44   0x000000d4   Code   RO         1719    i.RCC_GetClocksFreq  stm32f10x_rcc.o
    0x08002018   0x0000003c   Code   RO         1720    i.RCC_GetFlagStatus  stm32f10x_rcc.o
    0x08002054   0x00000010   Code   RO         1722    i.RCC_GetSYSCLKSource  stm32f10x_rcc.o
    0x08002064   0x00000018   Code   RO         1723    i.RCC_HCLKConfig    stm32f10x_rcc.o
    0x0800207c   0x0000004c   Code   RO         1724    i.RCC_HSEConfig     stm32f10x_rcc.o
    0x080020c8   0x00000018   Code   RO         1730    i.RCC_PCLK1Config   stm32f10x_rcc.o
    0x080020e0   0x00000018   Code   RO         1731    i.RCC_PCLK2Config   stm32f10x_rcc.o
    0x080020f8   0x0000000c   Code   RO         1732    i.RCC_PLLCmd        stm32f10x_rcc.o
    0x08002104   0x0000001c   Code   RO         1733    i.RCC_PLLConfig     stm32f10x_rcc.o
    0x08002120   0x00000018   Code   RO         1736    i.RCC_SYSCLKConfig  stm32f10x_rcc.o
    0x08002138   0x00000038   Code   RO         1738    i.RCC_WaitForHSEStartUp  stm32f10x_rcc.o
    0x08002170   0x0000003c   Code   RO         4940    i.Read_BH1750       bh1750_s.o
    0x080021ac   0x00000024   Code   RO         4995    i.SDA_IN            i2c_s.o
    0x080021d0   0x00000024   Code   RO         4996    i.SDA_OUT           i2c_s.o
    0x080021f4   0x0000004c   Code   RO         4772    i.SHT10_Config      sht10.o
    0x08002240   0x00000024   Code   RO         4773    i.SHT10_DATAIn      sht10.o
    0x08002264   0x00000024   Code   RO         4774    i.SHT10_DATAOut     sht10.o
    0x08002288   0x00000010   Code   RO         4775    i.SHT10_Dly         sht10.o
    0x08002298   0x0000008c   Code   RO         4776    i.SHT10_ReadByte    sht10.o
    0x08002324   0x00000016   Code   RO         4778    i.SHT10_SoftReset   sht10.o
    0x0800233a   0x00000002   PAD
    0x0800233c   0x00000074   Code   RO         4779    i.SHT10_TransStart  sht10.o
    0x080023b0   0x00000084   Code   RO         4780    i.SHT10_WriteByte   sht10.o
    0x08002434   0x00000002   Code   RO         3235    i.SVC_Handler       stm32f10x_it.o
    0x08002436   0x00000008   Code   RO           25    i.SetSysClock       system_stm32f10x.o
    0x0800243e   0x00000002   PAD
    0x08002440   0x000000e0   Code   RO           26    i.SetSysClockTo72   system_stm32f10x.o
    0x08002520   0x00000016   Code   RO         4941    i.Start_BH1750      bh1750_s.o
    0x08002536   0x00000002   PAD
    0x08002538   0x00000028   Code   RO         3776    i.SysTick_Handler   los_tick.o
    0x08002560   0x00000060   Code   RO           28    i.SystemInit        system_stm32f10x.o
    0x080025c0   0x00000012   Code   RO         4552    i.Systick_Init      ult.o
    0x080025d2   0x00000002   PAD
    0x080025d4   0x0000004c   Code   RO         5057    i.USART1_IRQHandler  usart.o
    0x08002620   0x00000084   Code   RO         5058    i.USART1_Init       usart.o
    0x080026a4   0x00000020   Code   RO         5059    i.USART1_Putc       usart.o
    0x080026c4   0x00000044   Code   RO         4655    i.USART2_IRQHandler  usart2.o
    0x08002708   0x00000018   Code   RO         2879    i.USART_Cmd         stm32f10x_usart.o
    0x08002720   0x0000009c   Code   RO         2881    i.USART_DeInit      stm32f10x_usart.o
    0x080027bc   0x0000001a   Code   RO         2882    i.USART_GetFlagStatus  stm32f10x_usart.o
    0x080027d6   0x00000054   Code   RO         2883    i.USART_GetITStatus  stm32f10x_usart.o
    0x0800282a   0x0000004a   Code   RO         2885    i.USART_ITConfig    stm32f10x_usart.o
    0x08002874   0x000000d8   Code   RO         2886    i.USART_Init        stm32f10x_usart.o
    0x0800294c   0x0000000a   Code   RO         2893    i.USART_ReceiveData  stm32f10x_usart.o
    0x08002956   0x00000008   Code   RO         2896    i.USART_SendData    stm32f10x_usart.o
    0x0800295e   0x00000004   Code   RO         3236    i.UsageFault_Handler  stm32f10x_it.o
    0x08002962   0x00000002   PAD
    0x08002964   0x00000028   Code   RO         5564    i.__0sprintf        mc_w.l(printfa.o)
    0x0800298c   0x00000024   Code   RO         5568    i.__0vsprintf       mc_w.l(printfa.o)
    0x080029b0   0x00000050   Code   RO         5590    i.__free$1region    mc_w.l(malloc1.o)
    0x08002a00   0x0000006c   Code   RO         5591    i.__malloc$1region  mc_w.l(malloc1.o)
    0x08002a6c   0x0000000e   Code   RO         5720    i.__scatterload_copy  mc_w.l(handlers.o)
    0x08002a7a   0x00000002   Code   RO         5721    i.__scatterload_null  mc_w.l(handlers.o)
    0x08002a7c   0x0000000e   Code   RO         5722    i.__scatterload_zeroinit  mc_w.l(handlers.o)
    0x08002a8a   0x00000002   PAD
    0x08002a8c   0x00000184   Code   RO         5569    i._fp_digits        mc_w.l(printfa.o)
    0x08002c10   0x000006dc   Code   RO         5570    i._printf_core      mc_w.l(printfa.o)
    0x080032ec   0x00000024   Code   RO         5571    i._printf_post_padding  mc_w.l(printfa.o)
    0x08003310   0x0000002e   Code   RO         5572    i._printf_pre_padding  mc_w.l(printfa.o)
    0x0800333e   0x0000000a   Code   RO         5574    i._sputc            mc_w.l(printfa.o)
    0x08003348   0x00000008   Code   RO         4893    i._xassert          _xassert.o
    0x08003350   0x00000020   Code   RO         4782    i.crc8_check        sht10.o
    0x08003370   0x00000044   Code   RO         5197    i.creat_task_get_air_temp_humi  task.o
    0x080033b4   0x00000044   Code   RO         5198    i.creat_task_get_lux  task.o
    0x080033f8   0x00000044   Code   RO         5256    i.creat_task_mqtt   mqtt_task.o
    0x0800343c   0x00000044   Code   RO         5199    i.creat_task_test   task.o
    0x08003480   0x0000001e   Code   RO         4554    i.delay_ms          ult.o
    0x0800349e   0x0000001c   Code   RO         4556    i.delay_us          ult.o
    0x080034ba   0x00000002   PAD
    0x080034bc   0x00000028   Code   RO         4942    i.get_lux_val       bh1750_s.o
    0x080034e4   0x00000002   Code   RO         5257    i.handle_message    mqtt_task.o
    0x080034e6   0x00000026   Code   RO         3110    i.hardware_init     main.o
    0x0800350c   0x00000068   Code   RO         4997    i.i2c_Port_Init     i2c_s.o
    0x08003574   0x0000001a   Code   RO         4363    i.main              los_config.o
    0x0800358e   0x00000002   PAD
    0x08003590   0x00000028   Code   RO         5258    i.network_umqtt_init  mqtt_task.o
    0x080035b8   0x0000004c   Code   RO         3111    i.osAppInit         main.o
    0x08003604   0x00000008   Code   RO         4469    i.osHwiDefaultHandler  los_hwi.o
    0x0800360c   0x00000030   Code   RO         4470    i.osHwiInit         los_hwi.o
    0x0800363c   0x00000004   Code   RO         3595    i.osIdleTask        los_task.o
    0x08003640   0x0000004c   Code   RO         3596    i.osIdleTaskCreate  los_task.o
    0x0800368c   0x00000050   Code   RO         4471    i.osInterrupt       los_hwi.o
    0x080036dc   0x00000066   Code   RO         4366    i.osMain            los_config.o
    0x08003742   0x0000005c   Code   RO         4165    i.osMemAllocWithCheck  los_memory.o
    0x0800379e   0x00000098   Code   RO         4166    i.osMemCheckUsedNode  los_memory.o
    0x08003836   0x00000050   Code   RO         4167    i.osMemFindSuitableFreeBlock  los_memory.o
    0x08003886   0x000000b2   Code   RO         4168    i.osMemFreeNode     los_memory.o
    0x08003938   0x0000003e   Code   RO         4169    i.osMemIsNodeValid  los_memory.o
    0x08003976   0x00000024   Code   RO         4170    i.osMemMergeNode    los_memory.o
    0x0800399a   0x00000002   PAD
    0x0800399c   0x00000020   Code   RO         4171    i.osMemSetMagicNumAndTaskid  los_memory.o
    0x080039bc   0x0000005c   Code   RO         4172    i.osMemSpitNode     los_memory.o
    0x08003a18   0x00000024   Code   RO         4173    i.osMemSystemInit   los_memory.o
    0x08003a3c   0x0000005c   Code   RO         3885    i.osMuxInit         los_mux.o
    0x08003a98   0x00000048   Code   RO         3286    i.osPriqueueInit    los_priqueue.o
    0x08003ae0   0x00000070   Code   RO         3957    i.osQueueCreate     los_queue.o
    0x08003b50   0x00000038   Code   RO         3958    i.osQueueInit       los_queue.o
    0x08003b88   0x00000084   Code   RO         3961    i.osQueuePend       los_queue.o
    0x08003c0c   0x0000005a   Code   RO         3962    i.osQueueWakeUp     los_queue.o
    0x08003c66   0x00000002   PAD
    0x08003c68   0x0000001c   Code   RO         4367    i.osRegister        los_config.o
    0x08003c84   0x00000008   Code   RO         4416    i.osSchedule        los_hw.o
    0x08003c8c   0x00000058   Code   RO         4064    i.osSemInit         los_sem.o
    0x08003ce4   0x000000ac   Code   RO         3379    i.osSwTmrInit       los_swtmr.o
    0x08003d90   0x00000060   Code   RO         3380    i.osSwTmrStart      los_swtmr.o
    0x08003df0   0x00000050   Code   RO         3381    i.osSwTmrTask       los_swtmr.o
    0x08003e40   0x00000048   Code   RO         3382    i.osSwTmrTaskCreate  los_swtmr.o
    0x08003e88   0x0000008c   Code   RO         3383    i.osSwTmrTimeoutHandle  los_swtmr.o
    0x08003f14   0x00000014   Code   RO         3384    i.osSwtmrDelete     los_swtmr.o
    0x08003f28   0x00000024   Code   RO         3385    i.osSwtmrScan       los_swtmr.o
    0x08003f4c   0x000000c0   Code   RO         3597    i.osTaskAdd2TimerList  los_task.o
    0x0800400c   0x000000a4   Code   RO         3598    i.osTaskEntry       los_task.o
    0x080040b0   0x00000006   Code   RO         4417    i.osTaskExit        los_hw.o
    0x080040b6   0x00000002   PAD
    0x080040b8   0x00000128   Code   RO         3599    i.osTaskInit        los_task.o
    0x080041e0   0x00000034   Code   RO         4283    i.osTaskMemUsedDec  los_memstat.o
    0x08004214   0x0000003c   Code   RO         4284    i.osTaskMemUsedInc  los_memstat.o
    0x08004250   0x000000dc   Code   RO         3601    i.osTaskScan        los_task.o
    0x0800432c   0x000000fc   Code   RO         3602    i.osTaskSelfDelete  los_task.o
    0x08004428   0x00000058   Code   RO         4446    i.osTickStart       los_hw_tick.o
    0x08004480   0x00000048   Code   RO         3603    i.osTimerListDelete  los_task.o
    0x080044c8   0x0000004c   Code   RO         3804    i.osTimesliceCheck  los_timeslice.o
    0x08004514   0x00000010   Code   RO         3805    i.osTimesliceInit   los_timeslice.o
    0x08004524   0x00000088   Code   RO         4418    i.osTskStackInit    los_hw.o
    0x080045ac   0x0000004c   Code   RO         4783    i.reverse_bit       sht10.o
    0x080045f8   0x00000120   Code   RO         4785    i.sht10_calculate   sht10.o
    0x08004718   0x0000004c   Code   RO         4786    i.sht10_conreset    sht10.o
    0x08004764   0x00000050   Code   RO         4787    i.sht10_init        sht10.o
    0x080047b4   0x00000134   Code   RO         4788    i.sht10_measure     sht10.o
    0x080048e8   0x000000e4   Code   RO         5200    i.task_get_air_temp_humi  task.o
    0x080049cc   0x00000038   Code   RO         5201    i.task_get_lux      task.o
    0x08004a04   0x00000114   Code   RO         5259    i.task_mqtt         mqtt_task.o
    0x08004b18   0x00000016   Code   RO         5202    i.task_test         task.o
    0x08004b2e   0x0000000a   Code   RO         5105    i.umqtt_circ_init   umqtt.o
    0x08004b38   0x0000003a   Code   RO         5107    i.umqtt_circ_pop    umqtt.o
    0x08004b72   0x00000054   Code   RO         5108    i.umqtt_circ_push   umqtt.o
    0x08004bc6   0x000000c2   Code   RO         5109    i.umqtt_connect     umqtt.o
    0x08004c88   0x00000032   Code   RO         5111    i.umqtt_encode_length  umqtt.o
    0x08004cba   0x00000012   Code   RO         5113    i.umqtt_init        umqtt.o
    0x08004ccc   0x00000020   Code   RO         5115    i.umqtt_ping        umqtt.o
    0x08004cec   0x00000066   Code   RO         5117    i.umqtt_publish     umqtt.o
    0x08004d52   0x0000000c   Code   RO         5062    i.usart1_init       usart.o
    0x08004d5e   0x0000001a   Code   RO         5063    i.usart1_send_nbyte  usart.o
    0x08004d78   0x0000008c   Code   RO         4658    i.usart2_init       usart2.o
    0x08004e04   0x00000050   Code   RO         4659    i.usart2_printf     usart2.o
    0x08004e54   0x00000010   Code   RO         5260    i.usr_umqtt_init    mqtt_task.o
    0x08004e64   0x00000100   Data   RO         4789    .constdata          sht10.o
    0x08004f64   0x00000030   Data   RO         5718    Region$$Table       anon$$obj.o


    Execution Region VECTOR (Base: 0x20000000, Size: 0x00000400, Max: 0x00000400, ABSOLUTE, COMPRESSED[0x0000001c])

    Base Addr    Size         Type   Attr      Idx    E Section Name        Object

    0x20000000   0x00000400   Data   RW         4474    .vector.bss         los_hwi.o


    Execution Region ARM_LIB_STACKHEAP (Base: 0x20000400, Size: 0x00000200, Max: 0x00000200, ABSOLUTE)

    Base Addr    Size         Type   Attr      Idx    E Section Name        Object

    0x20000400   0x00000200   Zero   RW            1    ARM_LIB_STACKHEAP.bss  anon$$obj.o


    Execution Region RW_IRAM1 (Base: 0x20000600, Size: 0x00003ac8, Max: 0x00005000, ABSOLUTE)

    Base Addr    Size         Type   Attr      Idx    E Section Name        Object

    0x20000600   0x00000014   Data   RW         1739    .data               stm32f10x_rcc.o
    0x20000614   0x00000004   Data   RW         3112    .data               main.o
    0x20000618   0x00000004   Data   RW         3287    .data               los_priqueue.o
    0x2000061c   0x00000010   Data   RW         3388    .data               los_swtmr.o
    0x2000062c   0x00000044   Data   RW         3604    .data               los_task.o
    0x20000670   0x00000010   Data   RW         3777    .data               los_tick.o
    0x20000680   0x00000008   Data   RW         3806    .data               los_timeslice.o
    0x20000688   0x0000000c   Data   RW         3886    .data               los_mux.o
    0x20000694   0x00000004   Data   RW         3963    .data               los_queue.o
    0x20000698   0x0000000c   Data   RW         4065    .data               los_sem.o
    0x200006a4   0x00000008   Data   RW         4368    .data               los_config.o
    0x200006ac   0x00000004   Data   RW         4447    .data               los_hw_tick.o
    0x200006b0   0x00000004   Data   RW         4473    .data               los_hwi.o
    0x200006b4   0x00000008   Data   RW         4943    .data               bh1750_s.o
    0x200006bc   0x00000006   Data   RW         5203    .data               task.o
    0x200006c2   0x00000002   PAD
    0x200006c4   0x0000004c   Data   RW         5262    .data               mqtt_task.o
    0x20000710   0x00000004   Data   RW         5695    .data               mc_w.l(mvars.o)
    0x20000714   0x00000004   Data   RW         5696    .data               mc_w.l(mvars.o)
    0x20000718   0x000000d0   Zero   RW         3387    .bss                los_swtmr.o
    0x200007e8   0x00003000   Zero   RW         4174    .bss                los_memory.o
    0x200037e8   0x00000040   Zero   RW         4285    .bss                los_memstat.o
    0x20003828   0x00000400   Zero   RW         4472    .bss                los_hwi.o
    0x20003c28   0x00000020   Zero   RW         4660    .bss                usart2.o
    0x20003c48   0x00000080   Zero   RW         5261    .bss                mqtt_task.o
    0x20003cc8   0x00000400   Zero   RW            2    STACK               startup_stm32f10x_md.o


==============================================================================

Image component sizes


      Code (inc. data)   RO Data    RW Data    ZI Data      Debug   Object Name

         8          0          0          0          0        615   _xassert.o
       266         28          0          8          0       3912   bh1750_s.o
         0          0          0          0          0       4508   core_cm3.o
       660        114          0          0          0       5526   i2c_s.o
       178         14          0          8          0       3470   los_config.o
       220         32          0          0          0        784   los_dispatch.o
       214         16          0          0          0       3038   los_hw.o
        88         32          0          4          0        878   los_hw_tick.o
       142         26          0       1028       1024       5787   los_hwi.o
       356         10          0          0          0       4032   los_membox.o
      1210         14          0          0      12288      16104   los_memory.o
       112         24          0          0         64       2129   los_memstat.o
        28          0          0          0          0        636   los_misc.o
       396          4          0          0          0       5284   los_multipledlinkhead.o
       128         18          0         12          0       6108   los_mux.o
       232         22          0          4          0       7442   los_priqueue.o
      1170         72          0          4          0      18693   los_queue.o
       344         26          0         12          0       5714   los_sem.o
       616         84          0         16        208      17843   los_swtmr.o
      2244        186          0         68          0      25307   los_task.o
        40          6          0         16          0        919   los_tick.o
        92         16          0          8          0       1369   los_timeslice.o
       132          6          0          4          0       3822   main.o
       300          4          0          0          0       1249   mcu_init.o
       152         30          0          0          0       2157   misc.o
       402        100          0         76        128       4373   mqtt_task.o
      1434        192        256          0          0       9525   sht10.o
        36          8        236          0       1024        892   startup_stm32f10x_md.o
        52         12          0          0          0       1141   stm32f10x_flash.o
       368          4          0          0          0       4406   stm32f10x_gpio.o
        22          0          0          0          0       3163   stm32f10x_it.o
       784        110          0         20          0      12627   stm32f10x_rcc.o
       598         28          0          0          0       6972   stm32f10x_usart.o
       328         28          0          0          0     228793   system_stm32f10x.o
       510        128          0          6          0       5018   task.o
        76          0          0          0          0       2541   ult.o
       548          4          0          0          0       7131   umqtt.o
       278         18          0          0          0       2942   usart.o
       288         22          0          0         32     223586   usart2.o

    ----------------------------------------------------------------------
     15080       1438        540       1296      15280     660436   Object Totals
         0          0         48          0        512          0   (incl. Generated)
        28          0          0          2          0          0   (incl. Padding)

    ----------------------------------------------------------------------

      Code (inc. data)   RO Data    RW Data    ZI Data      Debug   Library Member Name

        86          0          0          0          0          0   __dczerorl2.o
         0          0          0          0          0          0   entry.o
         0          0          0          0          0          0   entry10a.o
         0          0          0          0          0          0   entry11a.o
         8          4          0          0          0          0   entry3.o
         4          0          0          0          0          0   entry5.o
         0          0          0          0          0          0   entry7b.o
         0          0          0          0          0          0   entry8b.o
         8          4          0          0          0          0   entry9a.o
        30          0          0          0          0          0   handlers.o
        36          8          0          0          0         68   init.o
         0          0          0          0          0          0   iusefp.o
        30          0          0          0          0         68   llshl.o
        36          0          0          0          0         68   llsshr.o
        32          0          0          0          0         68   llushr.o
       188         20          0          0          0        160   malloc1.o
        36          0          0          0          0         68   memcpya.o
        36          0          0          0          0        108   memseta.o
         0          0          0          8          0          0   mvars.o
      2312         92          0          0          0        600   printfa.o
        14          0          0          0          0         68   strlen.o
        44          0          0          0          0         80   uidiv.o
        98          0          0          0          0         92   uldiv.o
        48          0          0          0          0         68   cdcmple.o
        48          0          0          0          0         68   cdrcmple.o
        20          0          0          0          0         68   cfrcmple.o
        56          0          0          0          0         88   d2f.o
       334          0          0          0          0        148   dadd.o
       222          0          0          0          0        100   ddiv.o
       186          0          0          0          0        176   depilogue.o
        48          0          0          0          0         68   dfixul.o
        34          0          0          0          0         76   dflti.o
       228          0          0          0          0         96   dmul.o
        38          0          0          0          0         68   f2d.o
       176          0          0          0          0        140   fadd.o
       110          0          0          0          0        168   fepilogue.o
        50          0          0          0          0         68   ffixi.o
        40          0          0          0          0         68   ffixui.o
        10          0          0          0          0         68   ffltui.o
       100          0          0          0          0         76   fmul.o

    ----------------------------------------------------------------------
      4752        128          0          8          0       3060   Library Totals
         6          0          0          0          0          0   (incl. Padding)

    ----------------------------------------------------------------------

      Code (inc. data)   RO Data    RW Data    ZI Data      Debug   Library Name

      2998        128          0          8          0       1448   mc_w.l
      1748          0          0          0          0       1612   mf_w.l

    ----------------------------------------------------------------------
      4752        128          0          8          0       3060   Library Totals

    ----------------------------------------------------------------------

==============================================================================


      Code (inc. data)   RO Data    RW Data    ZI Data      Debug   

     19832       1566        540       1304      15280     651768   Grand Totals
     19832       1566        540        308      15280     651768   ELF Image Totals (compressed)
     19832       1566        540        308          0          0   ROM Totals

==============================================================================

    Total RO  Size (Code + RO Data)                20372 (  19.89kB)
    Total RW  Size (RW Data + ZI Data)             16584 (  16.20kB)
    Total ROM Size (Code + RO Data + RW Data)      20680 (  20.20kB)

==============================================================================

