Product: MDK-ARM Professional 5.10
Component: ARM Compiler 5.04 update 1 (build 49)
Tool: armlink [5040049]

==============================================================================

Section Cross References

    startup_stm32f40_41xxx.o(RESET) refers to startup_stm32f40_41xxx.o(STACK) for __initial_sp
    startup_stm32f40_41xxx.o(RESET) refers to startup_stm32f40_41xxx.o(.text) for Reset_Handler
    startup_stm32f40_41xxx.o(RESET) refers to los_dispatch.o(KERNEL) for PendSV_Handler
    startup_stm32f40_41xxx.o(RESET) refers to los_tick.o(i.SysTick_Handler) for SysTick_Handler
    startup_stm32f40_41xxx.o(RESET) refers to usart.o(i.USART1_IRQHandler) for USART1_IRQHandler
    startup_stm32f40_41xxx.o(RESET) refers to usart.o(i.USART2_IRQHandler) for USART2_IRQHandler
    startup_stm32f40_41xxx.o(.text) refers to entry.o(.ARM.Collect$$$$00000000) for __main
    test.o(i.command_received) refers to printfb.o(i.__0printf$bare) for __2printf
    test.o(i.command_received) refers to los_task.o(i.LOS_TaskDelay) for LOS_TaskDelay
    test.o(i.command_received) refers to usart.o(.data) for USART_RX_STA
    test.o(i.command_received) refers to usart.o(.bss) for USART_RX_BUF
    test.o(i.creat_command_task) refers to los_task.o(i.LOS_TaskCreate) for LOS_TaskCreate
    test.o(i.creat_command_task) refers to test.o(i.command_received) for command_received
    test.o(i.creat_command_task) refers to test.o(.data) for g_TestTskHandle
    test.o(i.creat_task1) refers to los_task.o(i.LOS_TaskCreate) for LOS_TaskCreate
    test.o(i.creat_task1) refers to test.o(i.task1) for task1
    test.o(i.creat_task1) refers to test.o(.data) for g_TestTskHandle
    test.o(i.creat_uart_task) refers to los_task.o(i.LOS_TaskCreate) for LOS_TaskCreate
    test.o(i.creat_uart_task) refers to test.o(i.uart_task) for uart_task
    test.o(i.creat_uart_task) refers to test.o(.data) for g_TestTskHandle
    test.o(i.main1) refers to sys.o(i.Stm32_Clock_Init) for Stm32_Clock_Init
    test.o(i.main1) refers to usart.o(i.uart_init) for uart_init
    test.o(i.main1) refers to printfb.o(i.__0printf$bare) for __2printf
    test.o(i.main1) refers to usart.o(.data) for USART_RX_STA
    test.o(i.main1) refers to usart.o(.bss) for USART_RX_BUF
    test.o(i.osAppInit) refers to led.o(i.LED_Init) for LED_Init
    test.o(i.osAppInit) refers to sys.o(i.Stm32_Clock_Init) for Stm32_Clock_Init
    test.o(i.osAppInit) refers to usart.o(i.uart_init) for uart_init
    test.o(i.osAppInit) refers to test.o(i.Delay) for Delay
    test.o(i.osAppInit) refers to test.o(i.creat_task1) for creat_task1
    test.o(i.osAppInit) refers to test.o(i.creat_uart_task) for creat_uart_task
    test.o(i.task1) refers to los_task.o(i.LOS_TaskDelay) for LOS_TaskDelay
    test.o(i.uart_task) refers to printfb.o(i.__0printf$bare) for __2printf
    test.o(i.uart_task) refers to los_task.o(i.LOS_TaskDelay) for LOS_TaskDelay
    test.o(i.uart_task) refers to usart.o(.data) for USART2_RX_STA
    test.o(i.uart_task) refers to usart.o(.bss) for USART2_RX_BUF
    sys.o(i.MY_NVIC_Init) refers to sys.o(i.MY_NVIC_PriorityGroupConfig) for MY_NVIC_PriorityGroupConfig
    sys.o(i.Stm32_Clock_Init) refers to sys.o(i.Sys_Clock_Set) for Sys_Clock_Set
    sys.o(i.Stm32_Clock_Init) refers to sys.o(i.MY_NVIC_SetVectorTable) for MY_NVIC_SetVectorTable
    sys.o(i.Sys_Standby) refers to sys.o(.emb_text) for WFI_SET
    usart.o(i.USART1_IRQHandler) refers to los_dispatch.o(KERNEL) for LOS_IntLock
    usart.o(i.USART1_IRQHandler) refers to usart.o(.data) for USART_RX_STA
    usart.o(i.USART1_IRQHandler) refers to usart.o(.bss) for USART_RX_BUF
    usart.o(i.USART2_IRQHandler) refers to los_dispatch.o(KERNEL) for LOS_IntLock
    usart.o(i.USART2_IRQHandler) refers to usart.o(.data) for USART2_RX_STA
    usart.o(i.USART2_IRQHandler) refers to usart.o(.bss) for USART2_RX_BUF
    usart.o(i.uart_init) refers to sys.o(i.GPIO_Set) for GPIO_Set
    usart.o(i.uart_init) refers to sys.o(i.GPIO_AF_Set) for GPIO_AF_Set
    usart.o(i.uart_init) refers to los_hwi.o(i.LOS_HwiCreate) for LOS_HwiCreate
    usart.o(i.uart_init) refers to usart.o(i.USART1_IRQHandler) for USART1_IRQHandler
    usart.o(i.uart_init) refers to usart.o(i.USART2_IRQHandler) for USART2_IRQHandler
    led.o(i.LED_Init) refers to sys.o(i.GPIO_Set) for GPIO_Set
    los_priqueue.o(i.LOS_PriqueueEnqueue) refers to los_priqueue.o(.data) for g_pstLosPriorityQueueList
    los_priqueue.o(i.LOS_PriqueueSize) refers to los_priqueue.o(.data) for g_pstLosPriorityQueueList
    los_priqueue.o(i.LOS_PriqueueTop) refers to los_priqueue.o(.data) for g_pstLosPriorityQueueList
    los_priqueue.o(i.LOS_PriqueueTotalSize) refers to los_priqueue.o(i.LOS_PriqueueSize) for LOS_PriqueueSize
    los_priqueue.o(i.osPriqueueInit) refers to los_memory.o(i.LOS_MemAlloc) for LOS_MemAlloc
    los_priqueue.o(i.osPriqueueInit) refers to los_config.o(.data) for m_aucSysMem0
    los_priqueue.o(i.osPriqueueInit) refers to los_priqueue.o(.data) for g_pstLosPriorityQueueList
    los_swtmr.o(i.LOS_SwtmrCreate) refers to los_dispatch.o(KERNEL) for LOS_IntLock
    los_swtmr.o(i.LOS_SwtmrCreate) refers to los_swtmr.o(.data) for m_pstSwtmrFreeList
    los_swtmr.o(i.LOS_SwtmrDelete) refers to los_dispatch.o(KERNEL) for LOS_IntLock
    los_swtmr.o(i.LOS_SwtmrDelete) refers to los_swtmr.o(i.osSwtmrStop) for osSwtmrStop
    los_swtmr.o(i.LOS_SwtmrDelete) refers to los_swtmr.o(i.osSwtmrDelete) for osSwtmrDelete
    los_swtmr.o(i.LOS_SwtmrDelete) refers to los_swtmr.o(.data) for m_pstSwtmrCBArray
    los_swtmr.o(i.LOS_SwtmrStart) refers to los_dispatch.o(KERNEL) for LOS_IntLock
    los_swtmr.o(i.LOS_SwtmrStart) refers to los_swtmr.o(i.osSwtmrStop) for osSwtmrStop
    los_swtmr.o(i.LOS_SwtmrStart) refers to los_swtmr.o(i.osSwTmrStart) for osSwTmrStart
    los_swtmr.o(i.LOS_SwtmrStart) refers to los_swtmr.o(.data) for m_pstSwtmrCBArray
    los_swtmr.o(i.LOS_SwtmrStop) refers to los_dispatch.o(KERNEL) for LOS_IntLock
    los_swtmr.o(i.LOS_SwtmrStop) refers to los_swtmr.o(i.osSwtmrStop) for osSwtmrStop
    los_swtmr.o(i.LOS_SwtmrStop) refers to los_swtmr.o(.data) for m_pstSwtmrCBArray
    los_swtmr.o(i.osSwTmrAdjust) refers to los_swtmr.o(i.osSwTmrTimeoutHandle) for osSwTmrTimeoutHandle
    los_swtmr.o(i.osSwTmrAdjust) refers to los_swtmr.o(.data) for m_pstSwtmrSortList
    los_swtmr.o(i.osSwTmrGetNextTimeout) refers to los_swtmr.o(.data) for m_pstSwtmrSortList
    los_swtmr.o(i.osSwTmrInit) refers to los_memory.o(i.LOS_MemAlloc) for LOS_MemAlloc
    los_swtmr.o(i.osSwTmrInit) refers to memseta.o(.text) for __aeabi_memclr4
    los_swtmr.o(i.osSwTmrInit) refers to los_membox.o(i.LOS_MemboxInit) for LOS_MemboxInit
    los_swtmr.o(i.osSwTmrInit) refers to los_queue.o(i.LOS_QueueCreate) for LOS_QueueCreate
    los_swtmr.o(i.osSwTmrInit) refers to los_swtmr.o(i.osSwTmrTaskCreate) for osSwTmrTaskCreate
    los_swtmr.o(i.osSwTmrInit) refers to los_swtmr.o(.data) for m_pstSwtmrSortList
    los_swtmr.o(i.osSwTmrInit) refers to los_config.o(.data) for m_aucSysMem0
    los_swtmr.o(i.osSwTmrInit) refers to los_swtmr.o(.bss) for m_aucSwTmrHandlerPool
    los_swtmr.o(i.osSwTmrStart) refers to los_swtmr.o(.data) for m_pstSwtmrSortList
    los_swtmr.o(i.osSwTmrTask) refers to los_queue.o(i.LOS_QueueRead) for LOS_QueueRead
    los_swtmr.o(i.osSwTmrTask) refers to los_membox.o(i.LOS_MemboxFree) for LOS_MemboxFree
    los_swtmr.o(i.osSwTmrTask) refers to los_swtmr.o(.data) for m_uwSwTmrHandlerQueue
    los_swtmr.o(i.osSwTmrTask) refers to los_swtmr.o(.bss) for m_aucSwTmrHandlerPool
    los_swtmr.o(i.osSwTmrTaskCreate) refers to memseta.o(.text) for __aeabi_memclr4
    los_swtmr.o(i.osSwTmrTaskCreate) refers to los_task.o(i.LOS_TaskCreate) for LOS_TaskCreate
    los_swtmr.o(i.osSwTmrTaskCreate) refers to los_swtmr.o(i.osSwTmrTask) for osSwTmrTask
    los_swtmr.o(i.osSwTmrTaskCreate) refers to los_task.o(.data) for g_uwSwtmrTaskID
    los_swtmr.o(i.osSwTmrTimeoutHandle) refers to los_membox.o(i.LOS_MemboxAlloc) for LOS_MemboxAlloc
    los_swtmr.o(i.osSwTmrTimeoutHandle) refers to los_queue.o(i.LOS_QueueWrite) for LOS_QueueWrite
    los_swtmr.o(i.osSwTmrTimeoutHandle) refers to los_membox.o(i.LOS_MemboxFree) for LOS_MemboxFree
    los_swtmr.o(i.osSwTmrTimeoutHandle) refers to los_swtmr.o(i.osSwtmrDelete) for osSwtmrDelete
    los_swtmr.o(i.osSwTmrTimeoutHandle) refers to los_swtmr.o(i.osSwTmrStart) for osSwTmrStart
    los_swtmr.o(i.osSwTmrTimeoutHandle) refers to los_swtmr.o(.data) for m_pstSwtmrSortList
    los_swtmr.o(i.osSwTmrTimeoutHandle) refers to los_swtmr.o(.bss) for m_aucSwTmrHandlerPool
    los_swtmr.o(i.osSwtmrDelete) refers to los_swtmr.o(.data) for m_pstSwtmrFreeList
    los_swtmr.o(i.osSwtmrScan) refers to los_swtmr.o(i.osSwTmrTimeoutHandle) for osSwTmrTimeoutHandle
    los_swtmr.o(i.osSwtmrScan) refers to los_swtmr.o(.data) for m_pstSwtmrSortList
    los_swtmr.o(i.osSwtmrStop) refers to los_swtmr.o(.data) for m_pstSwtmrSortList
    los_sys.o(i.LOS_MS2Tick) refers to uldiv.o(.text) for __aeabi_uldivmod
    los_sys.o(i.LOS_Reboot) refers to los_dispatch.o(KERNEL) for LOS_IntLock
    los_sys.o(i.LOS_Tick2MS) refers to uldiv.o(.text) for __aeabi_uldivmod
    los_sys.o(i.LOS_TickCountGet) refers to los_tick.o(.data) for g_ullTickCount
    los_sys.o(i.get_jiffies_64) refers to los_sys.o(i.LOS_TickCountGet) for LOS_TickCountGet
    los_sys.o(i.jiffies_to_msecs) refers to los_sys.o(i.LOS_Tick2MS) for LOS_Tick2MS
    los_sys.o(i.osCpuTick2MS) refers to dfltul.o(.text) for __aeabi_ul2d
    los_sys.o(i.osCpuTick2MS) refers to ddiv.o(.text) for __aeabi_ddiv
    los_sys.o(i.osCpuTick2MS) refers to dfixul.o(.text) for __aeabi_d2ulz
    los_sys.o(i.osCpuTick2US) refers to dfltul.o(.text) for __aeabi_ul2d
    los_sys.o(i.osCpuTick2US) refers to ddiv.o(.text) for __aeabi_ddiv
    los_sys.o(i.osCpuTick2US) refers to dfixul.o(.text) for __aeabi_d2ulz
    los_task.o(i.LOS_CurTaskIDGet) refers to los_task.o(.data) for g_stLosTask
    los_task.o(i.LOS_CurTaskPriSet) refers to los_task.o(i.LOS_TaskPriSet) for LOS_TaskPriSet
    los_task.o(i.LOS_CurTaskPriSet) refers to los_task.o(.data) for g_stLosTask
    los_task.o(i.LOS_ListTailInsert) refers to los_task.o(i.LOS_ListAdd) for LOS_ListAdd
    los_task.o(i.LOS_TaskCreate) refers to los_task.o(i.LOS_TaskCreateOnly) for LOS_TaskCreateOnly
    los_task.o(i.LOS_TaskCreate) refers to los_dispatch.o(KERNEL) for LOS_IntLock
    los_task.o(i.LOS_TaskCreate) refers to los_priqueue.o(i.LOS_PriqueueEnqueue) for LOS_PriqueueEnqueue
    los_task.o(i.LOS_TaskCreate) refers to los_priqueue.o(i.LOS_PriqueueTop) for LOS_PriqueueTop
    los_task.o(i.LOS_TaskCreate) refers to los_hw.o(i.osSchedule) for osSchedule
    los_task.o(i.LOS_TaskCreate) refers to los_task.o(.data) for g_pstTaskCBArray
    los_task.o(i.LOS_TaskCreateOnly) refers to los_misc.o(i.LOS_Align) for LOS_Align
    los_task.o(i.LOS_TaskCreateOnly) refers to los_dispatch.o(KERNEL) for LOS_IntLock
    los_task.o(i.LOS_TaskCreateOnly) refers to los_task.o(i.LOS_ListDelete) for LOS_ListDelete
    los_task.o(i.LOS_TaskCreateOnly) refers to los_task.o(i.LOS_ListAdd) for LOS_ListAdd
    los_task.o(i.LOS_TaskCreateOnly) refers to los_memory.o(i.LOS_MemFree) for LOS_MemFree
    los_task.o(i.LOS_TaskCreateOnly) refers to los_task.o(i.LOS_ListEmpty) for LOS_ListEmpty
    los_task.o(i.LOS_TaskCreateOnly) refers to los_memory.o(i.LOS_MemAllocAlign) for LOS_MemAllocAlign
    los_task.o(i.LOS_TaskCreateOnly) refers to los_hw.o(i.osTskStackInit) for osTskStackInit
    los_task.o(i.LOS_TaskCreateOnly) refers to los_task.o(.data) for g_stTskRecyleList
    los_task.o(i.LOS_TaskCreateOnly) refers to los_config.o(.data) for m_aucSysMem0
    los_task.o(i.LOS_TaskDelay) refers to los_task.o(i.LOS_TaskYield) for LOS_TaskYield
    los_task.o(i.LOS_TaskDelay) refers to los_dispatch.o(KERNEL) for LOS_IntLock
    los_task.o(i.LOS_TaskDelay) refers to los_priqueue.o(i.LOS_PriqueueDequeue) for LOS_PriqueueDequeue
    los_task.o(i.LOS_TaskDelay) refers to los_task.o(i.osTaskAdd2TimerList) for osTaskAdd2TimerList
    los_task.o(i.LOS_TaskDelay) refers to los_hw.o(i.LOS_Schedule) for LOS_Schedule
    los_task.o(i.LOS_TaskDelay) refers to los_hwi.o(.data) for g_vuwIntCount
    los_task.o(i.LOS_TaskDelay) refers to los_task.o(.data) for g_usLosTaskLock
    los_task.o(i.LOS_TaskDelete) refers to los_dispatch.o(KERNEL) for LOS_IntLock
    los_task.o(i.LOS_TaskDelete) refers to los_priqueue.o(i.LOS_PriqueueDequeue) for LOS_PriqueueDequeue
    los_task.o(i.LOS_TaskDelete) refers to los_task.o(i.LOS_ListDelete) for LOS_ListDelete
    los_task.o(i.LOS_TaskDelete) refers to los_task.o(i.osTimerListDelete) for osTimerListDelete
    los_task.o(i.LOS_TaskDelete) refers to los_priqueue.o(i.LOS_PriqueueTop) for LOS_PriqueueTop
    los_task.o(i.LOS_TaskDelete) refers to los_task.o(i.LOS_ListTailInsert) for LOS_ListTailInsert
    los_task.o(i.LOS_TaskDelete) refers to los_hw.o(i.osSchedule) for osSchedule
    los_task.o(i.LOS_TaskDelete) refers to los_task.o(i.LOS_ListAdd) for LOS_ListAdd
    los_task.o(i.LOS_TaskDelete) refers to los_memory.o(i.LOS_MemFree) for LOS_MemFree
    los_task.o(i.LOS_TaskDelete) refers to los_task.o(.data) for g_uwIdleTaskID
    los_task.o(i.LOS_TaskDelete) refers to los_config.o(.data) for m_aucSysMem0
    los_task.o(i.LOS_TaskLock) refers to los_dispatch.o(KERNEL) for LOS_IntLock
    los_task.o(i.LOS_TaskLock) refers to los_task.o(.data) for g_usLosTaskLock
    los_task.o(i.LOS_TaskPriGet) refers to los_dispatch.o(KERNEL) for LOS_IntLock
    los_task.o(i.LOS_TaskPriGet) refers to los_task.o(.data) for g_uwTskMaxNum
    los_task.o(i.LOS_TaskPriSet) refers to los_dispatch.o(KERNEL) for LOS_IntLock
    los_task.o(i.LOS_TaskPriSet) refers to los_priqueue.o(i.LOS_PriqueueDequeue) for LOS_PriqueueDequeue
    los_task.o(i.LOS_TaskPriSet) refers to los_priqueue.o(i.LOS_PriqueueEnqueue) for LOS_PriqueueEnqueue
    los_task.o(i.LOS_TaskPriSet) refers to los_hw.o(i.LOS_Schedule) for LOS_Schedule
    los_task.o(i.LOS_TaskPriSet) refers to los_task.o(.data) for g_uwIdleTaskID
    los_task.o(i.LOS_TaskResume) refers to los_dispatch.o(KERNEL) for LOS_IntLock
    los_task.o(i.LOS_TaskResume) refers to los_priqueue.o(i.LOS_PriqueueEnqueue) for LOS_PriqueueEnqueue
    los_task.o(i.LOS_TaskResume) refers to los_hw.o(i.LOS_Schedule) for LOS_Schedule
    los_task.o(i.LOS_TaskResume) refers to los_priqueue.o(i.LOS_PriqueueTop) for LOS_PriqueueTop
    los_task.o(i.LOS_TaskResume) refers to los_task.o(.data) for g_pstTaskCBArray
    los_task.o(i.LOS_TaskSuspend) refers to los_dispatch.o(KERNEL) for LOS_IntLock
    los_task.o(i.LOS_TaskSuspend) refers to los_priqueue.o(i.LOS_PriqueueDequeue) for LOS_PriqueueDequeue
    los_task.o(i.LOS_TaskSuspend) refers to los_hw.o(i.LOS_Schedule) for LOS_Schedule
    los_task.o(i.LOS_TaskSuspend) refers to los_task.o(.data) for g_uwIdleTaskID
    los_task.o(i.LOS_TaskUnlock) refers to los_dispatch.o(KERNEL) for LOS_IntLock
    los_task.o(i.LOS_TaskUnlock) refers to los_hw.o(i.LOS_Schedule) for LOS_Schedule
    los_task.o(i.LOS_TaskUnlock) refers to los_task.o(.data) for g_usLosTaskLock
    los_task.o(i.LOS_TaskYield) refers to los_dispatch.o(KERNEL) for LOS_IntLock
    los_task.o(i.LOS_TaskYield) refers to los_priqueue.o(i.LOS_PriqueueSize) for LOS_PriqueueSize
    los_task.o(i.LOS_TaskYield) refers to los_task.o(i.LOS_ListDelete) for LOS_ListDelete
    los_task.o(i.LOS_TaskYield) refers to los_priqueue.o(i.LOS_PriqueueEnqueue) for LOS_PriqueueEnqueue
    los_task.o(i.LOS_TaskYield) refers to los_hw.o(i.LOS_Schedule) for LOS_Schedule
    los_task.o(i.LOS_TaskYield) refers to los_task.o(.data) for g_stLosTask
    los_task.o(i.osIdleTaskCreate) refers to memseta.o(.text) for __aeabi_memclr4
    los_task.o(i.osIdleTaskCreate) refers to los_task.o(i.LOS_TaskCreate) for LOS_TaskCreate
    los_task.o(i.osIdleTaskCreate) refers to los_task.o(i.osIdleTask) for osIdleTask
    los_task.o(i.osIdleTaskCreate) refers to los_task.o(.data) for g_uwIdleTaskID
    los_task.o(i.osTaskAdd2TimerList) refers to los_task.o(i.LOS_ListTailInsert) for LOS_ListTailInsert
    los_task.o(i.osTaskAdd2TimerList) refers to los_task.o(.data) for g_stTskSortLink
    los_task.o(i.osTaskEntry) refers to los_dispatch.o(KERNEL) for LOS_IntLock
    los_task.o(i.osTaskEntry) refers to los_task.o(i.osTaskSelfDelete) for osTaskSelfDelete
    los_task.o(i.osTaskEntry) refers to los_task.o(i.LOS_TaskLock) for LOS_TaskLock
    los_task.o(i.osTaskEntry) refers to los_sem.o(i.LOS_SemPost) for LOS_SemPost
    los_task.o(i.osTaskEntry) refers to los_priqueue.o(i.LOS_PriqueueDequeue) for LOS_PriqueueDequeue
    los_task.o(i.osTaskEntry) refers to los_task.o(i.LOS_TaskUnlock) for LOS_TaskUnlock
    los_task.o(i.osTaskEntry) refers to los_hw.o(i.LOS_Schedule) for LOS_Schedule
    los_task.o(i.osTaskEntry) refers to los_task.o(.data) for g_pstTaskCBArray
    los_task.o(i.osTaskInit) refers to los_memory.o(i.LOS_MemAlloc) for LOS_MemAlloc
    los_task.o(i.osTaskInit) refers to memseta.o(.text) for __aeabi_memclr4
    los_task.o(i.osTaskInit) refers to los_task.o(i.LOS_ListInit) for LOS_ListInit
    los_task.o(i.osTaskInit) refers to los_task.o(i.LOS_ListTailInsert) for LOS_ListTailInsert
    los_task.o(i.osTaskInit) refers to los_priqueue.o(i.osPriqueueInit) for osPriqueueInit
    los_task.o(i.osTaskInit) refers to los_task.o(.data) for g_uwTskMaxNum
    los_task.o(i.osTaskInit) refers to los_config.o(.data) for m_aucSysMem0
    los_task.o(i.osTaskPriModify) refers to los_priqueue.o(i.LOS_PriqueueDequeue) for LOS_PriqueueDequeue
    los_task.o(i.osTaskPriModify) refers to los_priqueue.o(i.LOS_PriqueueEnqueue) for LOS_PriqueueEnqueue
    los_task.o(i.osTaskScan) refers to los_task.o(i.LOS_ListDelete) for LOS_ListDelete
    los_task.o(i.osTaskScan) refers to los_priqueue.o(i.LOS_PriqueueEnqueue) for LOS_PriqueueEnqueue
    los_task.o(i.osTaskScan) refers to los_hw.o(i.LOS_Schedule) for LOS_Schedule
    los_task.o(i.osTaskScan) refers to los_task.o(.data) for g_stTskSortLink
    los_task.o(i.osTaskSelfDelete) refers to los_priqueue.o(i.LOS_PriqueueDequeue) for LOS_PriqueueDequeue
    los_task.o(i.osTaskSelfDelete) refers to los_task.o(i.LOS_ListDelete) for LOS_ListDelete
    los_task.o(i.osTaskSelfDelete) refers to los_task.o(i.osTimerListDelete) for osTimerListDelete
    los_task.o(i.osTaskSelfDelete) refers to los_priqueue.o(i.LOS_PriqueueTop) for LOS_PriqueueTop
    los_task.o(i.osTaskSelfDelete) refers to los_task.o(i.LOS_ListTailInsert) for LOS_ListTailInsert
    los_task.o(i.osTaskSelfDelete) refers to los_dispatch.o(KERNEL) for LOS_IntRestore
    los_task.o(i.osTaskSelfDelete) refers to los_hw.o(i.osSchedule) for osSchedule
    los_task.o(i.osTaskSelfDelete) refers to los_task.o(.data) for g_pstTaskCBArray
    los_task.o(i.osTimerListDelete) refers to los_task.o(i.LOS_ListDelete) for LOS_ListDelete
    los_task.o(i.osTimerListDelete) refers to los_task.o(.data) for g_stTskSortLink
    los_tick.o(i.SysTick_Handler) refers to los_timeslice.o(i.osTimesliceCheck) for osTimesliceCheck
    los_tick.o(i.SysTick_Handler) refers to los_task.o(i.osTaskScan) for osTaskScan
    los_tick.o(i.SysTick_Handler) refers to los_swtmr.o(i.osSwtmrScan) for osSwtmrScan
    los_tick.o(i.SysTick_Handler) refers to los_tick.o(.data) for g_ullTickCount
    los_timeslice.o(i.osTimesliceCheck) refers to los_task.o(i.LOS_TaskYield) for LOS_TaskYield
    los_timeslice.o(i.osTimesliceCheck) refers to los_timeslice.o(.data) for g_stTaskTimeSlice
    los_timeslice.o(i.osTimesliceCheck) refers to los_task.o(.data) for g_stLosTask
    los_timeslice.o(i.osTimesliceCheck) refers to los_tick.o(.data) for g_ullTickCount
    los_timeslice.o(i.osTimesliceInit) refers to los_timeslice.o(.data) for g_stTaskTimeSlice
    los_event.o(i.LOS_EventClear) refers to los_dispatch.o(KERNEL) for LOS_IntLock
    los_event.o(i.LOS_EventPoll) refers to los_dispatch.o(KERNEL) for LOS_IntLock
    los_event.o(i.LOS_EventRead) refers to los_dispatch.o(KERNEL) for LOS_IntLock
    los_event.o(i.LOS_EventRead) refers to los_event.o(i.LOS_EventPoll) for LOS_EventPoll
    los_event.o(i.LOS_EventRead) refers to los_priqueue.o(i.LOS_PriqueueDequeue) for LOS_PriqueueDequeue
    los_event.o(i.LOS_EventRead) refers to los_task.o(i.osTaskAdd2TimerList) for osTaskAdd2TimerList
    los_event.o(i.LOS_EventRead) refers to los_hw.o(i.LOS_Schedule) for LOS_Schedule
    los_event.o(i.LOS_EventRead) refers to los_hwi.o(.data) for g_vuwIntCount
    los_event.o(i.LOS_EventRead) refers to los_task.o(.data) for g_usLosTaskLock
    los_event.o(i.LOS_EventWrite) refers to los_dispatch.o(KERNEL) for LOS_IntLock
    los_event.o(i.LOS_EventWrite) refers to los_task.o(i.osTimerListDelete) for osTimerListDelete
    los_event.o(i.LOS_EventWrite) refers to los_priqueue.o(i.LOS_PriqueueEnqueue) for LOS_PriqueueEnqueue
    los_event.o(i.LOS_EventWrite) refers to los_hw.o(i.LOS_Schedule) for LOS_Schedule
    los_mux.o(i.LOS_ListTailInsert) refers to los_mux.o(i.LOS_ListAdd) for LOS_ListAdd
    los_mux.o(i.LOS_MuxCreate) refers to los_dispatch.o(KERNEL) for LOS_IntLock
    los_mux.o(i.LOS_MuxCreate) refers to los_mux.o(i.LOS_ListEmpty) for LOS_ListEmpty
    los_mux.o(i.LOS_MuxCreate) refers to los_mux.o(i.LOS_ListDelete) for LOS_ListDelete
    los_mux.o(i.LOS_MuxCreate) refers to los_mux.o(i.LOS_ListInit) for LOS_ListInit
    los_mux.o(i.LOS_MuxCreate) refers to los_mux.o(.data) for g_stUnusedMuxList
    los_mux.o(i.LOS_MuxDelete) refers to los_dispatch.o(KERNEL) for LOS_IntLock
    los_mux.o(i.LOS_MuxDelete) refers to los_mux.o(i.LOS_ListEmpty) for LOS_ListEmpty
    los_mux.o(i.LOS_MuxDelete) refers to los_mux.o(i.LOS_ListAdd) for LOS_ListAdd
    los_mux.o(i.LOS_MuxDelete) refers to los_mux.o(.data) for g_pstAllMux
    los_mux.o(i.LOS_MuxPend) refers to los_dispatch.o(KERNEL) for LOS_IntLock
    los_mux.o(i.LOS_MuxPend) refers to los_priqueue.o(i.LOS_PriqueueDequeue) for LOS_PriqueueDequeue
    los_mux.o(i.LOS_MuxPend) refers to los_task.o(i.osTaskPriModify) for osTaskPriModify
    los_mux.o(i.LOS_MuxPend) refers to los_mux.o(i.LOS_ListTailInsert) for LOS_ListTailInsert
    los_mux.o(i.LOS_MuxPend) refers to los_task.o(i.osTaskAdd2TimerList) for osTaskAdd2TimerList
    los_mux.o(i.LOS_MuxPend) refers to los_hw.o(i.LOS_Schedule) for LOS_Schedule
    los_mux.o(i.LOS_MuxPend) refers to los_mux.o(.data) for g_pstAllMux
    los_mux.o(i.LOS_MuxPend) refers to los_hwi.o(.data) for g_vuwIntCount
    los_mux.o(i.LOS_MuxPend) refers to los_task.o(.data) for g_stLosTask
    los_mux.o(i.LOS_MuxPost) refers to los_dispatch.o(KERNEL) for LOS_IntLock
    los_mux.o(i.LOS_MuxPost) refers to los_task.o(i.osTaskPriModify) for osTaskPriModify
    los_mux.o(i.LOS_MuxPost) refers to los_mux.o(i.LOS_ListEmpty) for LOS_ListEmpty
    los_mux.o(i.LOS_MuxPost) refers to los_mux.o(i.LOS_ListDelete) for LOS_ListDelete
    los_mux.o(i.LOS_MuxPost) refers to los_task.o(i.osTimerListDelete) for osTimerListDelete
    los_mux.o(i.LOS_MuxPost) refers to los_priqueue.o(i.LOS_PriqueueEnqueue) for LOS_PriqueueEnqueue
    los_mux.o(i.LOS_MuxPost) refers to los_hw.o(i.LOS_Schedule) for LOS_Schedule
    los_mux.o(i.LOS_MuxPost) refers to los_mux.o(.data) for g_pstAllMux
    los_mux.o(i.LOS_MuxPost) refers to los_hwi.o(.data) for g_vuwIntCount
    los_mux.o(i.LOS_MuxPost) refers to los_task.o(.data) for g_stLosTask
    los_mux.o(i.osMuxInit) refers to los_mux.o(i.LOS_ListInit) for LOS_ListInit
    los_mux.o(i.osMuxInit) refers to los_memory.o(i.LOS_MemAlloc) for LOS_MemAlloc
    los_mux.o(i.osMuxInit) refers to los_mux.o(i.LOS_ListTailInsert) for LOS_ListTailInsert
    los_mux.o(i.osMuxInit) refers to los_mux.o(.data) for g_stUnusedMuxList
    los_mux.o(i.osMuxInit) refers to los_config.o(.data) for m_aucSysMem0
    los_queue.o(i.LOS_QueueCreate) refers to los_dispatch.o(KERNEL) for LOS_IntLock
    los_queue.o(i.LOS_QueueCreate) refers to los_queue.o(i.osQueueCreate) for osQueueCreate
    los_queue.o(i.LOS_QueueCreate) refers to los_queue.o(i.LOS_ListInit) for LOS_ListInit
    los_queue.o(i.LOS_QueueDelete) refers to los_dispatch.o(KERNEL) for LOS_IntLock
    los_queue.o(i.LOS_QueueDelete) refers to los_queue.o(i.LOS_ListEmpty) for LOS_ListEmpty
    los_queue.o(i.LOS_QueueDelete) refers to los_memory.o(i.LOS_MemFree) for LOS_MemFree
    los_queue.o(i.LOS_QueueDelete) refers to los_queue.o(.data) for g_pstAllQueue
    los_queue.o(i.LOS_QueueDelete) refers to los_config.o(.data) for m_aucSysMem0
    los_queue.o(i.LOS_QueueRead) refers to los_dispatch.o(KERNEL) for LOS_IntLock
    los_queue.o(i.LOS_QueueRead) refers to los_queue.o(i.osQueuePend) for osQueuePend
    los_queue.o(i.LOS_QueueRead) refers to los_hw.o(i.LOS_Schedule) for LOS_Schedule
    los_queue.o(i.LOS_QueueRead) refers to los_queue.o(i.LOS_ListEmpty) for LOS_ListEmpty
    los_queue.o(i.LOS_QueueRead) refers to los_queue.o(i.osQueueWakeUp) for osQueueWakeUp
    los_queue.o(i.LOS_QueueRead) refers to los_hwi.o(.data) for g_vuwIntCount
    los_queue.o(i.LOS_QueueRead) refers to los_queue.o(.data) for g_pstAllQueue
    los_queue.o(i.LOS_QueueRead) refers to los_task.o(.data) for g_usLosTaskLock
    los_queue.o(i.LOS_QueueWrite) refers to los_dispatch.o(KERNEL) for LOS_IntLock
    los_queue.o(i.LOS_QueueWrite) refers to los_queue.o(i.osQueuePend) for osQueuePend
    los_queue.o(i.LOS_QueueWrite) refers to los_hw.o(i.LOS_Schedule) for LOS_Schedule
    los_queue.o(i.LOS_QueueWrite) refers to los_queue.o(i.LOS_ListEmpty) for LOS_ListEmpty
    los_queue.o(i.LOS_QueueWrite) refers to los_queue.o(i.osQueueWakeUp) for osQueueWakeUp
    los_queue.o(i.LOS_QueueWrite) refers to los_hwi.o(.data) for g_vuwIntCount
    los_queue.o(i.LOS_QueueWrite) refers to los_queue.o(.data) for g_pstAllQueue
    los_queue.o(i.LOS_QueueWrite) refers to los_task.o(.data) for g_usLosTaskLock
    los_queue.o(i.osQueueCreate) refers to memseta.o(.text) for __aeabi_memclr4
    los_queue.o(i.osQueueCreate) refers to los_memory.o(i.LOS_MemAlloc) for LOS_MemAlloc
    los_queue.o(i.osQueueCreate) refers to los_queue.o(.data) for g_pstAllQueue
    los_queue.o(i.osQueueCreate) refers to los_config.o(.data) for m_aucSysMem0
    los_queue.o(i.osQueueInit) refers to los_memory.o(i.LOS_MemAlloc) for LOS_MemAlloc
    los_queue.o(i.osQueueInit) refers to memseta.o(.text) for __aeabi_memclr4
    los_queue.o(i.osQueueInit) refers to los_config.o(.data) for m_aucSysMem0
    los_queue.o(i.osQueueInit) refers to los_queue.o(.data) for g_pstAllQueue
    los_queue.o(i.osQueueMailAlloc) refers to los_dispatch.o(KERNEL) for LOS_IntLock
    los_queue.o(i.osQueueMailAlloc) refers to los_membox.o(i.LOS_MemboxAlloc) for LOS_MemboxAlloc
    los_queue.o(i.osQueueMailAlloc) refers to los_queue.o(i.osQueuePend) for osQueuePend
    los_queue.o(i.osQueueMailAlloc) refers to los_hw.o(i.LOS_Schedule) for LOS_Schedule
    los_queue.o(i.osQueueMailAlloc) refers to los_hwi.o(.data) for g_vuwIntCount
    los_queue.o(i.osQueueMailAlloc) refers to los_queue.o(.data) for g_pstAllQueue
    los_queue.o(i.osQueueMailAlloc) refers to los_task.o(.data) for g_stLosTask
    los_queue.o(i.osQueueMailFree) refers to los_dispatch.o(KERNEL) for LOS_IntLock
    los_queue.o(i.osQueueMailFree) refers to los_membox.o(i.LOS_MemboxFree) for LOS_MemboxFree
    los_queue.o(i.osQueueMailFree) refers to los_queue.o(i.LOS_ListEmpty) for LOS_ListEmpty
    los_queue.o(i.osQueueMailFree) refers to los_queue.o(i.osQueueWakeUp) for osQueueWakeUp
    los_queue.o(i.osQueueMailFree) refers to los_membox.o(i.LOS_MemboxAlloc) for LOS_MemboxAlloc
    los_queue.o(i.osQueueMailFree) refers to los_hw.o(i.LOS_Schedule) for LOS_Schedule
    los_queue.o(i.osQueueMailFree) refers to los_queue.o(.data) for g_pstAllQueue
    los_queue.o(i.osQueuePend) refers to los_priqueue.o(i.LOS_PriqueueDequeue) for LOS_PriqueueDequeue
    los_queue.o(i.osQueuePend) refers to los_queue.o(i.LOS_ListEmpty) for LOS_ListEmpty
    los_queue.o(i.osQueuePend) refers to los_queue.o(i.LOS_ListAdd) for LOS_ListAdd
    los_queue.o(i.osQueuePend) refers to los_task.o(i.osTaskAdd2TimerList) for osTaskAdd2TimerList
    los_queue.o(i.osQueueWakeUp) refers to los_task.o(i.osTimerListDelete) for osTimerListDelete
    los_queue.o(i.osQueueWakeUp) refers to los_priqueue.o(i.LOS_PriqueueEnqueue) for LOS_PriqueueEnqueue
    los_sem.o(i.LOS_ListTailInsert) refers to los_sem.o(i.LOS_ListAdd) for LOS_ListAdd
    los_sem.o(i.LOS_SemCreate) refers to los_dispatch.o(KERNEL) for LOS_IntLock
    los_sem.o(i.LOS_SemCreate) refers to los_sem.o(i.LOS_ListEmpty) for LOS_ListEmpty
    los_sem.o(i.LOS_SemCreate) refers to los_sem.o(i.LOS_ListDelete) for LOS_ListDelete
    los_sem.o(i.LOS_SemCreate) refers to los_sem.o(i.LOS_ListInit) for LOS_ListInit
    los_sem.o(i.LOS_SemCreate) refers to los_sem.o(.data) for g_stUnusedSemList
    los_sem.o(i.LOS_SemDelete) refers to los_dispatch.o(KERNEL) for LOS_IntLock
    los_sem.o(i.LOS_SemDelete) refers to los_sem.o(i.LOS_ListEmpty) for LOS_ListEmpty
    los_sem.o(i.LOS_SemDelete) refers to los_sem.o(i.LOS_ListAdd) for LOS_ListAdd
    los_sem.o(i.LOS_SemDelete) refers to los_sem.o(.data) for g_pstAllSem
    los_sem.o(i.LOS_SemPend) refers to los_dispatch.o(KERNEL) for LOS_IntLock
    los_sem.o(i.LOS_SemPend) refers to los_priqueue.o(i.LOS_PriqueueDequeue) for LOS_PriqueueDequeue
    los_sem.o(i.LOS_SemPend) refers to los_sem.o(i.LOS_ListTailInsert) for LOS_ListTailInsert
    los_sem.o(i.LOS_SemPend) refers to los_task.o(i.osTaskAdd2TimerList) for osTaskAdd2TimerList
    los_sem.o(i.LOS_SemPend) refers to los_hw.o(i.LOS_Schedule) for LOS_Schedule
    los_sem.o(i.LOS_SemPend) refers to los_sem.o(.data) for g_pstAllSem
    los_sem.o(i.LOS_SemPend) refers to los_hwi.o(.data) for g_vuwIntCount
    los_sem.o(i.LOS_SemPend) refers to los_task.o(.data) for g_usLosTaskLock
    los_sem.o(i.LOS_SemPost) refers to los_dispatch.o(KERNEL) for LOS_IntLock
    los_sem.o(i.LOS_SemPost) refers to los_sem.o(i.LOS_ListEmpty) for LOS_ListEmpty
    los_sem.o(i.LOS_SemPost) refers to los_sem.o(i.LOS_ListDelete) for LOS_ListDelete
    los_sem.o(i.LOS_SemPost) refers to los_task.o(i.osTimerListDelete) for osTimerListDelete
    los_sem.o(i.LOS_SemPost) refers to los_priqueue.o(i.LOS_PriqueueEnqueue) for LOS_PriqueueEnqueue
    los_sem.o(i.LOS_SemPost) refers to los_hw.o(i.LOS_Schedule) for LOS_Schedule
    los_sem.o(i.LOS_SemPost) refers to los_sem.o(.data) for g_pstAllSem
    los_sem.o(i.osSemInit) refers to los_sem.o(i.LOS_ListInit) for LOS_ListInit
    los_sem.o(i.osSemInit) refers to los_memory.o(i.LOS_MemAlloc) for LOS_MemAlloc
    los_sem.o(i.osSemInit) refers to los_sem.o(i.LOS_ListTailInsert) for LOS_ListTailInsert
    los_sem.o(i.osSemInit) refers to los_sem.o(.data) for g_stUnusedSemList
    los_sem.o(i.osSemInit) refers to los_config.o(.data) for m_aucSysMem0
    los_membox.o(i.LOS_MemboxAlloc) refers to los_dispatch.o(KERNEL) for LOS_IntLock
    los_membox.o(i.LOS_MemboxClr) refers to memseta.o(.text) for __aeabi_memclr
    los_membox.o(i.LOS_MemboxFree) refers to los_dispatch.o(KERNEL) for LOS_IntLock
    los_membox.o(i.LOS_MemboxInit) refers to los_dispatch.o(KERNEL) for LOS_IntLock
    los_memory.o(i.LOS_MemAlloc) refers to los_dispatch.o(KERNEL) for LOS_IntLock
    los_memory.o(i.LOS_MemAlloc) refers to los_memory.o(i.osMemAllocWithCheck) for osMemAllocWithCheck
    los_memory.o(i.LOS_MemAllocAlign) refers to los_dispatch.o(KERNEL) for LOS_IntLock
    los_memory.o(i.LOS_MemAllocAlign) refers to los_memory.o(i.osMemAllocWithCheck) for osMemAllocWithCheck
    los_memory.o(i.LOS_MemFree) refers to los_dispatch.o(KERNEL) for LOS_IntLock
    los_memory.o(i.LOS_MemFree) refers to los_memory.o(i.osMemCheckUsedNode) for osMemCheckUsedNode
    los_memory.o(i.LOS_MemFree) refers to los_memory.o(i.osMemFreeNode) for osMemFreeNode
    los_memory.o(i.LOS_MemInit) refers to los_dispatch.o(KERNEL) for LOS_IntLock
    los_memory.o(i.LOS_MemInit) refers to los_multipledlinkhead.o(i.LOS_DLnkInitMultiHead) for LOS_DLnkInitMultiHead
    los_memory.o(i.LOS_MemInit) refers to los_multipledlinkhead.o(i.LOS_DLnkMultiHead) for LOS_DLnkMultiHead
    los_memory.o(i.LOS_MemInit) refers to los_memory.o(i.LOS_ListAdd) for LOS_ListAdd
    los_memory.o(i.LOS_MemInit) refers to los_memory.o(i.osMemSetMagicNumAndTaskid) for osMemSetMagicNumAndTaskid
    los_memory.o(i.LOS_MemRealloc) refers to los_dispatch.o(KERNEL) for LOS_IntLock
    los_memory.o(i.LOS_MemRealloc) refers to los_memory.o(i.LOS_MemAlloc) for LOS_MemAlloc
    los_memory.o(i.LOS_MemRealloc) refers to los_memory.o(i.LOS_MemFree) for LOS_MemFree
    los_memory.o(i.LOS_MemRealloc) refers to los_memory.o(i.osMemCheckUsedNode) for osMemCheckUsedNode
    los_memory.o(i.LOS_MemRealloc) refers to los_memory.o(i.osMemSpitNode) for osMemSpitNode
    los_memory.o(i.LOS_MemRealloc) refers to los_memstat.o(i.osTaskMemUsedDec) for osTaskMemUsedDec
    los_memory.o(i.LOS_MemRealloc) refers to los_memory.o(i.LOS_ListDelete) for LOS_ListDelete
    los_memory.o(i.LOS_MemRealloc) refers to los_memory.o(i.osMemMergeNode) for osMemMergeNode
    los_memory.o(i.LOS_MemRealloc) refers to los_memstat.o(i.osTaskMemUsedInc) for osTaskMemUsedInc
    los_memory.o(i.LOS_MemRealloc) refers to los_memory.o(i.osMemAllocWithCheck) for osMemAllocWithCheck
    los_memory.o(i.LOS_MemRealloc) refers to memcpya.o(.text) for __aeabi_memcpy
    los_memory.o(i.LOS_MemRealloc) refers to los_memory.o(i.osMemFreeNode) for osMemFreeNode
    los_memory.o(i.osMemAllocWithCheck) refers to los_memory.o(i.osMemFindSuitableFreeBlock) for osMemFindSuitableFreeBlock
    los_memory.o(i.osMemAllocWithCheck) refers to los_memory.o(i.osMemSpitNode) for osMemSpitNode
    los_memory.o(i.osMemAllocWithCheck) refers to los_memory.o(i.LOS_ListDelete) for LOS_ListDelete
    los_memory.o(i.osMemAllocWithCheck) refers to los_memory.o(i.osMemSetMagicNumAndTaskid) for osMemSetMagicNumAndTaskid
    los_memory.o(i.osMemAllocWithCheck) refers to los_memstat.o(i.osTaskMemUsedInc) for osTaskMemUsedInc
    los_memory.o(i.osMemCheckUsedNode) refers to los_memory.o(i.osMemIsNodeValid) for osMemIsNodeValid
    los_memory.o(i.osMemFindSuitableFreeBlock) refers to los_multipledlinkhead.o(i.LOS_DLnkMultiHead) for LOS_DLnkMultiHead
    los_memory.o(i.osMemFreeNode) refers to los_memstat.o(i.osTaskMemUsedDec) for osTaskMemUsedDec
    los_memory.o(i.osMemFreeNode) refers to los_memory.o(i.osMemMergeNode) for osMemMergeNode
    los_memory.o(i.osMemFreeNode) refers to los_memory.o(i.LOS_ListDelete) for LOS_ListDelete
    los_memory.o(i.osMemFreeNode) refers to los_multipledlinkhead.o(i.LOS_DLnkMultiHead) for LOS_DLnkMultiHead
    los_memory.o(i.osMemFreeNode) refers to los_memory.o(i.LOS_ListAdd) for LOS_ListAdd
    los_memory.o(i.osMemSetMagicNumAndTaskid) refers to los_task.o(.data) for g_stLosTask
    los_memory.o(i.osMemSpitNode) refers to los_memory.o(i.LOS_ListDelete) for LOS_ListDelete
    los_memory.o(i.osMemSpitNode) refers to los_memory.o(i.osMemMergeNode) for osMemMergeNode
    los_memory.o(i.osMemSpitNode) refers to los_multipledlinkhead.o(i.LOS_DLnkMultiHead) for LOS_DLnkMultiHead
    los_memory.o(i.osMemSpitNode) refers to los_memory.o(i.LOS_ListAdd) for LOS_ListAdd
    los_memory.o(i.osMemSystemInit) refers to los_memory.o(i.LOS_MemInit) for LOS_MemInit
    los_memory.o(i.osMemSystemInit) refers to los_memory.o(.bss) for g_ucMemStart
    los_memory.o(i.osMemSystemInit) refers to los_config.o(.data) for m_aucSysMem0
    los_memstat.o(i.osTaskMemUsage) refers to los_memstat.o(.bss) for g_TskMemUsedInfo
    los_memstat.o(i.osTaskMemUsedDec) refers to los_task.o(.data) for g_stLosTask
    los_memstat.o(i.osTaskMemUsedDec) refers to los_hwi.o(.data) for g_vuwIntCount
    los_memstat.o(i.osTaskMemUsedDec) refers to los_memstat.o(.bss) for g_TskMemUsedInfo
    los_memstat.o(i.osTaskMemUsedInc) refers to los_task.o(.data) for g_stLosTask
    los_memstat.o(i.osTaskMemUsedInc) refers to los_hwi.o(.data) for g_vuwIntCount
    los_memstat.o(i.osTaskMemUsedInc) refers to los_memstat.o(.bss) for g_TskMemUsedInfo
    los_multipledlinkhead.o(i.LOS_DLnkMultiHead) refers to los_multipledlinkhead.o(i.LOS_Log2) for LOS_Log2
    los_misc.o(i.LOS_Msleep) refers to los_sys.o(i.LOS_MS2Tick) for LOS_MS2Tick
    los_misc.o(i.LOS_Msleep) refers to los_task.o(i.LOS_TaskDelay) for LOS_TaskDelay
    los_misc.o(i.LOS_Msleep) refers to los_hwi.o(.data) for g_vuwIntCount
    los_config.o(i.LOS_Start) refers to los_hw_tick.o(i.osTickStart) for osTickStart
    los_config.o(i.LOS_Start) refers to los_dispatch.o(.text) for LOS_StartToRun
    los_config.o(i.main) refers to los_config.o(i.osMain) for osMain
    los_config.o(i.main) refers to test.o(i.osAppInit) for osAppInit
    los_config.o(i.main) refers to los_config.o(i.LOS_Start) for LOS_Start
    los_config.o(i.osMain) refers to los_config.o(i.osRegister) for osRegister
    los_config.o(i.osMain) refers to los_memory.o(i.osMemSystemInit) for osMemSystemInit
    los_config.o(i.osMain) refers to los_hwi.o(i.osHwiInit) for osHwiInit
    los_config.o(i.osMain) refers to los_task.o(i.osTaskInit) for osTaskInit
    los_config.o(i.osMain) refers to los_sem.o(i.osSemInit) for osSemInit
    los_config.o(i.osMain) refers to los_mux.o(i.osMuxInit) for osMuxInit
    los_config.o(i.osMain) refers to los_queue.o(i.osQueueInit) for osQueueInit
    los_config.o(i.osMain) refers to los_swtmr.o(i.osSwTmrInit) for osSwTmrInit
    los_config.o(i.osMain) refers to los_timeslice.o(i.osTimesliceInit) for osTimesliceInit
    los_config.o(i.osMain) refers to los_task.o(i.osIdleTaskCreate) for osIdleTaskCreate
    los_config.o(i.osRegister) refers to los_task.o(.data) for g_uwTskMaxNum
    los_config.o(i.osRegister) refers to los_memory.o(.bss) for g_ucMemStart
    los_config.o(i.osRegister) refers to los_config.o(.data) for g_sys_mem_addr_end
    los_hw.o(i.LOS_Schedule) refers to los_dispatch.o(KERNEL) for LOS_IntLock
    los_hw.o(i.LOS_Schedule) refers to los_priqueue.o(i.LOS_PriqueueTop) for LOS_PriqueueTop
    los_hw.o(i.LOS_Schedule) refers to los_task.o(.data) for g_stLosTask
    los_hw.o(i.osSchedule) refers to los_dispatch.o(KERNEL) for osTaskSchedule
    los_hw.o(i.osTskStackInit) refers to los_hw.o(i.osTaskExit) for osTaskExit
    los_hw.o(i.osTskStackInit) refers to los_task.o(i.osTaskEntry) for osTaskEntry
    los_hw_tick.o(i.LOS_GetCpuCycle) refers to los_dispatch.o(KERNEL) for LOS_IntLock
    los_hw_tick.o(i.LOS_GetCpuCycle) refers to los_tick.o(.data) for g_ullTickCount
    los_hw_tick.o(i.LOS_GetCpuCycle) refers to los_hw_tick.o(.data) for g_uwCyclesPerTick
    los_hw_tick.o(i.osTickStart) refers to los_hwi.o(i.osInterrupt) for osInterrupt
    los_hw_tick.o(i.osTickStart) refers to los_hwi.o(.vector.bss) for m_pstHwiForm
    los_hw_tick.o(i.osTickStart) refers to los_tick.o(i.SysTick_Handler) for SysTick_Handler
    los_hw_tick.o(i.osTickStart) refers to los_hwi.o(.bss) for m_pstHwiSlaveForm
    los_hw_tick.o(i.osTickStart) refers to los_hw_tick.o(.data) for g_uwCyclesPerTick
    los_hw_tick.o(i.osTickStart) refers to los_tick.o(.data) for g_ullTickCount
    los_hwi.o(i.LOS_HwiCreate) refers to los_dispatch.o(KERNEL) for LOS_IntLock
    los_hwi.o(i.LOS_HwiCreate) refers to los_hwi.o(.vector.bss) for m_pstHwiForm
    los_hwi.o(i.LOS_HwiCreate) refers to los_hwi.o(i.osHwiDefaultHandler) for osHwiDefaultHandler
    los_hwi.o(i.LOS_HwiCreate) refers to los_hwi.o(i.osInterrupt) for osInterrupt
    los_hwi.o(i.LOS_HwiCreate) refers to los_hwi.o(.bss) for m_pstHwiSlaveForm
    los_hwi.o(i.LOS_HwiDelete) refers to los_dispatch.o(KERNEL) for LOS_IntLock
    los_hwi.o(i.LOS_HwiDelete) refers to los_hwi.o(i.osHwiDefaultHandler) for osHwiDefaultHandler
    los_hwi.o(i.LOS_HwiDelete) refers to los_hwi.o(.vector.bss) for m_pstHwiForm
    los_hwi.o(i.osHwiDefaultHandler) refers to los_hwi.o(.emb_text) for osIntNumGet
    los_hwi.o(i.osHwiInit) refers to los_hwi.o(i.osHwiDefaultHandler) for osHwiDefaultHandler
    los_hwi.o(i.osHwiInit) refers to los_hwi.o(.vector.bss) for m_pstHwiForm
    los_hwi.o(i.osInterrupt) refers to los_dispatch.o(KERNEL) for LOS_IntLock
    los_hwi.o(i.osInterrupt) refers to los_hwi.o(.emb_text) for osIntNumGet
    los_hwi.o(i.osInterrupt) refers to los_hwi.o(.data) for g_vuwIntCount
    los_hwi.o(i.osInterrupt) refers to los_hwi.o(.bss) for m_pstHwiSlaveForm
    los_hwi.o(.vector.bss) refers to startup_stm32f40_41xxx.o(.text) for Reset_Handler
    los_hwi.o(.vector.bss) refers to los_hwi.o(i.osHwiDefaultHandler) for osHwiDefaultHandler
    los_hwi.o(.vector.bss) refers to los_dispatch.o(KERNEL) for PendSV_Handler
    los_dispatch.o(.text) refers to los_task.o(.data) for g_bTaskScheduled
    los_dispatch.o(KERNEL) refers to los_task.o(.data) for g_pfnTskSwitchHook
    entry.o(.ARM.Collect$$$$00000000) refers (Special) to entry10a.o(.ARM.Collect$$$$0000000D) for __rt_final_cpp
    entry.o(.ARM.Collect$$$$00000000) refers (Special) to entry11a.o(.ARM.Collect$$$$0000000F) for __rt_final_exit
    entry.o(.ARM.Collect$$$$00000000) refers (Special) to entry7b.o(.ARM.Collect$$$$00000008) for _main_clock
    entry.o(.ARM.Collect$$$$00000000) refers (Special) to entry8b.o(.ARM.Collect$$$$0000000A) for _main_cpp_init
    entry.o(.ARM.Collect$$$$00000000) refers (Special) to entry9a.o(.ARM.Collect$$$$0000000B) for _main_init
    entry.o(.ARM.Collect$$$$00000000) refers (Special) to entry5.o(.ARM.Collect$$$$00000004) for _main_scatterload
    entry.o(.ARM.Collect$$$$00000000) refers (Special) to entry3.o(.ARM.Collect$$$$00000002) for _main_stk
    uldiv.o(.text) refers to llushr.o(.text) for __aeabi_llsr
    uldiv.o(.text) refers to llshl.o(.text) for __aeabi_llsl
    printfb.o(i.__0fprintf$bare) refers to printfb.o(i._printf_core) for _printf_core
    printfb.o(i.__0fprintf$bare) refers to usart.o(i.fputc) for fputc
    printfb.o(i.__0printf$bare) refers to printfb.o(i._printf_core) for _printf_core
    printfb.o(i.__0printf$bare) refers to usart.o(i.fputc) for fputc
    printfb.o(i.__0printf$bare) refers to usart.o(.data) for __stdout
    printfb.o(i.__0snprintf$bare) refers to printfb.o(i._printf_core) for _printf_core
    printfb.o(i.__0snprintf$bare) refers to printfb.o(i._snputc) for _snputc
    printfb.o(i.__0sprintf$bare) refers to printfb.o(i._printf_core) for _printf_core
    printfb.o(i.__0sprintf$bare) refers to printfb.o(i._sputc) for _sputc
    printfb.o(i.__0vfprintf$bare) refers to printfb.o(i._printf_core) for _printf_core
    printfb.o(i.__0vfprintf$bare) refers to usart.o(i.fputc) for fputc
    printfb.o(i.__0vprintf$bare) refers to printfb.o(i._printf_core) for _printf_core
    printfb.o(i.__0vprintf$bare) refers to usart.o(i.fputc) for fputc
    printfb.o(i.__0vprintf$bare) refers to usart.o(.data) for __stdout
    printfb.o(i.__0vsnprintf$bare) refers to printfb.o(i._printf_core) for _printf_core
    printfb.o(i.__0vsnprintf$bare) refers to printfb.o(i._snputc) for _snputc
    printfb.o(i.__0vsprintf$bare) refers to printfb.o(i._printf_core) for _printf_core
    printfb.o(i.__0vsprintf$bare) refers to printfb.o(i._sputc) for _sputc
    printf0.o(i.__0fprintf$0) refers to printf0.o(i._printf_core) for _printf_core
    printf0.o(i.__0fprintf$0) refers to usart.o(i.fputc) for fputc
    printf0.o(i.__0printf$0) refers to printf0.o(i._printf_core) for _printf_core
    printf0.o(i.__0printf$0) refers to usart.o(i.fputc) for fputc
    printf0.o(i.__0printf$0) refers to usart.o(.data) for __stdout
    printf0.o(i.__0snprintf$0) refers to printf0.o(i._printf_core) for _printf_core
    printf0.o(i.__0snprintf$0) refers to printf0.o(i._snputc) for _snputc
    printf0.o(i.__0sprintf$0) refers to printf0.o(i._printf_core) for _printf_core
    printf0.o(i.__0sprintf$0) refers to printf0.o(i._sputc) for _sputc
    printf0.o(i.__0vfprintf$0) refers to printf0.o(i._printf_core) for _printf_core
    printf0.o(i.__0vfprintf$0) refers to usart.o(i.fputc) for fputc
    printf0.o(i.__0vprintf$0) refers to printf0.o(i._printf_core) for _printf_core
    printf0.o(i.__0vprintf$0) refers to usart.o(i.fputc) for fputc
    printf0.o(i.__0vprintf$0) refers to usart.o(.data) for __stdout
    printf0.o(i.__0vsnprintf$0) refers to printf0.o(i._printf_core) for _printf_core
    printf0.o(i.__0vsnprintf$0) refers to printf0.o(i._snputc) for _snputc
    printf0.o(i.__0vsprintf$0) refers to printf0.o(i._printf_core) for _printf_core
    printf0.o(i.__0vsprintf$0) refers to printf0.o(i._sputc) for _sputc
    printf1.o(i.__0fprintf$1) refers to printf1.o(i._printf_core) for _printf_core
    printf1.o(i.__0fprintf$1) refers to usart.o(i.fputc) for fputc
    printf1.o(i.__0printf$1) refers to printf1.o(i._printf_core) for _printf_core
    printf1.o(i.__0printf$1) refers to usart.o(i.fputc) for fputc
    printf1.o(i.__0printf$1) refers to usart.o(.data) for __stdout
    printf1.o(i.__0snprintf$1) refers to printf1.o(i._printf_core) for _printf_core
    printf1.o(i.__0snprintf$1) refers to printf1.o(i._snputc) for _snputc
    printf1.o(i.__0sprintf$1) refers to printf1.o(i._printf_core) for _printf_core
    printf1.o(i.__0sprintf$1) refers to printf1.o(i._sputc) for _sputc
    printf1.o(i.__0vfprintf$1) refers to printf1.o(i._printf_core) for _printf_core
    printf1.o(i.__0vfprintf$1) refers to usart.o(i.fputc) for fputc
    printf1.o(i.__0vprintf$1) refers to printf1.o(i._printf_core) for _printf_core
    printf1.o(i.__0vprintf$1) refers to usart.o(i.fputc) for fputc
    printf1.o(i.__0vprintf$1) refers to usart.o(.data) for __stdout
    printf1.o(i.__0vsnprintf$1) refers to printf1.o(i._printf_core) for _printf_core
    printf1.o(i.__0vsnprintf$1) refers to printf1.o(i._snputc) for _snputc
    printf1.o(i.__0vsprintf$1) refers to printf1.o(i._printf_core) for _printf_core
    printf1.o(i.__0vsprintf$1) refers to printf1.o(i._sputc) for _sputc
    printf1.o(i._printf_core) refers to uidiv.o(.text) for __aeabi_uidivmod
    printf2.o(i.__0fprintf$2) refers to printf2.o(i._printf_core) for _printf_core
    printf2.o(i.__0fprintf$2) refers to usart.o(i.fputc) for fputc
    printf2.o(i.__0printf$2) refers to printf2.o(i._printf_core) for _printf_core
    printf2.o(i.__0printf$2) refers to usart.o(i.fputc) for fputc
    printf2.o(i.__0printf$2) refers to usart.o(.data) for __stdout
    printf2.o(i.__0snprintf$2) refers to printf2.o(i._printf_core) for _printf_core
    printf2.o(i.__0snprintf$2) refers to printf2.o(i._snputc) for _snputc
    printf2.o(i.__0sprintf$2) refers to printf2.o(i._printf_core) for _printf_core
    printf2.o(i.__0sprintf$2) refers to printf2.o(i._sputc) for _sputc
    printf2.o(i.__0vfprintf$2) refers to printf2.o(i._printf_core) for _printf_core
    printf2.o(i.__0vfprintf$2) refers to usart.o(i.fputc) for fputc
    printf2.o(i.__0vprintf$2) refers to printf2.o(i._printf_core) for _printf_core
    printf2.o(i.__0vprintf$2) refers to usart.o(i.fputc) for fputc
    printf2.o(i.__0vprintf$2) refers to usart.o(.data) for __stdout
    printf2.o(i.__0vsnprintf$2) refers to printf2.o(i._printf_core) for _printf_core
    printf2.o(i.__0vsnprintf$2) refers to printf2.o(i._snputc) for _snputc
    printf2.o(i.__0vsprintf$2) refers to printf2.o(i._printf_core) for _printf_core
    printf2.o(i.__0vsprintf$2) refers to printf2.o(i._sputc) for _sputc
    printf3.o(i.__0fprintf$3) refers to printf3.o(i._printf_core) for _printf_core
    printf3.o(i.__0fprintf$3) refers to usart.o(i.fputc) for fputc
    printf3.o(i.__0printf$3) refers to printf3.o(i._printf_core) for _printf_core
    printf3.o(i.__0printf$3) refers to usart.o(i.fputc) for fputc
    printf3.o(i.__0printf$3) refers to usart.o(.data) for __stdout
    printf3.o(i.__0snprintf$3) refers to printf3.o(i._printf_core) for _printf_core
    printf3.o(i.__0snprintf$3) refers to printf3.o(i._snputc) for _snputc
    printf3.o(i.__0sprintf$3) refers to printf3.o(i._printf_core) for _printf_core
    printf3.o(i.__0sprintf$3) refers to printf3.o(i._sputc) for _sputc
    printf3.o(i.__0vfprintf$3) refers to printf3.o(i._printf_core) for _printf_core
    printf3.o(i.__0vfprintf$3) refers to usart.o(i.fputc) for fputc
    printf3.o(i.__0vprintf$3) refers to printf3.o(i._printf_core) for _printf_core
    printf3.o(i.__0vprintf$3) refers to usart.o(i.fputc) for fputc
    printf3.o(i.__0vprintf$3) refers to usart.o(.data) for __stdout
    printf3.o(i.__0vsnprintf$3) refers to printf3.o(i._printf_core) for _printf_core
    printf3.o(i.__0vsnprintf$3) refers to printf3.o(i._snputc) for _snputc
    printf3.o(i.__0vsprintf$3) refers to printf3.o(i._printf_core) for _printf_core
    printf3.o(i.__0vsprintf$3) refers to printf3.o(i._sputc) for _sputc
    printf3.o(i._printf_core) refers to uidiv.o(.text) for __aeabi_uidivmod
    printf4.o(i.__0fprintf$4) refers to printf4.o(i._printf_core) for _printf_core
    printf4.o(i.__0fprintf$4) refers to usart.o(i.fputc) for fputc
    printf4.o(i.__0printf$4) refers to printf4.o(i._printf_core) for _printf_core
    printf4.o(i.__0printf$4) refers to usart.o(i.fputc) for fputc
    printf4.o(i.__0printf$4) refers to usart.o(.data) for __stdout
    printf4.o(i.__0snprintf$4) refers to printf4.o(i._printf_core) for _printf_core
    printf4.o(i.__0snprintf$4) refers to printf4.o(i._snputc) for _snputc
    printf4.o(i.__0sprintf$4) refers to printf4.o(i._printf_core) for _printf_core
    printf4.o(i.__0sprintf$4) refers to printf4.o(i._sputc) for _sputc
    printf4.o(i.__0vfprintf$4) refers to printf4.o(i._printf_core) for _printf_core
    printf4.o(i.__0vfprintf$4) refers to usart.o(i.fputc) for fputc
    printf4.o(i.__0vprintf$4) refers to printf4.o(i._printf_core) for _printf_core
    printf4.o(i.__0vprintf$4) refers to usart.o(i.fputc) for fputc
    printf4.o(i.__0vprintf$4) refers to usart.o(.data) for __stdout
    printf4.o(i.__0vsnprintf$4) refers to printf4.o(i._printf_core) for _printf_core
    printf4.o(i.__0vsnprintf$4) refers to printf4.o(i._snputc) for _snputc
    printf4.o(i.__0vsprintf$4) refers to printf4.o(i._printf_core) for _printf_core
    printf4.o(i.__0vsprintf$4) refers to printf4.o(i._sputc) for _sputc
    printf4.o(i._printf_core) refers to uldiv.o(.text) for __aeabi_uldivmod
    printf5.o(i.__0fprintf$5) refers to printf5.o(i._printf_core) for _printf_core
    printf5.o(i.__0fprintf$5) refers to usart.o(i.fputc) for fputc
    printf5.o(i.__0printf$5) refers to printf5.o(i._printf_core) for _printf_core
    printf5.o(i.__0printf$5) refers to usart.o(i.fputc) for fputc
    printf5.o(i.__0printf$5) refers to usart.o(.data) for __stdout
    printf5.o(i.__0snprintf$5) refers to printf5.o(i._printf_core) for _printf_core
    printf5.o(i.__0snprintf$5) refers to printf5.o(i._snputc) for _snputc
    printf5.o(i.__0sprintf$5) refers to printf5.o(i._printf_core) for _printf_core
    printf5.o(i.__0sprintf$5) refers to printf5.o(i._sputc) for _sputc
    printf5.o(i.__0vfprintf$5) refers to printf5.o(i._printf_core) for _printf_core
    printf5.o(i.__0vfprintf$5) refers to usart.o(i.fputc) for fputc
    printf5.o(i.__0vprintf$5) refers to printf5.o(i._printf_core) for _printf_core
    printf5.o(i.__0vprintf$5) refers to usart.o(i.fputc) for fputc
    printf5.o(i.__0vprintf$5) refers to usart.o(.data) for __stdout
    printf5.o(i.__0vsnprintf$5) refers to printf5.o(i._printf_core) for _printf_core
    printf5.o(i.__0vsnprintf$5) refers to printf5.o(i._snputc) for _snputc
    printf5.o(i.__0vsprintf$5) refers to printf5.o(i._printf_core) for _printf_core
    printf5.o(i.__0vsprintf$5) refers to printf5.o(i._sputc) for _sputc
    printf5.o(i._printf_core) refers to uldiv.o(.text) for __aeabi_uldivmod
    printf6.o(i.__0fprintf$6) refers to printf6.o(i._printf_core) for _printf_core
    printf6.o(i.__0fprintf$6) refers to usart.o(i.fputc) for fputc
    printf6.o(i.__0printf$6) refers to printf6.o(i._printf_core) for _printf_core
    printf6.o(i.__0printf$6) refers to usart.o(i.fputc) for fputc
    printf6.o(i.__0printf$6) refers to usart.o(.data) for __stdout
    printf6.o(i.__0snprintf$6) refers to printf6.o(i._printf_core) for _printf_core
    printf6.o(i.__0snprintf$6) refers to printf6.o(i._snputc) for _snputc
    printf6.o(i.__0sprintf$6) refers to printf6.o(i._printf_core) for _printf_core
    printf6.o(i.__0sprintf$6) refers to printf6.o(i._sputc) for _sputc
    printf6.o(i.__0vfprintf$6) refers to printf6.o(i._printf_core) for _printf_core
    printf6.o(i.__0vfprintf$6) refers to usart.o(i.fputc) for fputc
    printf6.o(i.__0vprintf$6) refers to printf6.o(i._printf_core) for _printf_core
    printf6.o(i.__0vprintf$6) refers to usart.o(i.fputc) for fputc
    printf6.o(i.__0vprintf$6) refers to usart.o(.data) for __stdout
    printf6.o(i.__0vsnprintf$6) refers to printf6.o(i._printf_core) for _printf_core
    printf6.o(i.__0vsnprintf$6) refers to printf6.o(i._snputc) for _snputc
    printf6.o(i.__0vsprintf$6) refers to printf6.o(i._printf_core) for _printf_core
    printf6.o(i.__0vsprintf$6) refers to printf6.o(i._sputc) for _sputc
    printf6.o(i._printf_core) refers to printf6.o(i._printf_pre_padding) for _printf_pre_padding
    printf6.o(i._printf_core) refers to uidiv.o(.text) for __aeabi_uidivmod
    printf6.o(i._printf_core) refers to printf6.o(i._printf_post_padding) for _printf_post_padding
    printf7.o(i.__0fprintf$7) refers to printf7.o(i._printf_core) for _printf_core
    printf7.o(i.__0fprintf$7) refers to usart.o(i.fputc) for fputc
    printf7.o(i.__0printf$7) refers to printf7.o(i._printf_core) for _printf_core
    printf7.o(i.__0printf$7) refers to usart.o(i.fputc) for fputc
    printf7.o(i.__0printf$7) refers to usart.o(.data) for __stdout
    printf7.o(i.__0snprintf$7) refers to printf7.o(i._printf_core) for _printf_core
    printf7.o(i.__0snprintf$7) refers to printf7.o(i._snputc) for _snputc
    printf7.o(i.__0sprintf$7) refers to printf7.o(i._printf_core) for _printf_core
    printf7.o(i.__0sprintf$7) refers to printf7.o(i._sputc) for _sputc
    printf7.o(i.__0vfprintf$7) refers to printf7.o(i._printf_core) for _printf_core
    printf7.o(i.__0vfprintf$7) refers to usart.o(i.fputc) for fputc
    printf7.o(i.__0vprintf$7) refers to printf7.o(i._printf_core) for _printf_core
    printf7.o(i.__0vprintf$7) refers to usart.o(i.fputc) for fputc
    printf7.o(i.__0vprintf$7) refers to usart.o(.data) for __stdout
    printf7.o(i.__0vsnprintf$7) refers to printf7.o(i._printf_core) for _printf_core
    printf7.o(i.__0vsnprintf$7) refers to printf7.o(i._snputc) for _snputc
    printf7.o(i.__0vsprintf$7) refers to printf7.o(i._printf_core) for _printf_core
    printf7.o(i.__0vsprintf$7) refers to printf7.o(i._sputc) for _sputc
    printf7.o(i._printf_core) refers to printf7.o(i._printf_pre_padding) for _printf_pre_padding
    printf7.o(i._printf_core) refers to uldiv.o(.text) for __aeabi_uldivmod
    printf7.o(i._printf_core) refers to printf7.o(i._printf_post_padding) for _printf_post_padding
    printf8.o(i.__0fprintf$8) refers to printf8.o(i._printf_core) for _printf_core
    printf8.o(i.__0fprintf$8) refers to usart.o(i.fputc) for fputc
    printf8.o(i.__0printf$8) refers to printf8.o(i._printf_core) for _printf_core
    printf8.o(i.__0printf$8) refers to usart.o(i.fputc) for fputc
    printf8.o(i.__0printf$8) refers to usart.o(.data) for __stdout
    printf8.o(i.__0snprintf$8) refers to printf8.o(i._printf_core) for _printf_core
    printf8.o(i.__0snprintf$8) refers to printf8.o(i._snputc) for _snputc
    printf8.o(i.__0sprintf$8) refers to printf8.o(i._printf_core) for _printf_core
    printf8.o(i.__0sprintf$8) refers to printf8.o(i._sputc) for _sputc
    printf8.o(i.__0vfprintf$8) refers to printf8.o(i._printf_core) for _printf_core
    printf8.o(i.__0vfprintf$8) refers to usart.o(i.fputc) for fputc
    printf8.o(i.__0vprintf$8) refers to printf8.o(i._printf_core) for _printf_core
    printf8.o(i.__0vprintf$8) refers to usart.o(i.fputc) for fputc
    printf8.o(i.__0vprintf$8) refers to usart.o(.data) for __stdout
    printf8.o(i.__0vsnprintf$8) refers to printf8.o(i._printf_core) for _printf_core
    printf8.o(i.__0vsnprintf$8) refers to printf8.o(i._snputc) for _snputc
    printf8.o(i.__0vsprintf$8) refers to printf8.o(i._printf_core) for _printf_core
    printf8.o(i.__0vsprintf$8) refers to printf8.o(i._sputc) for _sputc
    printf8.o(i._printf_core) refers to printf8.o(i._printf_pre_padding) for _printf_pre_padding
    printf8.o(i._printf_core) refers to uldiv.o(.text) for __aeabi_uldivmod
    printf8.o(i._printf_core) refers to printf8.o(i._printf_post_padding) for _printf_post_padding
    printfa.o(i.__0fprintf) refers (Special) to iusefp.o(.text) for __I$use$fp
    printfa.o(i.__0fprintf) refers to printfa.o(i._printf_core) for _printf_core
    printfa.o(i.__0fprintf) refers to usart.o(i.fputc) for fputc
    printfa.o(i.__0printf) refers (Special) to iusefp.o(.text) for __I$use$fp
    printfa.o(i.__0printf) refers to printfa.o(i._printf_core) for _printf_core
    printfa.o(i.__0printf) refers to usart.o(i.fputc) for fputc
    printfa.o(i.__0printf) refers to usart.o(.data) for __stdout
    printfa.o(i.__0snprintf) refers (Special) to iusefp.o(.text) for __I$use$fp
    printfa.o(i.__0snprintf) refers to printfa.o(i._printf_core) for _printf_core
    printfa.o(i.__0snprintf) refers to printfa.o(i._snputc) for _snputc
    printfa.o(i.__0sprintf) refers (Special) to iusefp.o(.text) for __I$use$fp
    printfa.o(i.__0sprintf) refers to printfa.o(i._printf_core) for _printf_core
    printfa.o(i.__0sprintf) refers to printfa.o(i._sputc) for _sputc
    printfa.o(i.__0vfprintf) refers (Special) to iusefp.o(.text) for __I$use$fp
    printfa.o(i.__0vfprintf) refers to printfa.o(i._printf_core) for _printf_core
    printfa.o(i.__0vfprintf) refers to usart.o(i.fputc) for fputc
    printfa.o(i.__0vprintf) refers (Special) to iusefp.o(.text) for __I$use$fp
    printfa.o(i.__0vprintf) refers to printfa.o(i._printf_core) for _printf_core
    printfa.o(i.__0vprintf) refers to usart.o(i.fputc) for fputc
    printfa.o(i.__0vprintf) refers to usart.o(.data) for __stdout
    printfa.o(i.__0vsnprintf) refers (Special) to iusefp.o(.text) for __I$use$fp
    printfa.o(i.__0vsnprintf) refers to printfa.o(i._printf_core) for _printf_core
    printfa.o(i.__0vsnprintf) refers to printfa.o(i._snputc) for _snputc
    printfa.o(i.__0vsprintf) refers (Special) to iusefp.o(.text) for __I$use$fp
    printfa.o(i.__0vsprintf) refers to printfa.o(i._printf_core) for _printf_core
    printfa.o(i.__0vsprintf) refers to printfa.o(i._sputc) for _sputc
    printfa.o(i._fp_digits) refers (Special) to iusefp.o(.text) for __I$use$fp
    printfa.o(i._fp_digits) refers to dmul.o(.text) for __aeabi_dmul
    printfa.o(i._fp_digits) refers to ddiv.o(.text) for __aeabi_ddiv
    printfa.o(i._fp_digits) refers to cdrcmple.o(.text) for __aeabi_cdrcmple
    printfa.o(i._fp_digits) refers to dadd.o(.text) for __aeabi_dadd
    printfa.o(i._fp_digits) refers to dfixul.o(.text) for __aeabi_d2ulz
    printfa.o(i._fp_digits) refers to uldiv.o(.text) for __aeabi_uldivmod
    printfa.o(i._printf_core) refers (Special) to iusefp.o(.text) for __I$use$fp
    printfa.o(i._printf_core) refers to printfa.o(i._printf_pre_padding) for _printf_pre_padding
    printfa.o(i._printf_core) refers to uldiv.o(.text) for __aeabi_uldivmod
    printfa.o(i._printf_core) refers to printfa.o(i._printf_post_padding) for _printf_post_padding
    printfa.o(i._printf_core) refers to printfa.o(i._fp_digits) for _fp_digits
    printfa.o(i._printf_core) refers to uidiv.o(.text) for __aeabi_uidivmod
    printfa.o(i._printf_post_padding) refers (Special) to iusefp.o(.text) for __I$use$fp
    printfa.o(i._printf_pre_padding) refers (Special) to iusefp.o(.text) for __I$use$fp
    printfa.o(i._snputc) refers (Special) to iusefp.o(.text) for __I$use$fp
    printfa.o(i._sputc) refers (Special) to iusefp.o(.text) for __I$use$fp
    ddiv.o(.text) refers (Special) to iusefp.o(.text) for __I$use$fp
    ddiv.o(.text) refers to depilogue.o(.text) for _double_round
    dfltul.o(.text) refers (Special) to iusefp.o(.text) for __I$use$fp
    dfltul.o(.text) refers to depilogue.o(.text) for _double_epilogue
    dfixul.o(.text) refers (Special) to iusefp.o(.text) for __I$use$fp
    dfixul.o(.text) refers to llushr.o(.text) for __aeabi_llsr
    dfixul.o(.text) refers to llshl.o(.text) for __aeabi_llsl
    entry3.o(.ARM.Collect$$$$00000002) refers to entry3.o(.ARM.Collect$$$$00002713) for __lit__00000000
    entry3.o(__vectab_stack_and_reset_area) refers to entry.o(.ARM.Collect$$$$00000000) for __main
    entry5.o(.ARM.Collect$$$$00000004) refers to init.o(.text) for __scatterload
    entry9a.o(.ARM.Collect$$$$0000000B) refers to los_config.o(i.main) for main
    entry9b.o(.ARM.Collect$$$$0000000C) refers to los_config.o(i.main) for main
    depilogue.o(.text) refers to llshl.o(.text) for __aeabi_llsl
    depilogue.o(.text) refers to llushr.o(.text) for __aeabi_llsr
    dadd.o(.text) refers to llshl.o(.text) for __aeabi_llsl
    dadd.o(.text) refers to llsshr.o(.text) for __aeabi_lasr
    dadd.o(.text) refers to depilogue.o(.text) for _double_epilogue
    dmul.o(.text) refers to depilogue.o(.text) for _double_epilogue
    init.o(.text) refers to entry5.o(.ARM.Collect$$$$00000004) for __main_after_scatterload


==============================================================================

Removing Unused input sections from the image.

    Removing startup_stm32f40_41xxx.o(HEAP), (0 bytes).
    Removing test.o(.rev16_text), (4 bytes).
    Removing test.o(.revsh_text), (4 bytes).
    Removing test.o(i.command_received), (100 bytes).
    Removing test.o(i.creat_command_task), (80 bytes).
    Removing test.o(i.main1), (136 bytes).
    Removing sys.o(.rev16_text), (4 bytes).
    Removing sys.o(.revsh_text), (4 bytes).
    Removing sys.o(.emb_text), (16 bytes).
    Removing sys.o(i.Ex_NVIC_Config), (180 bytes).
    Removing sys.o(i.MY_NVIC_Init), (120 bytes).
    Removing sys.o(i.MY_NVIC_PriorityGroupConfig), (40 bytes).
    Removing sys.o(i.Sys_Soft_Reset), (16 bytes).
    Removing sys.o(i.Sys_Standby), (76 bytes).
    Removing usart.o(.rev16_text), (4 bytes).
    Removing usart.o(.revsh_text), (4 bytes).
    Removing usart.o(i._sys_exit), (4 bytes).
    Removing led.o(.rev16_text), (4 bytes).
    Removing led.o(.revsh_text), (4 bytes).
    Removing los_priqueue.o(i.LOS_PriqueueTotalSize), (28 bytes).
    Removing los_swtmr.o(i.LOS_SwtmrCreate), (140 bytes).
    Removing los_swtmr.o(i.LOS_SwtmrDelete), (132 bytes).
    Removing los_swtmr.o(i.LOS_SwtmrStart), (132 bytes).
    Removing los_swtmr.o(i.LOS_SwtmrStop), (128 bytes).
    Removing los_swtmr.o(i.osSwTmrAdjust), (52 bytes).
    Removing los_swtmr.o(i.osSwTmrGetNextTimeout), (24 bytes).
    Removing los_swtmr.o(i.osSwtmrStop), (72 bytes).
    Removing los_sys.o(i.LOS_CyclePerTickGet), (8 bytes).
    Removing los_sys.o(i.LOS_MS2Tick), (40 bytes).
    Removing los_sys.o(i.LOS_Reboot), (8 bytes).
    Removing los_sys.o(i.LOS_Tick2MS), (28 bytes).
    Removing los_sys.o(i.LOS_TickCountGet), (12 bytes).
    Removing los_sys.o(i.get_jiffies_64), (8 bytes).
    Removing los_sys.o(i.jiffies_to_msecs), (12 bytes).
    Removing los_sys.o(i.osCpuTick2MS), (104 bytes).
    Removing los_sys.o(i.osCpuTick2US), (104 bytes).
    Removing los_task.o(i.LOS_CurTaskIDGet), (28 bytes).
    Removing los_task.o(i.LOS_CurTaskPriSet), (28 bytes).
    Removing los_task.o(i.LOS_TaskDelete), (360 bytes).
    Removing los_task.o(i.LOS_TaskPriGet), (84 bytes).
    Removing los_task.o(i.LOS_TaskPriSet), (168 bytes).
    Removing los_task.o(i.LOS_TaskResume), (176 bytes).
    Removing los_task.o(i.LOS_TaskSuspend), (228 bytes).
    Removing los_task.o(i.osTaskPriModify), (56 bytes).
    Removing los_event.o(i.LOS_EventClear), (40 bytes).
    Removing los_event.o(i.LOS_EventDestory), (24 bytes).
    Removing los_event.o(i.LOS_EventInit), (28 bytes).
    Removing los_event.o(i.LOS_EventPoll), (80 bytes).
    Removing los_event.o(i.LOS_EventRead), (348 bytes).
    Removing los_event.o(i.LOS_EventWrite), (248 bytes).
    Removing los_mux.o(i.LOS_ListDelete), (20 bytes).
    Removing los_mux.o(i.LOS_ListEmpty), (16 bytes).
    Removing los_mux.o(i.LOS_MuxCreate), (100 bytes).
    Removing los_mux.o(i.LOS_MuxDelete), (104 bytes).
    Removing los_mux.o(i.LOS_MuxPend), (328 bytes).
    Removing los_mux.o(i.LOS_MuxPost), (256 bytes).
    Removing los_queue.o(i.LOS_QueueDelete), (176 bytes).
    Removing los_queue.o(i.osQueueMailAlloc), (168 bytes).
    Removing los_queue.o(i.osQueueMailFree), (152 bytes).
    Removing los_sem.o(i.LOS_SemCreate), (108 bytes).
    Removing los_sem.o(i.LOS_SemDelete), (96 bytes).
    Removing los_sem.o(i.LOS_SemPend), (256 bytes).
    Removing los_membox.o(i.LOS_MemboxClr), (28 bytes).
    Removing los_memory.o(i.LOS_MemRealloc), (346 bytes).
    Removing los_memstat.o(i.osTaskMemUsage), (24 bytes).
    Removing los_misc.o(i.LOS_Msleep), (48 bytes).
    Removing los_config.o(i.osBackTrace), (2 bytes).
    Removing los_config.o(i.osEnableFPU), (20 bytes).
    Removing los_hw_tick.o(i.LOS_GetCpuCycle), (116 bytes).
    Removing los_hwi.o(i.LOS_HwiDelete), (76 bytes).
    Removing ddiv.o(.text), (222 bytes).
    Removing dfltul.o(.text), (24 bytes).
    Removing dfixul.o(.text), (48 bytes).
    Removing depilogue.o(.text), (182 bytes).
    Removing dadd.o(.text), (334 bytes).
    Removing dmul.o(.text), (228 bytes).
    Removing cdrcmple.o(.text), (40 bytes).

77 unused section(s) (total 7246 bytes) removed from the image.

==============================================================================

Image Symbol Table

    Local Symbols

    Symbol Name                              Value     Ov Type        Size  Object(Section)

    ../clib/../cmprslib/zerorunl2.c          0x00000000   Number         0  __dczerorl2.o ABSOLUTE
    ../clib/microlib/division.c              0x00000000   Number         0  uldiv.o ABSOLUTE
    ../clib/microlib/division.c              0x00000000   Number         0  uidiv.o ABSOLUTE
    ../clib/microlib/init/entry.s            0x00000000   Number         0  entry9b.o ABSOLUTE
    ../clib/microlib/init/entry.s            0x00000000   Number         0  entry10a.o ABSOLUTE
    ../clib/microlib/init/entry.s            0x00000000   Number         0  entry10b.o ABSOLUTE
    ../clib/microlib/init/entry.s            0x00000000   Number         0  entry11a.o ABSOLUTE
    ../clib/microlib/init/entry.s            0x00000000   Number         0  entry11b.o ABSOLUTE
    ../clib/microlib/init/entry.s            0x00000000   Number         0  entry5.o ABSOLUTE
    ../clib/microlib/init/entry.s            0x00000000   Number         0  entry7a.o ABSOLUTE
    ../clib/microlib/init/entry.s            0x00000000   Number         0  entry7b.o ABSOLUTE
    ../clib/microlib/init/entry.s            0x00000000   Number         0  entry.o ABSOLUTE
    ../clib/microlib/init/entry.s            0x00000000   Number         0  entry3.o ABSOLUTE
    ../clib/microlib/init/entry.s            0x00000000   Number         0  entry8a.o ABSOLUTE
    ../clib/microlib/init/entry.s            0x00000000   Number         0  entry8b.o ABSOLUTE
    ../clib/microlib/init/entry.s            0x00000000   Number         0  entry9a.o ABSOLUTE
    ../clib/microlib/longlong.c              0x00000000   Number         0  llshl.o ABSOLUTE
    ../clib/microlib/longlong.c              0x00000000   Number         0  llushr.o ABSOLUTE
    ../clib/microlib/longlong.c              0x00000000   Number         0  llsshr.o ABSOLUTE
    ../clib/microlib/printf/printf.c         0x00000000   Number         0  printf0.o ABSOLUTE
    ../clib/microlib/printf/printf.c         0x00000000   Number         0  printf3.o ABSOLUTE
    ../clib/microlib/printf/printf.c         0x00000000   Number         0  printf7.o ABSOLUTE
    ../clib/microlib/printf/printf.c         0x00000000   Number         0  printf8.o ABSOLUTE
    ../clib/microlib/printf/printf.c         0x00000000   Number         0  printfa.o ABSOLUTE
    ../clib/microlib/printf/printf.c         0x00000000   Number         0  printf2.o ABSOLUTE
    ../clib/microlib/printf/printf.c         0x00000000   Number         0  printf1.o ABSOLUTE
    ../clib/microlib/printf/printf.c         0x00000000   Number         0  printfb.o ABSOLUTE
    ../clib/microlib/printf/printf.c         0x00000000   Number         0  printf4.o ABSOLUTE
    ../clib/microlib/printf/printf.c         0x00000000   Number         0  printf5.o ABSOLUTE
    ../clib/microlib/printf/printf.c         0x00000000   Number         0  printf6.o ABSOLUTE
    ../clib/microlib/string/memcpy.c         0x00000000   Number         0  memcpyb.o ABSOLUTE
    ../clib/microlib/string/memcpy.c         0x00000000   Number         0  memcpya.o ABSOLUTE
    ../clib/microlib/string/memset.c         0x00000000   Number         0  memseta.o ABSOLUTE
    ../clib/microlib/stubs.s                 0x00000000   Number         0  useno.o ABSOLUTE
    ../clib/microlib/stubs.s                 0x00000000   Number         0  iusefp.o ABSOLUTE
    ../fplib/microlib/fpadd.c                0x00000000   Number         0  dadd.o ABSOLUTE
    ../fplib/microlib/fpdiv.c                0x00000000   Number         0  ddiv.o ABSOLUTE
    ../fplib/microlib/fpepilogue.c           0x00000000   Number         0  depilogue.o ABSOLUTE
    ../fplib/microlib/fpfix.c                0x00000000   Number         0  dfixul.o ABSOLUTE
    ../fplib/microlib/fpflt.c                0x00000000   Number         0  dfltul.o ABSOLUTE
    ../fplib/microlib/fpmul.c                0x00000000   Number         0  dmul.o ABSOLUTE
    ..\HARDWARE\LED\led.c                    0x00000000   Number         0  led.o ABSOLUTE
    ..\Huawei_LiteOS\kernel\base\core\los_priqueue.c 0x00000000   Number         0  los_priqueue.o ABSOLUTE
    ..\Huawei_LiteOS\kernel\base\core\los_swtmr.c 0x00000000   Number         0  los_swtmr.o ABSOLUTE
    ..\Huawei_LiteOS\kernel\base\core\los_sys.c 0x00000000   Number         0  los_sys.o ABSOLUTE
    ..\Huawei_LiteOS\kernel\base\core\los_task.c 0x00000000   Number         0  los_task.o ABSOLUTE
    ..\Huawei_LiteOS\kernel\base\core\los_tick.c 0x00000000   Number         0  los_tick.o ABSOLUTE
    ..\Huawei_LiteOS\kernel\base\core\los_timeslice.c 0x00000000   Number         0  los_timeslice.o ABSOLUTE
    ..\Huawei_LiteOS\kernel\base\ipc\los_event.c 0x00000000   Number         0  los_event.o ABSOLUTE
    ..\Huawei_LiteOS\kernel\base\ipc\los_mux.c 0x00000000   Number         0  los_mux.o ABSOLUTE
    ..\Huawei_LiteOS\kernel\base\ipc\los_queue.c 0x00000000   Number         0  los_queue.o ABSOLUTE
    ..\Huawei_LiteOS\kernel\base\ipc\los_sem.c 0x00000000   Number         0  los_sem.o ABSOLUTE
    ..\Huawei_LiteOS\kernel\base\mem\los_membox.c 0x00000000   Number         0  los_membox.o ABSOLUTE
    ..\Huawei_LiteOS\kernel\base\mem\los_memory.c 0x00000000   Number         0  los_memory.o ABSOLUTE
    ..\Huawei_LiteOS\kernel\base\mem\los_memstat.c 0x00000000   Number         0  los_memstat.o ABSOLUTE
    ..\Huawei_LiteOS\kernel\base\mem\los_multipledlinkhead.c 0x00000000   Number         0  los_multipledlinkhead.o ABSOLUTE
    ..\Huawei_LiteOS\kernel\base\misc\los_misc.c 0x00000000   Number         0  los_misc.o ABSOLUTE
    ..\Huawei_LiteOS\platform\bsp\sample\config\los_config.c 0x00000000   Number         0  los_config.o ABSOLUTE
    ..\Huawei_LiteOS\platform\cpu\arm\cortex-m4\los_dispatch.s 0x00000000   Number         0  los_dispatch.o ABSOLUTE
    ..\Huawei_LiteOS\platform\cpu\arm\cortex-m4\los_hw.c 0x00000000   Number         0  los_hw.o ABSOLUTE
    ..\Huawei_LiteOS\platform\cpu\arm\cortex-m4\los_hw_tick.c 0x00000000   Number         0  los_hw_tick.o ABSOLUTE
    ..\Huawei_LiteOS\platform\cpu\arm\cortex-m4\los_hwi.c 0x00000000   Number         0  los_hwi.o ABSOLUTE
    ..\SYSTEM\sys\sys.c                      0x00000000   Number         0  sys.o ABSOLUTE
    ..\SYSTEM\usart\usart.c                  0x00000000   Number         0  usart.o ABSOLUTE
    ..\\HARDWARE\\LED\\led.c                 0x00000000   Number         0  led.o ABSOLUTE
    ..\\Huawei_LiteOS\\platform\\cpu\\arm\\cortex-m4\\los_hwi.c 0x00000000   Number         0  los_hwi.o ABSOLUTE
    ..\\SYSTEM\\sys\\sys.c                   0x00000000   Number         0  sys.o ABSOLUTE
    ..\\SYSTEM\\usart\\usart.c               0x00000000   Number         0  usart.o ABSOLUTE
    cdrcmple.s                               0x00000000   Number         0  cdrcmple.o ABSOLUTE
    command.c                                0x00000000   Number         0  command.o ABSOLUTE
    dc.s                                     0x00000000   Number         0  dc.o ABSOLUTE
    handlers.s                               0x00000000   Number         0  handlers.o ABSOLUTE
    init.s                                   0x00000000   Number         0  init.o ABSOLUTE
    startup_stm32f40_41xxx.s                 0x00000000   Number         0  startup_stm32f40_41xxx.o ABSOLUTE
    test.c                                   0x00000000   Number         0  test.o ABSOLUTE
    test.c                                   0x00000000   Number         0  test.o ABSOLUTE
    RESET                                    0x08000000   Section      392  startup_stm32f40_41xxx.o(RESET)
    .ARM.Collect$$$$00000000                 0x08000188   Section        0  entry.o(.ARM.Collect$$$$00000000)
    .ARM.Collect$$$$00000002                 0x08000188   Section        4  entry3.o(.ARM.Collect$$$$00000002)
    .ARM.Collect$$$$00000004                 0x0800018c   Section        4  entry5.o(.ARM.Collect$$$$00000004)
    .ARM.Collect$$$$00000008                 0x08000190   Section        0  entry7b.o(.ARM.Collect$$$$00000008)
    .ARM.Collect$$$$0000000A                 0x08000190   Section        0  entry8b.o(.ARM.Collect$$$$0000000A)
    .ARM.Collect$$$$0000000B                 0x08000190   Section        8  entry9a.o(.ARM.Collect$$$$0000000B)
    .ARM.Collect$$$$0000000D                 0x08000198   Section        0  entry10a.o(.ARM.Collect$$$$0000000D)
    .ARM.Collect$$$$0000000F                 0x08000198   Section        0  entry11a.o(.ARM.Collect$$$$0000000F)
    .ARM.Collect$$$$00002713                 0x08000198   Section        4  entry3.o(.ARM.Collect$$$$00002713)
    __lit__00000000                          0x08000198   Data           4  entry3.o(.ARM.Collect$$$$00002713)
    .emb_text                                0x0800019c   Section        6  los_hwi.o(.emb_text)
    $v0                                      0x0800019c   Number         0  los_hwi.o(.emb_text)
    .text                                    0x080001a4   Section       44  startup_stm32f40_41xxx.o(.text)
    $v0                                      0x080001a4   Number         0  startup_stm32f40_41xxx.o(.text)
    .text                                    0x080001d0   Section      100  los_dispatch.o(.text)
    $v0                                      0x080001d0   Number         0  los_dispatch.o(.text)
    .text                                    0x08000234   Section        0  memseta.o(.text)
    .text                                    0x08000258   Section       36  init.o(.text)
    .text                                    0x0800027c   Section        0  __dczerorl2.o(.text)
    KERNEL                                   0x080002d4   Section      136  los_dispatch.o(KERNEL)
    $v0                                      0x080002d4   Number         0  los_dispatch.o(KERNEL)
    i.Delay                                  0x0800035c   Section        0  test.o(i.Delay)
    i.GPIO_AF_Set                            0x0800036e   Section        0  sys.o(i.GPIO_AF_Set)
    i.GPIO_Set                               0x080003ae   Section        0  sys.o(i.GPIO_Set)
    i.LED_Init                               0x0800048c   Section        0  led.o(i.LED_Init)
    i.LOS_Align                              0x080004cc   Section        0  los_misc.o(i.LOS_Align)
    i.LOS_DLnkInitMultiHead                  0x080004e8   Section        0  los_multipledlinkhead.o(i.LOS_DLnkInitMultiHead)
    i.LOS_DLnkMultiHead                      0x08000506   Section        0  los_multipledlinkhead.o(i.LOS_DLnkMultiHead)
    i.LOS_HwiCreate                          0x08000530   Section        0  los_hwi.o(i.LOS_HwiCreate)
    i.LOS_ListAdd                            0x080005d4   Section        0  los_task.o(i.LOS_ListAdd)
    LOS_ListAdd                              0x080005d5   Thumb Code    14  los_task.o(i.LOS_ListAdd)
    i.LOS_ListAdd                            0x080005e2   Section        0  los_mux.o(i.LOS_ListAdd)
    LOS_ListAdd                              0x080005e3   Thumb Code    14  los_mux.o(i.LOS_ListAdd)
    i.LOS_ListAdd                            0x080005f0   Section        0  los_queue.o(i.LOS_ListAdd)
    LOS_ListAdd                              0x080005f1   Thumb Code    14  los_queue.o(i.LOS_ListAdd)
    i.LOS_ListAdd                            0x080005fe   Section        0  los_sem.o(i.LOS_ListAdd)
    LOS_ListAdd                              0x080005ff   Thumb Code    14  los_sem.o(i.LOS_ListAdd)
    i.LOS_ListAdd                            0x0800060c   Section        0  los_memory.o(i.LOS_ListAdd)
    LOS_ListAdd                              0x0800060d   Thumb Code    14  los_memory.o(i.LOS_ListAdd)
    i.LOS_ListDelete                         0x0800061a   Section        0  los_task.o(i.LOS_ListDelete)
    LOS_ListDelete                           0x0800061b   Thumb Code    20  los_task.o(i.LOS_ListDelete)
    i.LOS_ListDelete                         0x0800062e   Section        0  los_sem.o(i.LOS_ListDelete)
    LOS_ListDelete                           0x0800062f   Thumb Code    20  los_sem.o(i.LOS_ListDelete)
    i.LOS_ListDelete                         0x08000642   Section        0  los_memory.o(i.LOS_ListDelete)
    LOS_ListDelete                           0x08000643   Thumb Code    20  los_memory.o(i.LOS_ListDelete)
    i.LOS_ListEmpty                          0x08000656   Section        0  los_task.o(i.LOS_ListEmpty)
    LOS_ListEmpty                            0x08000657   Thumb Code    16  los_task.o(i.LOS_ListEmpty)
    i.LOS_ListEmpty                          0x08000666   Section        0  los_queue.o(i.LOS_ListEmpty)
    LOS_ListEmpty                            0x08000667   Thumb Code    16  los_queue.o(i.LOS_ListEmpty)
    i.LOS_ListEmpty                          0x08000676   Section        0  los_sem.o(i.LOS_ListEmpty)
    LOS_ListEmpty                            0x08000677   Thumb Code    16  los_sem.o(i.LOS_ListEmpty)
    i.LOS_ListInit                           0x08000686   Section        0  los_task.o(i.LOS_ListInit)
    LOS_ListInit                             0x08000687   Thumb Code     6  los_task.o(i.LOS_ListInit)
    i.LOS_ListInit                           0x0800068c   Section        0  los_mux.o(i.LOS_ListInit)
    LOS_ListInit                             0x0800068d   Thumb Code     6  los_mux.o(i.LOS_ListInit)
    i.LOS_ListInit                           0x08000692   Section        0  los_queue.o(i.LOS_ListInit)
    LOS_ListInit                             0x08000693   Thumb Code     6  los_queue.o(i.LOS_ListInit)
    i.LOS_ListInit                           0x08000698   Section        0  los_sem.o(i.LOS_ListInit)
    LOS_ListInit                             0x08000699   Thumb Code     6  los_sem.o(i.LOS_ListInit)
    i.LOS_ListTailInsert                     0x0800069e   Section        0  los_task.o(i.LOS_ListTailInsert)
    LOS_ListTailInsert                       0x0800069f   Thumb Code    16  los_task.o(i.LOS_ListTailInsert)
    i.LOS_ListTailInsert                     0x080006ae   Section        0  los_mux.o(i.LOS_ListTailInsert)
    LOS_ListTailInsert                       0x080006af   Thumb Code    16  los_mux.o(i.LOS_ListTailInsert)
    i.LOS_ListTailInsert                     0x080006be   Section        0  los_sem.o(i.LOS_ListTailInsert)
    LOS_ListTailInsert                       0x080006bf   Thumb Code    16  los_sem.o(i.LOS_ListTailInsert)
    i.LOS_Log2                               0x080006d0   Section        0  los_multipledlinkhead.o(i.LOS_Log2)
    LOS_Log2                                 0x080006d1   Thumb Code   320  los_multipledlinkhead.o(i.LOS_Log2)
    i.LOS_MemAlloc                           0x08000814   Section        0  los_memory.o(i.LOS_MemAlloc)
    i.LOS_MemAllocAlign                      0x0800084e   Section        0  los_memory.o(i.LOS_MemAllocAlign)
    i.LOS_MemFree                            0x080008ba   Section        0  los_memory.o(i.LOS_MemFree)
    i.LOS_MemInit                            0x0800090e   Section        0  los_memory.o(i.LOS_MemInit)
    i.LOS_MemboxAlloc                        0x080009b4   Section        0  los_membox.o(i.LOS_MemboxAlloc)
    i.LOS_MemboxFree                         0x080009f4   Section        0  los_membox.o(i.LOS_MemboxFree)
    i.LOS_MemboxInit                         0x08000a98   Section        0  los_membox.o(i.LOS_MemboxInit)
    i.LOS_PriqueueDequeue                    0x08000b18   Section        0  los_priqueue.o(i.LOS_PriqueueDequeue)
    i.LOS_PriqueueEnqueue                    0x08000b30   Section        0  los_priqueue.o(i.LOS_PriqueueEnqueue)
    i.LOS_PriqueueSize                       0x08000b54   Section        0  los_priqueue.o(i.LOS_PriqueueSize)
    i.LOS_PriqueueTop                        0x08000b7c   Section        0  los_priqueue.o(i.LOS_PriqueueTop)
    i.LOS_QueueCreate                        0x08000bb8   Section        0  los_queue.o(i.LOS_QueueCreate)
    i.LOS_QueueRead                          0x08000c34   Section        0  los_queue.o(i.LOS_QueueRead)
    i.LOS_QueueWrite                         0x08000d64   Section        0  los_queue.o(i.LOS_QueueWrite)
    i.LOS_Schedule                           0x08000ea0   Section        0  los_hw.o(i.LOS_Schedule)
    i.LOS_SemPost                            0x08000ee0   Section        0  los_sem.o(i.LOS_SemPost)
    i.LOS_Start                              0x08000f98   Section        0  los_config.o(i.LOS_Start)
    i.LOS_TaskCreate                         0x08000fb0   Section        0  los_task.o(i.LOS_TaskCreate)
    i.LOS_TaskCreateOnly                     0x0800104c   Section        0  los_task.o(i.LOS_TaskCreateOnly)
    i.LOS_TaskDelay                          0x080011d0   Section        0  los_task.o(i.LOS_TaskDelay)
    i.LOS_TaskLock                           0x08001250   Section        0  los_task.o(i.LOS_TaskLock)
    i.LOS_TaskUnlock                         0x08001270   Section        0  los_task.o(i.LOS_TaskUnlock)
    i.LOS_TaskYield                          0x080012ac   Section        0  los_task.o(i.LOS_TaskYield)
    i.MY_NVIC_SetVectorTable                 0x08001330   Section        0  sys.o(i.MY_NVIC_SetVectorTable)
    i.Stm32_Clock_Init                       0x08001340   Section        0  sys.o(i.Stm32_Clock_Init)
    i.SysTick_Handler                        0x080013a8   Section        0  los_tick.o(i.SysTick_Handler)
    i.Sys_Clock_Set                          0x080013d0   Section        0  sys.o(i.Sys_Clock_Set)
    i.USART1_IRQHandler                      0x080014dc   Section        0  usart.o(i.USART1_IRQHandler)
    i.USART2_IRQHandler                      0x08001568   Section        0  usart.o(i.USART2_IRQHandler)
    i.__0printf$bare                         0x080015f4   Section        0  printfb.o(i.__0printf$bare)
    i.__scatterload_copy                     0x08001604   Section       14  handlers.o(i.__scatterload_copy)
    i.__scatterload_null                     0x08001612   Section        2  handlers.o(i.__scatterload_null)
    i.__scatterload_zeroinit                 0x08001614   Section       14  handlers.o(i.__scatterload_zeroinit)
    i._printf_core                           0x08001622   Section        0  printfb.o(i._printf_core)
    _printf_core                             0x08001623   Thumb Code    34  printfb.o(i._printf_core)
    i.creat_task1                            0x08001644   Section        0  test.o(i.creat_task1)
    i.creat_uart_task                        0x08001688   Section        0  test.o(i.creat_uart_task)
    i.fputc                                  0x080016d0   Section        0  usart.o(i.fputc)
    i.main                                   0x080016ec   Section        0  los_config.o(i.main)
    i.osAppInit                              0x08001708   Section        0  test.o(i.osAppInit)
    i.osHwiDefaultHandler                    0x08001758   Section        0  los_hwi.o(i.osHwiDefaultHandler)
    i.osHwiInit                              0x08001760   Section        0  los_hwi.o(i.osHwiInit)
    i.osIdleTask                             0x08001790   Section        0  los_task.o(i.osIdleTask)
    i.osIdleTaskCreate                       0x08001794   Section        0  los_task.o(i.osIdleTaskCreate)
    i.osInterrupt                            0x080017e0   Section        0  los_hwi.o(i.osInterrupt)
    i.osMain                                 0x08001830   Section        0  los_config.o(i.osMain)
    i.osMemAllocWithCheck                    0x08001896   Section        0  los_memory.o(i.osMemAllocWithCheck)
    osMemAllocWithCheck                      0x08001897   Thumb Code    92  los_memory.o(i.osMemAllocWithCheck)
    i.osMemCheckUsedNode                     0x080018f2   Section        0  los_memory.o(i.osMemCheckUsedNode)
    osMemCheckUsedNode                       0x080018f3   Thumb Code   152  los_memory.o(i.osMemCheckUsedNode)
    i.osMemFindSuitableFreeBlock             0x0800198a   Section        0  los_memory.o(i.osMemFindSuitableFreeBlock)
    osMemFindSuitableFreeBlock               0x0800198b   Thumb Code    80  los_memory.o(i.osMemFindSuitableFreeBlock)
    i.osMemFreeNode                          0x080019da   Section        0  los_memory.o(i.osMemFreeNode)
    osMemFreeNode                            0x080019db   Thumb Code   178  los_memory.o(i.osMemFreeNode)
    i.osMemIsNodeValid                       0x08001a8c   Section        0  los_memory.o(i.osMemIsNodeValid)
    osMemIsNodeValid                         0x08001a8d   Thumb Code    62  los_memory.o(i.osMemIsNodeValid)
    i.osMemMergeNode                         0x08001aca   Section        0  los_memory.o(i.osMemMergeNode)
    osMemMergeNode                           0x08001acb   Thumb Code    36  los_memory.o(i.osMemMergeNode)
    i.osMemSetMagicNumAndTaskid              0x08001af0   Section        0  los_memory.o(i.osMemSetMagicNumAndTaskid)
    osMemSetMagicNumAndTaskid                0x08001af1   Thumb Code    28  los_memory.o(i.osMemSetMagicNumAndTaskid)
    i.osMemSpitNode                          0x08001b10   Section        0  los_memory.o(i.osMemSpitNode)
    osMemSpitNode                            0x08001b11   Thumb Code    92  los_memory.o(i.osMemSpitNode)
    i.osMemSystemInit                        0x08001b6c   Section        0  los_memory.o(i.osMemSystemInit)
    i.osMuxInit                              0x08001b90   Section        0  los_mux.o(i.osMuxInit)
    i.osPriqueueInit                         0x08001bec   Section        0  los_priqueue.o(i.osPriqueueInit)
    i.osQueueCreate                          0x08001c34   Section        0  los_queue.o(i.osQueueCreate)
    i.osQueueInit                            0x08001ca4   Section        0  los_queue.o(i.osQueueInit)
    i.osQueuePend                            0x08001cdc   Section        0  los_queue.o(i.osQueuePend)
    osQueuePend                              0x08001cdd   Thumb Code   132  los_queue.o(i.osQueuePend)
    i.osQueueWakeUp                          0x08001d60   Section        0  los_queue.o(i.osQueueWakeUp)
    osQueueWakeUp                            0x08001d61   Thumb Code    90  los_queue.o(i.osQueueWakeUp)
    i.osRegister                             0x08001dbc   Section        0  los_config.o(i.osRegister)
    i.osSchedule                             0x08001dd8   Section        0  los_hw.o(i.osSchedule)
    i.osSemInit                              0x08001de0   Section        0  los_sem.o(i.osSemInit)
    i.osSwTmrInit                            0x08001e38   Section        0  los_swtmr.o(i.osSwTmrInit)
    i.osSwTmrStart                           0x08001ee4   Section        0  los_swtmr.o(i.osSwTmrStart)
    i.osSwTmrTask                            0x08001f44   Section        0  los_swtmr.o(i.osSwTmrTask)
    i.osSwTmrTaskCreate                      0x08001f94   Section        0  los_swtmr.o(i.osSwTmrTaskCreate)
    i.osSwTmrTimeoutHandle                   0x08001fdc   Section        0  los_swtmr.o(i.osSwTmrTimeoutHandle)
    osSwTmrTimeoutHandle                     0x08001fdd   Thumb Code   128  los_swtmr.o(i.osSwTmrTimeoutHandle)
    i.osSwtmrDelete                          0x08002068   Section        0  los_swtmr.o(i.osSwtmrDelete)
    osSwtmrDelete                            0x08002069   Thumb Code    16  los_swtmr.o(i.osSwtmrDelete)
    i.osSwtmrScan                            0x0800207c   Section        0  los_swtmr.o(i.osSwtmrScan)
    i.osTaskAdd2TimerList                    0x080020a0   Section        0  los_task.o(i.osTaskAdd2TimerList)
    i.osTaskEntry                            0x08002160   Section        0  los_task.o(i.osTaskEntry)
    i.osTaskExit                             0x08002204   Section        0  los_hw.o(i.osTaskExit)
    i.osTaskInit                             0x0800220c   Section        0  los_task.o(i.osTaskInit)
    i.osTaskMemUsedDec                       0x08002334   Section        0  los_memstat.o(i.osTaskMemUsedDec)
    i.osTaskMemUsedInc                       0x08002368   Section        0  los_memstat.o(i.osTaskMemUsedInc)
    i.osTaskScan                             0x080023a4   Section        0  los_task.o(i.osTaskScan)
    i.osTaskSelfDelete                       0x08002480   Section        0  los_task.o(i.osTaskSelfDelete)
    i.osTickStart                            0x0800257c   Section        0  los_hw_tick.o(i.osTickStart)
    i.osTimerListDelete                      0x080025d4   Section        0  los_task.o(i.osTimerListDelete)
    i.osTimesliceCheck                       0x0800261c   Section        0  los_timeslice.o(i.osTimesliceCheck)
    i.osTimesliceInit                        0x08002668   Section        0  los_timeslice.o(i.osTimesliceInit)
    i.osTskStackInit                         0x08002678   Section        0  los_hw.o(i.osTskStackInit)
    i.task1                                  0x080027b8   Section        0  test.o(i.task1)
    i.uart_init                              0x080027e8   Section        0  usart.o(i.uart_init)
    i.uart_task                              0x080029d8   Section        0  test.o(i.uart_task)
    .vector.bss                              0x20000000   Section     1024  los_hwi.o(.vector.bss)
    .data                                    0x20000600   Section        4  test.o(.data)
    .data                                    0x20000604   Section        8  usart.o(.data)
    .data                                    0x2000060c   Section        4  los_priqueue.o(.data)
    .data                                    0x20000610   Section       16  los_swtmr.o(.data)
    .data                                    0x20000620   Section       68  los_task.o(.data)
    .data                                    0x20000668   Section       16  los_tick.o(.data)
    .data                                    0x20000678   Section        8  los_timeslice.o(.data)
    .data                                    0x20000680   Section       12  los_mux.o(.data)
    .data                                    0x2000068c   Section        4  los_queue.o(.data)
    .data                                    0x20000690   Section       12  los_sem.o(.data)
    .data                                    0x2000069c   Section        8  los_config.o(.data)
    .data                                    0x200006a4   Section        4  los_hw_tick.o(.data)
    .data                                    0x200006a8   Section        4  los_hwi.o(.data)
    .bss                                     0x200006ac   Section      400  usart.o(.bss)
    .bss                                     0x2000083c   Section      208  los_swtmr.o(.bss)
    .bss                                     0x2000090c   Section    32768  los_memory.o(.bss)
    .bss                                     0x2000890c   Section       64  los_memstat.o(.bss)
    .bss                                     0x2000894c   Section     1024  los_hwi.o(.bss)
    STACK                                    0x20008d50   Section     1024  startup_stm32f40_41xxx.o(STACK)

    Global Symbols

    Symbol Name                              Value     Ov Type        Size  Object(Section)

    BuildAttributes$$THM_ISAv4$E$P$D$K$B$S$7EM$VFPi3$EXTD16$VFPS$VFMA$PE$A:L22UL41UL21$X:L11$S22US41US21$IEEE1$IW$USESV6$~STKCKD$USESV7$~SHL$OSPACE$ROPI$EBA8$MICROLIB$REQ8$PRES8$EABIv2 0x00000000   Number         0  anon$$obj.o ABSOLUTE
    __ARM_use_no_argv                        0x00000000   Number         0  los_config.o ABSOLUTE
    __use_no_errno                           0x00000000   Number         0  useno.o ABSOLUTE
    __use_no_exception_handling              0x00000000   Number         0  useno.o ABSOLUTE
    __use_no_fp                              0x00000000   Number         0  useno.o ABSOLUTE
    __use_no_heap                            0x00000000   Number         0  useno.o ABSOLUTE
    __use_no_heap_region                     0x00000000   Number         0  useno.o ABSOLUTE
    __use_no_semihosting                     0x00000000   Number         0  useno.o ABSOLUTE
    __use_no_semihosting_swi                 0x00000000   Number         0  useno.o ABSOLUTE
    __use_no_signal_handling                 0x00000000   Number         0  useno.o ABSOLUTE
    __cpp_initialize__aeabi_                  - Undefined Weak Reference
    __cxa_finalize                            - Undefined Weak Reference
    _clock_init                               - Undefined Weak Reference
    _microlib_exit                            - Undefined Weak Reference
    __Vectors_Size                           0x00000188   Number         0  startup_stm32f40_41xxx.o ABSOLUTE
    __Vectors                                0x08000000   Data           4  startup_stm32f40_41xxx.o(RESET)
    __Vectors_End                            0x08000188   Data           0  startup_stm32f40_41xxx.o(RESET)
    __main                                   0x08000189   Thumb Code     0  entry.o(.ARM.Collect$$$$00000000)
    _main_stk                                0x08000189   Thumb Code     0  entry3.o(.ARM.Collect$$$$00000002)
    _main_scatterload                        0x0800018d   Thumb Code     0  entry5.o(.ARM.Collect$$$$00000004)
    __main_after_scatterload                 0x08000191   Thumb Code     0  entry5.o(.ARM.Collect$$$$00000004)
    _main_clock                              0x08000191   Thumb Code     0  entry7b.o(.ARM.Collect$$$$00000008)
    _main_cpp_init                           0x08000191   Thumb Code     0  entry8b.o(.ARM.Collect$$$$0000000A)
    _main_init                               0x08000191   Thumb Code     0  entry9a.o(.ARM.Collect$$$$0000000B)
    __rt_final_cpp                           0x08000199   Thumb Code     0  entry10a.o(.ARM.Collect$$$$0000000D)
    __rt_final_exit                          0x08000199   Thumb Code     0  entry11a.o(.ARM.Collect$$$$0000000F)
    osIntNumGet                              0x0800019d   Thumb Code     6  los_hwi.o(.emb_text)
    Reset_Handler                            0x080001a5   Thumb Code    14  startup_stm32f40_41xxx.o(.text)
    NMI_Handler                              0x080001b3   Thumb Code     2  startup_stm32f40_41xxx.o(.text)
    HardFault_Handler                        0x080001b5   Thumb Code     2  startup_stm32f40_41xxx.o(.text)
    MemManage_Handler                        0x080001b7   Thumb Code     2  startup_stm32f40_41xxx.o(.text)
    BusFault_Handler                         0x080001b9   Thumb Code     2  startup_stm32f40_41xxx.o(.text)
    UsageFault_Handler                       0x080001bb   Thumb Code     2  startup_stm32f40_41xxx.o(.text)
    SVC_Handler                              0x080001bd   Thumb Code     2  startup_stm32f40_41xxx.o(.text)
    DebugMon_Handler                         0x080001bf   Thumb Code     2  startup_stm32f40_41xxx.o(.text)
    ADC_IRQHandler                           0x080001c5   Thumb Code     0  startup_stm32f40_41xxx.o(.text)
    CAN1_RX0_IRQHandler                      0x080001c5   Thumb Code     0  startup_stm32f40_41xxx.o(.text)
    CAN1_RX1_IRQHandler                      0x080001c5   Thumb Code     0  startup_stm32f40_41xxx.o(.text)
    CAN1_SCE_IRQHandler                      0x080001c5   Thumb Code     0  startup_stm32f40_41xxx.o(.text)
    CAN1_TX_IRQHandler                       0x080001c5   Thumb Code     0  startup_stm32f40_41xxx.o(.text)
    CAN2_RX0_IRQHandler                      0x080001c5   Thumb Code     0  startup_stm32f40_41xxx.o(.text)
    CAN2_RX1_IRQHandler                      0x080001c5   Thumb Code     0  startup_stm32f40_41xxx.o(.text)
    CAN2_SCE_IRQHandler                      0x080001c5   Thumb Code     0  startup_stm32f40_41xxx.o(.text)
    CAN2_TX_IRQHandler                       0x080001c5   Thumb Code     0  startup_stm32f40_41xxx.o(.text)
    CRYP_IRQHandler                          0x080001c5   Thumb Code     0  startup_stm32f40_41xxx.o(.text)
    DCMI_IRQHandler                          0x080001c5   Thumb Code     0  startup_stm32f40_41xxx.o(.text)
    DMA1_Stream0_IRQHandler                  0x080001c5   Thumb Code     0  startup_stm32f40_41xxx.o(.text)
    DMA1_Stream1_IRQHandler                  0x080001c5   Thumb Code     0  startup_stm32f40_41xxx.o(.text)
    DMA1_Stream2_IRQHandler                  0x080001c5   Thumb Code     0  startup_stm32f40_41xxx.o(.text)
    DMA1_Stream3_IRQHandler                  0x080001c5   Thumb Code     0  startup_stm32f40_41xxx.o(.text)
    DMA1_Stream4_IRQHandler                  0x080001c5   Thumb Code     0  startup_stm32f40_41xxx.o(.text)
    DMA1_Stream5_IRQHandler                  0x080001c5   Thumb Code     0  startup_stm32f40_41xxx.o(.text)
    DMA1_Stream6_IRQHandler                  0x080001c5   Thumb Code     0  startup_stm32f40_41xxx.o(.text)
    DMA1_Stream7_IRQHandler                  0x080001c5   Thumb Code     0  startup_stm32f40_41xxx.o(.text)
    DMA2_Stream0_IRQHandler                  0x080001c5   Thumb Code     0  startup_stm32f40_41xxx.o(.text)
    DMA2_Stream1_IRQHandler                  0x080001c5   Thumb Code     0  startup_stm32f40_41xxx.o(.text)
    DMA2_Stream2_IRQHandler                  0x080001c5   Thumb Code     0  startup_stm32f40_41xxx.o(.text)
    DMA2_Stream3_IRQHandler                  0x080001c5   Thumb Code     0  startup_stm32f40_41xxx.o(.text)
    DMA2_Stream4_IRQHandler                  0x080001c5   Thumb Code     0  startup_stm32f40_41xxx.o(.text)
    DMA2_Stream5_IRQHandler                  0x080001c5   Thumb Code     0  startup_stm32f40_41xxx.o(.text)
    DMA2_Stream6_IRQHandler                  0x080001c5   Thumb Code     0  startup_stm32f40_41xxx.o(.text)
    DMA2_Stream7_IRQHandler                  0x080001c5   Thumb Code     0  startup_stm32f40_41xxx.o(.text)
    ETH_IRQHandler                           0x080001c5   Thumb Code     0  startup_stm32f40_41xxx.o(.text)
    ETH_WKUP_IRQHandler                      0x080001c5   Thumb Code     0  startup_stm32f40_41xxx.o(.text)
    EXTI0_IRQHandler                         0x080001c5   Thumb Code     0  startup_stm32f40_41xxx.o(.text)
    EXTI15_10_IRQHandler                     0x080001c5   Thumb Code     0  startup_stm32f40_41xxx.o(.text)
    EXTI1_IRQHandler                         0x080001c5   Thumb Code     0  startup_stm32f40_41xxx.o(.text)
    EXTI2_IRQHandler                         0x080001c5   Thumb Code     0  startup_stm32f40_41xxx.o(.text)
    EXTI3_IRQHandler                         0x080001c5   Thumb Code     0  startup_stm32f40_41xxx.o(.text)
    EXTI4_IRQHandler                         0x080001c5   Thumb Code     0  startup_stm32f40_41xxx.o(.text)
    EXTI9_5_IRQHandler                       0x080001c5   Thumb Code     0  startup_stm32f40_41xxx.o(.text)
    FLASH_IRQHandler                         0x080001c5   Thumb Code     0  startup_stm32f40_41xxx.o(.text)
    FPU_IRQHandler                           0x080001c5   Thumb Code     0  startup_stm32f40_41xxx.o(.text)
    FSMC_IRQHandler                          0x080001c5   Thumb Code     0  startup_stm32f40_41xxx.o(.text)
    HASH_RNG_IRQHandler                      0x080001c5   Thumb Code     0  startup_stm32f40_41xxx.o(.text)
    I2C1_ER_IRQHandler                       0x080001c5   Thumb Code     0  startup_stm32f40_41xxx.o(.text)
    I2C1_EV_IRQHandler                       0x080001c5   Thumb Code     0  startup_stm32f40_41xxx.o(.text)
    I2C2_ER_IRQHandler                       0x080001c5   Thumb Code     0  startup_stm32f40_41xxx.o(.text)
    I2C2_EV_IRQHandler                       0x080001c5   Thumb Code     0  startup_stm32f40_41xxx.o(.text)
    I2C3_ER_IRQHandler                       0x080001c5   Thumb Code     0  startup_stm32f40_41xxx.o(.text)
    I2C3_EV_IRQHandler                       0x080001c5   Thumb Code     0  startup_stm32f40_41xxx.o(.text)
    OTG_FS_IRQHandler                        0x080001c5   Thumb Code     0  startup_stm32f40_41xxx.o(.text)
    OTG_FS_WKUP_IRQHandler                   0x080001c5   Thumb Code     0  startup_stm32f40_41xxx.o(.text)
    OTG_HS_EP1_IN_IRQHandler                 0x080001c5   Thumb Code     0  startup_stm32f40_41xxx.o(.text)
    OTG_HS_EP1_OUT_IRQHandler                0x080001c5   Thumb Code     0  startup_stm32f40_41xxx.o(.text)
    OTG_HS_IRQHandler                        0x080001c5   Thumb Code     0  startup_stm32f40_41xxx.o(.text)
    OTG_HS_WKUP_IRQHandler                   0x080001c5   Thumb Code     0  startup_stm32f40_41xxx.o(.text)
    PVD_IRQHandler                           0x080001c5   Thumb Code     0  startup_stm32f40_41xxx.o(.text)
    RCC_IRQHandler                           0x080001c5   Thumb Code     0  startup_stm32f40_41xxx.o(.text)
    RTC_Alarm_IRQHandler                     0x080001c5   Thumb Code     0  startup_stm32f40_41xxx.o(.text)
    RTC_WKUP_IRQHandler                      0x080001c5   Thumb Code     0  startup_stm32f40_41xxx.o(.text)
    SDIO_IRQHandler                          0x080001c5   Thumb Code     0  startup_stm32f40_41xxx.o(.text)
    SPI1_IRQHandler                          0x080001c5   Thumb Code     0  startup_stm32f40_41xxx.o(.text)
    SPI2_IRQHandler                          0x080001c5   Thumb Code     0  startup_stm32f40_41xxx.o(.text)
    SPI3_IRQHandler                          0x080001c5   Thumb Code     0  startup_stm32f40_41xxx.o(.text)
    TAMP_STAMP_IRQHandler                    0x080001c5   Thumb Code     0  startup_stm32f40_41xxx.o(.text)
    TIM1_BRK_TIM9_IRQHandler                 0x080001c5   Thumb Code     0  startup_stm32f40_41xxx.o(.text)
    TIM1_CC_IRQHandler                       0x080001c5   Thumb Code     0  startup_stm32f40_41xxx.o(.text)
    TIM1_TRG_COM_TIM11_IRQHandler            0x080001c5   Thumb Code     0  startup_stm32f40_41xxx.o(.text)
    TIM1_UP_TIM10_IRQHandler                 0x080001c5   Thumb Code     0  startup_stm32f40_41xxx.o(.text)
    TIM2_IRQHandler                          0x080001c5   Thumb Code     0  startup_stm32f40_41xxx.o(.text)
    TIM3_IRQHandler                          0x080001c5   Thumb Code     0  startup_stm32f40_41xxx.o(.text)
    TIM4_IRQHandler                          0x080001c5   Thumb Code     0  startup_stm32f40_41xxx.o(.text)
    TIM5_IRQHandler                          0x080001c5   Thumb Code     0  startup_stm32f40_41xxx.o(.text)
    TIM6_DAC_IRQHandler                      0x080001c5   Thumb Code     0  startup_stm32f40_41xxx.o(.text)
    TIM7_IRQHandler                          0x080001c5   Thumb Code     0  startup_stm32f40_41xxx.o(.text)
    TIM8_BRK_TIM12_IRQHandler                0x080001c5   Thumb Code     0  startup_stm32f40_41xxx.o(.text)
    TIM8_CC_IRQHandler                       0x080001c5   Thumb Code     0  startup_stm32f40_41xxx.o(.text)
    TIM8_TRG_COM_TIM14_IRQHandler            0x080001c5   Thumb Code     0  startup_stm32f40_41xxx.o(.text)
    TIM8_UP_TIM13_IRQHandler                 0x080001c5   Thumb Code     0  startup_stm32f40_41xxx.o(.text)
    UART4_IRQHandler                         0x080001c5   Thumb Code     0  startup_stm32f40_41xxx.o(.text)
    UART5_IRQHandler                         0x080001c5   Thumb Code     0  startup_stm32f40_41xxx.o(.text)
    USART3_IRQHandler                        0x080001c5   Thumb Code     0  startup_stm32f40_41xxx.o(.text)
    USART6_IRQHandler                        0x080001c5   Thumb Code     0  startup_stm32f40_41xxx.o(.text)
    WWDG_IRQHandler                          0x080001c5   Thumb Code     0  startup_stm32f40_41xxx.o(.text)
    LOS_StartToRun                           0x080001d1   Thumb Code     0  los_dispatch.o(.text)
    __aeabi_memset                           0x08000235   Thumb Code    14  memseta.o(.text)
    __aeabi_memset4                          0x08000235   Thumb Code     0  memseta.o(.text)
    __aeabi_memset8                          0x08000235   Thumb Code     0  memseta.o(.text)
    __aeabi_memclr                           0x08000243   Thumb Code     4  memseta.o(.text)
    __aeabi_memclr4                          0x08000243   Thumb Code     0  memseta.o(.text)
    __aeabi_memclr8                          0x08000243   Thumb Code     0  memseta.o(.text)
    _memset$wrapper                          0x08000247   Thumb Code    18  memseta.o(.text)
    __scatterload                            0x08000259   Thumb Code    28  init.o(.text)
    __scatterload_rt2                        0x08000259   Thumb Code     0  init.o(.text)
    __decompress                             0x0800027d   Thumb Code     0  __dczerorl2.o(.text)
    __decompress1                            0x0800027d   Thumb Code    86  __dczerorl2.o(.text)
    LOS_IntLock                              0x080002d5   Thumb Code     0  los_dispatch.o(KERNEL)
    LOS_IntUnLock                            0x080002dd   Thumb Code     0  los_dispatch.o(KERNEL)
    LOS_IntRestore                           0x080002e5   Thumb Code     0  los_dispatch.o(KERNEL)
    osTaskSchedule                           0x080002eb   Thumb Code     0  los_dispatch.o(KERNEL)
    PendSV_Handler                           0x080002f5   Thumb Code     0  los_dispatch.o(KERNEL)
    Delay                                    0x0800035d   Thumb Code    18  test.o(i.Delay)
    GPIO_AF_Set                              0x0800036f   Thumb Code    64  sys.o(i.GPIO_AF_Set)
    GPIO_Set                                 0x080003af   Thumb Code   222  sys.o(i.GPIO_Set)
    LED_Init                                 0x0800048d   Thumb Code    48  led.o(i.LED_Init)
    LOS_Align                                0x080004cd   Thumb Code    28  los_misc.o(i.LOS_Align)
    LOS_DLnkInitMultiHead                    0x080004e9   Thumb Code    30  los_multipledlinkhead.o(i.LOS_DLnkInitMultiHead)
    LOS_DLnkMultiHead                        0x08000507   Thumb Code    42  los_multipledlinkhead.o(i.LOS_DLnkMultiHead)
    LOS_HwiCreate                            0x08000531   Thumb Code   142  los_hwi.o(i.LOS_HwiCreate)
    LOS_MemAlloc                             0x08000815   Thumb Code    58  los_memory.o(i.LOS_MemAlloc)
    LOS_MemAllocAlign                        0x0800084f   Thumb Code   108  los_memory.o(i.LOS_MemAllocAlign)
    LOS_MemFree                              0x080008bb   Thumb Code    84  los_memory.o(i.LOS_MemFree)
    LOS_MemInit                              0x0800090f   Thumb Code   166  los_memory.o(i.LOS_MemInit)
    LOS_MemboxAlloc                          0x080009b5   Thumb Code    60  los_membox.o(i.LOS_MemboxAlloc)
    LOS_MemboxFree                           0x080009f5   Thumb Code   158  los_membox.o(i.LOS_MemboxFree)
    LOS_MemboxInit                           0x08000a99   Thumb Code   128  los_membox.o(i.LOS_MemboxInit)
    LOS_PriqueueDequeue                      0x08000b19   Thumb Code    24  los_priqueue.o(i.LOS_PriqueueDequeue)
    LOS_PriqueueEnqueue                      0x08000b31   Thumb Code    32  los_priqueue.o(i.LOS_PriqueueEnqueue)
    LOS_PriqueueSize                         0x08000b55   Thumb Code    36  los_priqueue.o(i.LOS_PriqueueSize)
    LOS_PriqueueTop                          0x08000b7d   Thumb Code    54  los_priqueue.o(i.LOS_PriqueueTop)
    LOS_QueueCreate                          0x08000bb9   Thumb Code   118  los_queue.o(i.LOS_QueueCreate)
    LOS_QueueRead                            0x08000c35   Thumb Code   282  los_queue.o(i.LOS_QueueRead)
    LOS_QueueWrite                           0x08000d65   Thumb Code   296  los_queue.o(i.LOS_QueueWrite)
    LOS_Schedule                             0x08000ea1   Thumb Code    56  los_hw.o(i.LOS_Schedule)
    LOS_SemPost                              0x08000ee1   Thumb Code   176  los_sem.o(i.LOS_SemPost)
    LOS_Start                                0x08000f99   Thumb Code    22  los_config.o(i.LOS_Start)
    LOS_TaskCreate                           0x08000fb1   Thumb Code   140  los_task.o(i.LOS_TaskCreate)
    LOS_TaskCreateOnly                       0x0800104d   Thumb Code   368  los_task.o(i.LOS_TaskCreateOnly)
    LOS_TaskDelay                            0x080011d1   Thumb Code   106  los_task.o(i.LOS_TaskDelay)
    LOS_TaskLock                             0x08001251   Thumb Code    26  los_task.o(i.LOS_TaskLock)
    LOS_TaskUnlock                           0x08001271   Thumb Code    54  los_task.o(i.LOS_TaskUnlock)
    LOS_TaskYield                            0x080012ad   Thumb Code   118  los_task.o(i.LOS_TaskYield)
    MY_NVIC_SetVectorTable                   0x08001331   Thumb Code    12  sys.o(i.MY_NVIC_SetVectorTable)
    Stm32_Clock_Init                         0x08001341   Thumb Code    90  sys.o(i.Stm32_Clock_Init)
    SysTick_Handler                          0x080013a9   Thumb Code    34  los_tick.o(i.SysTick_Handler)
    Sys_Clock_Set                            0x080013d1   Thumb Code   254  sys.o(i.Sys_Clock_Set)
    USART1_IRQHandler                        0x080014dd   Thumb Code   126  usart.o(i.USART1_IRQHandler)
    USART2_IRQHandler                        0x08001569   Thumb Code   128  usart.o(i.USART2_IRQHandler)
    __0printf$bare                           0x080015f5   Thumb Code     8  printfb.o(i.__0printf$bare)
    __1printf$bare                           0x080015f5   Thumb Code     0  printfb.o(i.__0printf$bare)
    __2printf                                0x080015f5   Thumb Code     0  printfb.o(i.__0printf$bare)
    __scatterload_copy                       0x08001605   Thumb Code    14  handlers.o(i.__scatterload_copy)
    __scatterload_null                       0x08001613   Thumb Code     2  handlers.o(i.__scatterload_null)
    __scatterload_zeroinit                   0x08001615   Thumb Code    14  handlers.o(i.__scatterload_zeroinit)
    creat_task1                              0x08001645   Thumb Code    52  test.o(i.creat_task1)
    creat_uart_task                          0x08001689   Thumb Code    52  test.o(i.creat_uart_task)
    fputc                                    0x080016d1   Thumb Code    22  usart.o(i.fputc)
    main                                     0x080016ed   Thumb Code    26  los_config.o(i.main)
    osAppInit                                0x08001709   Thumb Code    72  test.o(i.osAppInit)
    osHwiDefaultHandler                      0x08001759   Thumb Code     8  los_hwi.o(i.osHwiDefaultHandler)
    osHwiInit                                0x08001761   Thumb Code    32  los_hwi.o(i.osHwiInit)
    osIdleTask                               0x08001791   Thumb Code     4  los_task.o(i.osIdleTask)
    osIdleTaskCreate                         0x08001795   Thumb Code    54  los_task.o(i.osIdleTaskCreate)
    osInterrupt                              0x080017e1   Thumb Code    70  los_hwi.o(i.osInterrupt)
    osMain                                   0x08001831   Thumb Code   102  los_config.o(i.osMain)
    osMemSystemInit                          0x08001b6d   Thumb Code    26  los_memory.o(i.osMemSystemInit)
    osMuxInit                                0x08001b91   Thumb Code    74  los_mux.o(i.osMuxInit)
    osPriqueueInit                           0x08001bed   Thumb Code    64  los_priqueue.o(i.osPriqueueInit)
    osQueueCreate                            0x08001c35   Thumb Code   100  los_queue.o(i.osQueueCreate)
    osQueueInit                              0x08001ca5   Thumb Code    44  los_queue.o(i.osQueueInit)
    osRegister                               0x08001dbd   Thumb Code    14  los_config.o(i.osRegister)
    osSchedule                               0x08001dd9   Thumb Code     8  los_hw.o(i.osSchedule)
    osSemInit                                0x08001de1   Thumb Code    70  los_sem.o(i.osSemInit)
    osSwTmrInit                              0x08001e39   Thumb Code   142  los_swtmr.o(i.osSwTmrInit)
    osSwTmrStart                             0x08001ee5   Thumb Code    92  los_swtmr.o(i.osSwTmrStart)
    osSwTmrTask                              0x08001f45   Thumb Code    70  los_swtmr.o(i.osSwTmrTask)
    osSwTmrTaskCreate                        0x08001f95   Thumb Code    52  los_swtmr.o(i.osSwTmrTaskCreate)
    osSwtmrScan                              0x0800207d   Thumb Code    32  los_swtmr.o(i.osSwtmrScan)
    osTaskAdd2TimerList                      0x080020a1   Thumb Code   188  los_task.o(i.osTaskAdd2TimerList)
    osTaskEntry                              0x08002161   Thumb Code   154  los_task.o(i.osTaskEntry)
    osTaskExit                               0x08002205   Thumb Code     6  los_hw.o(i.osTaskExit)
    osTaskInit                               0x0800220d   Thumb Code   258  los_task.o(i.osTaskInit)
    osTaskMemUsedDec                         0x08002335   Thumb Code    40  los_memstat.o(i.osTaskMemUsedDec)
    osTaskMemUsedInc                         0x08002369   Thumb Code    48  los_memstat.o(i.osTaskMemUsedInc)
    osTaskScan                               0x080023a5   Thumb Code   214  los_task.o(i.osTaskScan)
    osTaskSelfDelete                         0x08002481   Thumb Code   236  los_task.o(i.osTaskSelfDelete)
    osTickStart                              0x0800257d   Thumb Code    56  los_hw_tick.o(i.osTickStart)
    osTimerListDelete                        0x080025d5   Thumb Code    66  los_task.o(i.osTimerListDelete)
    osTimesliceCheck                         0x0800261d   Thumb Code    64  los_timeslice.o(i.osTimesliceCheck)
    osTimesliceInit                          0x08002669   Thumb Code    12  los_timeslice.o(i.osTimesliceInit)
    osTskStackInit                           0x08002679   Thumb Code   306  los_hw.o(i.osTskStackInit)
    task1                                    0x080027b9   Thumb Code    42  test.o(i.task1)
    uart_init                                0x080027e9   Thumb Code   464  usart.o(i.uart_init)
    uart_task                                0x080029d9   Thumb Code    80  test.o(i.uart_task)
    Region$$Table$$Base                      0x08002a38   Number         0  anon$$obj.o(Region$$Table)
    Region$$Table$$Limit                     0x08002a68   Number         0  anon$$obj.o(Region$$Table)
    m_pstHwiForm                             0x20000000   Data        1024  los_hwi.o(.vector.bss)
    Image$$ARM_LIB_STACKHEAP$$ZI$$Limit      0x20000600   Number         0  anon$$obj.o ABSOLUTE
    g_TestTskHandle                          0x20000600   Data           4  test.o(.data)
    __stdout                                 0x20000604   Data           4  usart.o(.data)
    USART_RX_STA                             0x20000608   Data           2  usart.o(.data)
    USART2_RX_STA                            0x2000060a   Data           2  usart.o(.data)
    g_pstLosPriorityQueueList                0x2000060c   Data           4  los_priqueue.o(.data)
    m_uwSwTmrHandlerQueue                    0x20000610   Data           4  los_swtmr.o(.data)
    m_pstSwtmrCBArray                        0x20000614   Data           4  los_swtmr.o(.data)
    m_pstSwtmrFreeList                       0x20000618   Data           4  los_swtmr.o(.data)
    m_pstSwtmrSortList                       0x2000061c   Data           4  los_swtmr.o(.data)
    g_pstTaskCBArray                         0x20000620   Data           4  los_task.o(.data)
    g_stLosTask                              0x20000624   Data           8  los_task.o(.data)
    g_usLosTaskLock                          0x2000062c   Data           2  los_task.o(.data)
    g_uwTskMaxNum                            0x20000630   Data           4  los_task.o(.data)
    g_uwIdleTaskID                           0x20000634   Data           4  los_task.o(.data)
    g_uwSwtmrTaskID                          0x20000638   Data           4  los_task.o(.data)
    g_stTaskTimerList                        0x2000063c   Data           8  los_task.o(.data)
    g_stLosFreeTask                          0x20000644   Data           8  los_task.o(.data)
    g_stTskRecyleList                        0x2000064c   Data           8  los_task.o(.data)
    g_stTskSortLink                          0x20000654   Data           8  los_task.o(.data)
    g_bTaskScheduled                         0x2000065c   Data           4  los_task.o(.data)
    g_pfnTskSwitchHook                       0x20000660   Data           4  los_task.o(.data)
    g_ullTickCount                           0x20000668   Data           8  los_tick.o(.data)
    g_uwTicksPerSec                          0x20000670   Data           4  los_tick.o(.data)
    g_uwCyclePerSec                          0x20000674   Data           4  los_tick.o(.data)
    g_stTaskTimeSlice                        0x20000678   Data           8  los_timeslice.o(.data)
    g_pstAllMux                              0x20000680   Data           4  los_mux.o(.data)
    g_stUnusedMuxList                        0x20000684   Data           8  los_mux.o(.data)
    g_pstAllQueue                            0x2000068c   Data           4  los_queue.o(.data)
    g_stUnusedSemList                        0x20000690   Data           8  los_sem.o(.data)
    g_pstAllSem                              0x20000698   Data           4  los_sem.o(.data)
    m_aucSysMem0                             0x2000069c   Data           4  los_config.o(.data)
    g_sys_mem_addr_end                       0x200006a0   Data           4  los_config.o(.data)
    g_uwCyclesPerTick                        0x200006a4   Data           4  los_hw_tick.o(.data)
    g_vuwIntCount                            0x200006a8   Data           4  los_hwi.o(.data)
    USART_RX_BUF                             0x200006ac   Data         200  usart.o(.bss)
    USART2_RX_BUF                            0x20000774   Data         200  usart.o(.bss)
    m_aucSwTmrHandlerPool                    0x2000083c   Data         208  los_swtmr.o(.bss)
    g_ucMemStart                             0x2000090c   Data       32768  los_memory.o(.bss)
    g_TskMemUsedInfo                         0x2000890c   Data          64  los_memstat.o(.bss)
    m_pstHwiSlaveForm                        0x2000894c   Data        1024  los_hwi.o(.bss)
    __initial_sp                             0x20009150   Data           0  startup_stm32f40_41xxx.o(STACK)



==============================================================================

Memory Map of the image

  Image Entry point : 0x08000189

  Load Region LR_IROM1 (Base: 0x08000000, Size: 0x00002f14, Max: 0x00100000, ABSOLUTE, COMPRESSED[0x00002b30])

    Execution Region ER_IROM1 (Base: 0x08000000, Size: 0x00002a68, Max: 0x00100000, ABSOLUTE)

    Base Addr    Size         Type   Attr      Idx    E Section Name        Object

    0x08000000   0x00000188   Data   RO            4    RESET               startup_stm32f40_41xxx.o
    0x08000188   0x00000000   Code   RO         1582  * .ARM.Collect$$$$00000000  mc_w.l(entry.o)
    0x08000188   0x00000004   Code   RO         1859    .ARM.Collect$$$$00000002  mc_w.l(entry3.o)
    0x0800018c   0x00000004   Code   RO         1862    .ARM.Collect$$$$00000004  mc_w.l(entry5.o)
    0x08000190   0x00000000   Code   RO         1864    .ARM.Collect$$$$00000008  mc_w.l(entry7b.o)
    0x08000190   0x00000000   Code   RO         1866    .ARM.Collect$$$$0000000A  mc_w.l(entry8b.o)
    0x08000190   0x00000008   Code   RO         1867    .ARM.Collect$$$$0000000B  mc_w.l(entry9a.o)
    0x08000198   0x00000000   Code   RO         1869    .ARM.Collect$$$$0000000D  mc_w.l(entry10a.o)
    0x08000198   0x00000000   Code   RO         1871    .ARM.Collect$$$$0000000F  mc_w.l(entry11a.o)
    0x08000198   0x00000004   Code   RO         1860    .ARM.Collect$$$$00002713  mc_w.l(entry3.o)
    0x0800019c   0x00000006   Code   RO         1527    .emb_text           los_hwi.o
    0x080001a2   0x00000002   PAD
    0x080001a4   0x0000002c   Code   RO            5    .text               startup_stm32f40_41xxx.o
    0x080001d0   0x00000064   Code   RO         1576    .text               los_dispatch.o
    0x08000234   0x00000024   Code   RO         1589    .text               mc_w.l(memseta.o)
    0x08000258   0x00000024   Code   RO         1888    .text               mc_w.l(init.o)
    0x0800027c   0x00000056   Code   RO         1900    .text               mc_w.l(__dczerorl2.o)
    0x080002d2   0x00000002   PAD
    0x080002d4   0x00000088   Code   RO         1577    KERNEL              los_dispatch.o
    0x0800035c   0x00000012   Code   RO           13    i.Delay             test.o
    0x0800036e   0x00000040   Code   RO          193    i.GPIO_AF_Set       sys.o
    0x080003ae   0x000000de   Code   RO          194    i.GPIO_Set          sys.o
    0x0800048c   0x00000040   Code   RO          324    i.LED_Init          led.o
    0x080004cc   0x0000001c   Code   RO         1405    i.LOS_Align         los_misc.o
    0x080004e8   0x0000001e   Code   RO         1373    i.LOS_DLnkInitMultiHead  los_multipledlinkhead.o
    0x08000506   0x0000002a   Code   RO         1374    i.LOS_DLnkMultiHead  los_multipledlinkhead.o
    0x08000530   0x000000a4   Code   RO         1528    i.LOS_HwiCreate     los_hwi.o
    0x080005d4   0x0000000e   Code   RO          640    i.LOS_ListAdd       los_task.o
    0x080005e2   0x0000000e   Code   RO          937    i.LOS_ListAdd       los_mux.o
    0x080005f0   0x0000000e   Code   RO         1011    i.LOS_ListAdd       los_queue.o
    0x080005fe   0x0000000e   Code   RO         1116    i.LOS_ListAdd       los_sem.o
    0x0800060c   0x0000000e   Code   RO         1219    i.LOS_ListAdd       los_memory.o
    0x0800061a   0x00000014   Code   RO          641    i.LOS_ListDelete    los_task.o
    0x0800062e   0x00000014   Code   RO         1117    i.LOS_ListDelete    los_sem.o
    0x08000642   0x00000014   Code   RO         1220    i.LOS_ListDelete    los_memory.o
    0x08000656   0x00000010   Code   RO          642    i.LOS_ListEmpty     los_task.o
    0x08000666   0x00000010   Code   RO         1012    i.LOS_ListEmpty     los_queue.o
    0x08000676   0x00000010   Code   RO         1118    i.LOS_ListEmpty     los_sem.o
    0x08000686   0x00000006   Code   RO          643    i.LOS_ListInit      los_task.o
    0x0800068c   0x00000006   Code   RO          940    i.LOS_ListInit      los_mux.o
    0x08000692   0x00000006   Code   RO         1013    i.LOS_ListInit      los_queue.o
    0x08000698   0x00000006   Code   RO         1119    i.LOS_ListInit      los_sem.o
    0x0800069e   0x00000010   Code   RO          644    i.LOS_ListTailInsert  los_task.o
    0x080006ae   0x00000010   Code   RO          941    i.LOS_ListTailInsert  los_mux.o
    0x080006be   0x00000010   Code   RO         1120    i.LOS_ListTailInsert  los_sem.o
    0x080006ce   0x00000002   PAD
    0x080006d0   0x00000144   Code   RO         1375    i.LOS_Log2          los_multipledlinkhead.o
    0x08000814   0x0000003a   Code   RO         1221    i.LOS_MemAlloc      los_memory.o
    0x0800084e   0x0000006c   Code   RO         1222    i.LOS_MemAllocAlign  los_memory.o
    0x080008ba   0x00000054   Code   RO         1223    i.LOS_MemFree       los_memory.o
    0x0800090e   0x000000a6   Code   RO         1224    i.LOS_MemInit       los_memory.o
    0x080009b4   0x00000040   Code   RO         1186    i.LOS_MemboxAlloc   los_membox.o
    0x080009f4   0x000000a4   Code   RO         1188    i.LOS_MemboxFree    los_membox.o
    0x08000a98   0x00000080   Code   RO         1189    i.LOS_MemboxInit    los_membox.o
    0x08000b18   0x00000018   Code   RO          342    i.LOS_PriqueueDequeue  los_priqueue.o
    0x08000b30   0x00000024   Code   RO          343    i.LOS_PriqueueEnqueue  los_priqueue.o
    0x08000b54   0x00000028   Code   RO          344    i.LOS_PriqueueSize  los_priqueue.o
    0x08000b7c   0x0000003c   Code   RO          345    i.LOS_PriqueueTop   los_priqueue.o
    0x08000bb8   0x0000007c   Code   RO         1014    i.LOS_QueueCreate   los_queue.o
    0x08000c34   0x00000130   Code   RO         1016    i.LOS_QueueRead     los_queue.o
    0x08000d64   0x0000013c   Code   RO         1017    i.LOS_QueueWrite    los_queue.o
    0x08000ea0   0x00000040   Code   RO         1476    i.LOS_Schedule      los_hw.o
    0x08000ee0   0x000000b8   Code   RO         1124    i.LOS_SemPost       los_sem.o
    0x08000f98   0x00000016   Code   RO         1423    i.LOS_Start         los_config.o
    0x08000fae   0x00000002   PAD
    0x08000fb0   0x0000009c   Code   RO          645    i.LOS_TaskCreate    los_task.o
    0x0800104c   0x00000184   Code   RO          646    i.LOS_TaskCreateOnly  los_task.o
    0x080011d0   0x00000080   Code   RO          647    i.LOS_TaskDelay     los_task.o
    0x08001250   0x00000020   Code   RO          649    i.LOS_TaskLock      los_task.o
    0x08001270   0x0000003c   Code   RO          654    i.LOS_TaskUnlock    los_task.o
    0x080012ac   0x00000084   Code   RO          655    i.LOS_TaskYield     los_task.o
    0x08001330   0x00000010   Code   RO          197    i.MY_NVIC_SetVectorTable  sys.o
    0x08001340   0x00000068   Code   RO          198    i.Stm32_Clock_Init  sys.o
    0x080013a8   0x00000028   Code   RO          837    i.SysTick_Handler   los_tick.o
    0x080013d0   0x0000010c   Code   RO          199    i.Sys_Clock_Set     sys.o
    0x080014dc   0x0000008c   Code   RO          269    i.USART1_IRQHandler  usart.o
    0x08001568   0x0000008c   Code   RO          270    i.USART2_IRQHandler  usart.o
    0x080015f4   0x00000010   Code   RO         1594    i.__0printf$bare    mc_w.l(printfb.o)
    0x08001604   0x0000000e   Code   RO         1894    i.__scatterload_copy  mc_w.l(handlers.o)
    0x08001612   0x00000002   Code   RO         1895    i.__scatterload_null  mc_w.l(handlers.o)
    0x08001614   0x0000000e   Code   RO         1896    i.__scatterload_zeroinit  mc_w.l(handlers.o)
    0x08001622   0x00000022   Code   RO         1601    i._printf_core      mc_w.l(printfb.o)
    0x08001644   0x00000044   Code   RO           16    i.creat_task1       test.o
    0x08001688   0x00000048   Code   RO           17    i.creat_uart_task   test.o
    0x080016d0   0x0000001c   Code   RO          272    i.fputc             usart.o
    0x080016ec   0x0000001a   Code   RO         1424    i.main              los_config.o
    0x08001706   0x00000002   PAD
    0x08001708   0x00000050   Code   RO           19    i.osAppInit         test.o
    0x08001758   0x00000008   Code   RO         1530    i.osHwiDefaultHandler  los_hwi.o
    0x08001760   0x00000030   Code   RO         1531    i.osHwiInit         los_hwi.o
    0x08001790   0x00000004   Code   RO          656    i.osIdleTask        los_task.o
    0x08001794   0x0000004c   Code   RO          657    i.osIdleTaskCreate  los_task.o
    0x080017e0   0x00000050   Code   RO         1532    i.osInterrupt       los_hwi.o
    0x08001830   0x00000066   Code   RO         1427    i.osMain            los_config.o
    0x08001896   0x0000005c   Code   RO         1226    i.osMemAllocWithCheck  los_memory.o
    0x080018f2   0x00000098   Code   RO         1227    i.osMemCheckUsedNode  los_memory.o
    0x0800198a   0x00000050   Code   RO         1228    i.osMemFindSuitableFreeBlock  los_memory.o
    0x080019da   0x000000b2   Code   RO         1229    i.osMemFreeNode     los_memory.o
    0x08001a8c   0x0000003e   Code   RO         1230    i.osMemIsNodeValid  los_memory.o
    0x08001aca   0x00000024   Code   RO         1231    i.osMemMergeNode    los_memory.o
    0x08001aee   0x00000002   PAD
    0x08001af0   0x00000020   Code   RO         1232    i.osMemSetMagicNumAndTaskid  los_memory.o
    0x08001b10   0x0000005c   Code   RO         1233    i.osMemSpitNode     los_memory.o
    0x08001b6c   0x00000024   Code   RO         1234    i.osMemSystemInit   los_memory.o
    0x08001b90   0x0000005c   Code   RO          946    i.osMuxInit         los_mux.o
    0x08001bec   0x00000048   Code   RO          347    i.osPriqueueInit    los_priqueue.o
    0x08001c34   0x00000070   Code   RO         1018    i.osQueueCreate     los_queue.o
    0x08001ca4   0x00000038   Code   RO         1019    i.osQueueInit       los_queue.o
    0x08001cdc   0x00000084   Code   RO         1022    i.osQueuePend       los_queue.o
    0x08001d60   0x0000005a   Code   RO         1023    i.osQueueWakeUp     los_queue.o
    0x08001dba   0x00000002   PAD
    0x08001dbc   0x0000001c   Code   RO         1428    i.osRegister        los_config.o
    0x08001dd8   0x00000008   Code   RO         1477    i.osSchedule        los_hw.o
    0x08001de0   0x00000058   Code   RO         1125    i.osSemInit         los_sem.o
    0x08001e38   0x000000ac   Code   RO          440    i.osSwTmrInit       los_swtmr.o
    0x08001ee4   0x00000060   Code   RO          441    i.osSwTmrStart      los_swtmr.o
    0x08001f44   0x00000050   Code   RO          442    i.osSwTmrTask       los_swtmr.o
    0x08001f94   0x00000048   Code   RO          443    i.osSwTmrTaskCreate  los_swtmr.o
    0x08001fdc   0x0000008c   Code   RO          444    i.osSwTmrTimeoutHandle  los_swtmr.o
    0x08002068   0x00000014   Code   RO          445    i.osSwtmrDelete     los_swtmr.o
    0x0800207c   0x00000024   Code   RO          446    i.osSwtmrScan       los_swtmr.o
    0x080020a0   0x000000c0   Code   RO          658    i.osTaskAdd2TimerList  los_task.o
    0x08002160   0x000000a4   Code   RO          659    i.osTaskEntry       los_task.o
    0x08002204   0x00000006   Code   RO         1478    i.osTaskExit        los_hw.o
    0x0800220a   0x00000002   PAD
    0x0800220c   0x00000128   Code   RO          660    i.osTaskInit        los_task.o
    0x08002334   0x00000034   Code   RO         1344    i.osTaskMemUsedDec  los_memstat.o
    0x08002368   0x0000003c   Code   RO         1345    i.osTaskMemUsedInc  los_memstat.o
    0x080023a4   0x000000dc   Code   RO          662    i.osTaskScan        los_task.o
    0x08002480   0x000000fc   Code   RO          663    i.osTaskSelfDelete  los_task.o
    0x0800257c   0x00000058   Code   RO         1507    i.osTickStart       los_hw_tick.o
    0x080025d4   0x00000048   Code   RO          664    i.osTimerListDelete  los_task.o
    0x0800261c   0x0000004c   Code   RO          865    i.osTimesliceCheck  los_timeslice.o
    0x08002668   0x00000010   Code   RO          866    i.osTimesliceInit   los_timeslice.o
    0x08002678   0x00000140   Code   RO         1479    i.osTskStackInit    los_hw.o
    0x080027b8   0x00000030   Code   RO           20    i.task1             test.o
    0x080027e8   0x000001f0   Code   RO          273    i.uart_init         usart.o
    0x080029d8   0x00000060   Code   RO           21    i.uart_task         test.o
    0x08002a38   0x00000030   Data   RO         1892    Region$$Table       anon$$obj.o


    Execution Region VECTOR (Base: 0x20000000, Size: 0x00000400, Max: 0x00000400, ABSOLUTE, COMPRESSED[0x0000001c])

    Base Addr    Size         Type   Attr      Idx    E Section Name        Object

    0x20000000   0x00000400   Data   RW         1535    .vector.bss         los_hwi.o


    Execution Region ARM_LIB_STACKHEAP (Base: 0x20000400, Size: 0x00000200, Max: 0x00000200, ABSOLUTE)

    Base Addr    Size         Type   Attr      Idx    E Section Name        Object

    0x20000400   0x00000200   Zero   RW            1    ARM_LIB_STACKHEAP.bss  anon$$obj.o


    Execution Region RW_IRAM1 (Base: 0x20000600, Size: 0x00008b50, Max: 0x0000fa00, ABSOLUTE)

    Base Addr    Size         Type   Attr      Idx    E Section Name        Object

    0x20000600   0x00000004   Data   RW           22    .data               test.o
    0x20000604   0x00000008   Data   RW          275    .data               usart.o
    0x2000060c   0x00000004   Data   RW          348    .data               los_priqueue.o
    0x20000610   0x00000010   Data   RW          449    .data               los_swtmr.o
    0x20000620   0x00000044   Data   RW          665    .data               los_task.o
    0x20000664   0x00000004   PAD
    0x20000668   0x00000010   Data   RW          838    .data               los_tick.o
    0x20000678   0x00000008   Data   RW          867    .data               los_timeslice.o
    0x20000680   0x0000000c   Data   RW          947    .data               los_mux.o
    0x2000068c   0x00000004   Data   RW         1024    .data               los_queue.o
    0x20000690   0x0000000c   Data   RW         1126    .data               los_sem.o
    0x2000069c   0x00000008   Data   RW         1429    .data               los_config.o
    0x200006a4   0x00000004   Data   RW         1508    .data               los_hw_tick.o
    0x200006a8   0x00000004   Data   RW         1534    .data               los_hwi.o
    0x200006ac   0x00000190   Zero   RW          274    .bss                usart.o
    0x2000083c   0x000000d0   Zero   RW          448    .bss                los_swtmr.o
    0x2000090c   0x00008000   Zero   RW         1235    .bss                los_memory.o
    0x2000890c   0x00000040   Zero   RW         1346    .bss                los_memstat.o
    0x2000894c   0x00000400   Zero   RW         1533    .bss                los_hwi.o
    0x20008d4c   0x00000004   PAD
    0x20008d50   0x00000400   Zero   RW            2    STACK               startup_stm32f40_41xxx.o


==============================================================================

Image component sizes


      Code (inc. data)   RO Data    RW Data    ZI Data      Debug   Object Name

        64         16          0          0          0        491   led.o
       178         14          0          8          0       3470   los_config.o
       236         30          0          0          0        720   los_dispatch.o
       398         22          0          0          0       3194   los_hw.o
        88         32          0          4          0        862   los_hw_tick.o
       306         48          0       1028       1024       6671   los_hwi.o
       356         10          0          0          0       3976   los_membox.o
      1210         14          0          0      32768      15952   los_memory.o
       112         24          0          0         64       2073   los_memstat.o
        28          0          0          0          0        644   los_misc.o
       396          4          0          0          0       5220   los_multipledlinkhead.o
       128         18          0         12          0       6024   los_mux.o
       232         22          0          4          0       7370   los_priqueue.o
      1170         72          0          4          0      18401   los_queue.o
       344         26          0         12          0       5686   los_sem.o
       616         84          0         16        208      17667   los_swtmr.o
      2244        186          0         68          0      25663   los_task.o
        40          6          0         16          0        903   los_tick.o
        92         16          0          8          0       1369   los_timeslice.o
        44         10        392          0       1024        856   startup_stm32f40_41xxx.o
       674         32          0          0          0       3713   sys.o
       382         66          0          4          0     243390   test.o
       804         64          0          8        400       4708   usart.o

    ----------------------------------------------------------------------
     10156        816        440       1196      36004     379023   Object Totals
         0          0         48          0        512          0   (incl. Generated)
        14          0          0          4          4          0   (incl. Padding)

    ----------------------------------------------------------------------

      Code (inc. data)   RO Data    RW Data    ZI Data      Debug   Library Member Name

        86          0          0          0          0          0   __dczerorl2.o
         0          0          0          0          0          0   entry.o
         0          0          0          0          0          0   entry10a.o
         0          0          0          0          0          0   entry11a.o
         8          4          0          0          0          0   entry3.o
         4          0          0          0          0          0   entry5.o
         0          0          0          0          0          0   entry7b.o
         0          0          0          0          0          0   entry8b.o
         8          4          0          0          0          0   entry9a.o
        30          0          0          0          0          0   handlers.o
        36          8          0          0          0         68   init.o
        36          0          0          0          0        108   memseta.o
        50          8          0          0          0        152   printfb.o

    ----------------------------------------------------------------------
       260         24          0          0          0        328   Library Totals
         2          0          0          0          0          0   (incl. Padding)

    ----------------------------------------------------------------------

      Code (inc. data)   RO Data    RW Data    ZI Data      Debug   Library Name

       258         24          0          0          0        328   mc_w.l

    ----------------------------------------------------------------------
       260         24          0          0          0        328   Library Totals

    ----------------------------------------------------------------------

==============================================================================


      Code (inc. data)   RO Data    RW Data    ZI Data      Debug   

     10416        840        440       1196      36004     369283   Grand Totals
     10416        840        440        200      36004     369283   ELF Image Totals (compressed)
     10416        840        440        200          0          0   ROM Totals

==============================================================================

    Total RO  Size (Code + RO Data)                10856 (  10.60kB)
    Total RW  Size (RW Data + ZI Data)             37200 (  36.33kB)
    Total ROM Size (Code + RO Data + RW Data)      11056 (  10.80kB)

==============================================================================

